---
triple:          'arm64-apple-darwin'
binary-path:     mission_rescue
relocations:
  - { offsetInCU: 0x560D, offset: 0x560D, size: 0x8, addend: 0x0, symName: __ZNSt3__14endlB7v160006IcNS_11char_traitsIcEEEERNS_13basic_ostreamIT_T0_EES7_, symObjAddr: 0x248, symBinAddr: 0x1000032A8, symSize: 0x58 }
  - { offsetInCU: 0x564D, offset: 0x564D, size: 0x8, addend: 0x0, symName: __ZNSt3__119__debug_db_insert_cB7v160006INS_12basic_stringIcNS_11char_traitsIcEENS_9allocatorIcEEEEEEvPT_, symObjAddr: 0x3D0, symBinAddr: 0x100003430, symSize: 0x10 }
  - { offsetInCU: 0x567E, offset: 0x567E, size: 0x8, addend: 0x0, symName: __ZNSt3__118__constexpr_strlenB7v160006EPKc, symObjAddr: 0x49C, symBinAddr: 0x1000034FC, symSize: 0x24 }
  - { offsetInCU: 0x56AA, offset: 0x56AA, size: 0x8, addend: 0x0, symName: __ZNSt3__118__debug_db_erase_cB7v160006INS_6vectorIP6SectorNS_9allocatorIS3_EEEEEEvPT_, symObjAddr: 0x6B8, symBinAddr: 0x100003718, symSize: 0x10 }
  - { offsetInCU: 0x56DB, offset: 0x56DB, size: 0x8, addend: 0x0, symName: __ZNSt3__112__to_addressB7v160006IP6SectorEEPT_S4_, symObjAddr: 0x7FC, symBinAddr: 0x10000385C, symSize: 0x14 }
  - { offsetInCU: 0x5710, offset: 0x5710, size: 0x8, addend: 0x0, symName: __ZNSt3__119__libcpp_deallocateB7v160006EPvmm, symObjAddr: 0x91C, symBinAddr: 0x10000397C, symSize: 0x30 }
  - { offsetInCU: 0x5758, offset: 0x5758, size: 0x8, addend: 0x0, symName: __ZNSt3__127__do_deallocate_handle_sizeB7v160006IJEEEvPvmDpT_, symObjAddr: 0x94C, symBinAddr: 0x1000039AC, symSize: 0x28 }
  - { offsetInCU: 0x5796, offset: 0x5796, size: 0x8, addend: 0x0, symName: __ZNSt3__124__libcpp_operator_deleteB7v160006IJPvEEEvDpT_, symObjAddr: 0x974, symBinAddr: 0x1000039D4, symSize: 0x24 }
  - { offsetInCU: 0x57CB, offset: 0x57CB, size: 0x8, addend: 0x0, symName: __ZNSt3__19use_facetB7v160006INS_5ctypeIcEEEERKT_RKNS_6localeE, symObjAddr: 0xAB4, symBinAddr: 0x100003B14, symSize: 0x2C }
  - { offsetInCU: 0x5C9A, offset: 0x5C9A, size: 0x8, addend: 0x0, symName: __ZNSt3__115__debug_db_swapB7v160006INS_6vectorIP6SectorNS_9allocatorIS3_EEEEEEvPT_S8_, symObjAddr: 0xCA4, symBinAddr: 0x100003D04, symSize: 0x14 }
  - { offsetInCU: 0x5CD9, offset: 0x5CD9, size: 0x8, addend: 0x0, symName: __ZNSt3__125__debug_db_invalidate_allB7v160006INS_6vectorIP6SectorNS_9allocatorIS3_EEEEEEvPT_, symObjAddr: 0xDC0, symBinAddr: 0x100003E20, symSize: 0x10 }
  - { offsetInCU: 0xA944, offset: 0xA944, size: 0x8, addend: 0x0, symName: _main, symObjAddr: 0x0, symBinAddr: 0x100003060, symSize: 0x1E8 }
  - { offsetInCU: 0xA99C, offset: 0xA99C, size: 0x8, addend: 0x0, symName: __ZNSt3__112basic_stringIcNS_11char_traitsIcEENS_9allocatorIcEEEC1B7v160006IDnEEPKc, symObjAddr: 0x1E8, symBinAddr: 0x100003248, symSize: 0x34 }
  - { offsetInCU: 0xAA85, offset: 0xAA85, size: 0x8, addend: 0x0, symName: __ZNSt3__113basic_ostreamIcNS_11char_traitsIcEEElsB7v160006EPFRS3_S4_E, symObjAddr: 0x21C, symBinAddr: 0x10000327C, symSize: 0x2C }
  - { offsetInCU: 0xAAB7, offset: 0xAAB7, size: 0x8, addend: 0x0, symName: __ZNSt3__16vectorIP6SectorNS_9allocatorIS2_EEEaSB7v160006EOS5_, symObjAddr: 0x2A0, symBinAddr: 0x100003300, symSize: 0x34 }
  - { offsetInCU: 0xAAEC, offset: 0xAAEC, size: 0x8, addend: 0x0, symName: __ZNSt3__16vectorIP6SectorNS_9allocatorIS2_EEED1B7v160006Ev, symObjAddr: 0x2D4, symBinAddr: 0x100003334, symSize: 0x2C }
  - { offsetInCU: 0xAB14, offset: 0xAB14, size: 0x8, addend: 0x0, symName: __ZNSt3__112basic_stringIcNS_11char_traitsIcEENS_9allocatorIcEEEC2B7v160006IDnEEPKc, symObjAddr: 0x300, symBinAddr: 0x100003360, symSize: 0x60 }
  - { offsetInCU: 0xAB55, offset: 0xAB55, size: 0x8, addend: 0x0, symName: __ZNSt3__117__compressed_pairINS_12basic_stringIcNS_11char_traitsIcEENS_9allocatorIcEEE5__repES5_EC1B7v160006INS_18__default_init_tagESA_EEOT_OT0_, symObjAddr: 0x360, symBinAddr: 0x1000033C0, symSize: 0x3C }
  - { offsetInCU: 0xABAB, offset: 0xABAB, size: 0x8, addend: 0x0, symName: __ZNSt3__111char_traitsIcE6lengthEPKc, symObjAddr: 0x39C, symBinAddr: 0x1000033FC, symSize: 0x34 }
  - { offsetInCU: 0xABCD, offset: 0xABCD, size: 0x8, addend: 0x0, symName: __ZNSt3__117__compressed_pairINS_12basic_stringIcNS_11char_traitsIcEENS_9allocatorIcEEE5__repES5_EC2B7v160006INS_18__default_init_tagESA_EEOT_OT0_, symObjAddr: 0x3E0, symBinAddr: 0x100003440, symSize: 0x3C }
  - { offsetInCU: 0xAC23, offset: 0xAC23, size: 0x8, addend: 0x0, symName: __ZNSt3__122__compressed_pair_elemINS_12basic_stringIcNS_11char_traitsIcEENS_9allocatorIcEEE5__repELi0ELb0EEC2B7v160006ENS_18__default_init_tagE, symObjAddr: 0x41C, symBinAddr: 0x10000347C, symSize: 0x14 }
  - { offsetInCU: 0xAC55, offset: 0xAC55, size: 0x8, addend: 0x0, symName: __ZNSt3__122__compressed_pair_elemINS_9allocatorIcEELi1ELb1EEC2B7v160006ENS_18__default_init_tagE, symObjAddr: 0x430, symBinAddr: 0x100003490, symSize: 0x2C }
  - { offsetInCU: 0xAC87, offset: 0xAC87, size: 0x8, addend: 0x0, symName: __ZNSt3__19allocatorIcEC2B7v160006Ev, symObjAddr: 0x45C, symBinAddr: 0x1000034BC, symSize: 0x2C }
  - { offsetInCU: 0xACAF, offset: 0xACAF, size: 0x8, addend: 0x0, symName: __ZNSt3__116__non_trivial_ifILb1ENS_9allocatorIcEEEC2B7v160006Ev, symObjAddr: 0x488, symBinAddr: 0x1000034E8, symSize: 0x14 }
  - { offsetInCU: 0xACD7, offset: 0xACD7, size: 0x8, addend: 0x0, symName: __ZNSt3__16vectorIP6SectorNS_9allocatorIS2_EEED2B7v160006Ev, symObjAddr: 0x4CC, symBinAddr: 0x10000352C, symSize: 0x44 }
  - { offsetInCU: 0xACFF, offset: 0xACFF, size: 0x8, addend: 0x0, symName: __ZNSt3__16vectorIP6SectorNS_9allocatorIS2_EEE16__destroy_vectorC1ERS5_, symObjAddr: 0x510, symBinAddr: 0x100003570, symSize: 0x34 }
  - { offsetInCU: 0xAD36, offset: 0xAD36, size: 0x8, addend: 0x0, symName: __ZNSt3__16vectorIP6SectorNS_9allocatorIS2_EEE16__destroy_vectorclB7v160006Ev, symObjAddr: 0x544, symBinAddr: 0x1000035A4, symSize: 0x9C }
  - { offsetInCU: 0xAD5A, offset: 0xAD5A, size: 0x8, addend: 0x0, symName: __ZNSt3__16vectorIP6SectorNS_9allocatorIS2_EEE16__destroy_vectorC2ERS5_, symObjAddr: 0x5E0, symBinAddr: 0x100003640, symSize: 0x20 }
  - { offsetInCU: 0xAD91, offset: 0xAD91, size: 0x8, addend: 0x0, symName: __ZNKSt3__16vectorIP6SectorNS_9allocatorIS2_EEE17__annotate_deleteB7v160006Ev, symObjAddr: 0x600, symBinAddr: 0x100003660, symSize: 0xB8 }
  - { offsetInCU: 0xADB5, offset: 0xADB5, size: 0x8, addend: 0x0, symName: __ZNSt3__16vectorIP6SectorNS_9allocatorIS2_EEE7__clearB7v160006Ev, symObjAddr: 0x6C8, symBinAddr: 0x100003728, symSize: 0x28 }
  - { offsetInCU: 0xADD9, offset: 0xADD9, size: 0x8, addend: 0x0, symName: __ZNSt3__116allocator_traitsINS_9allocatorIP6SectorEEE10deallocateB7v160006ERS4_PS3_m, symObjAddr: 0x6F0, symBinAddr: 0x100003750, symSize: 0x34 }
  - { offsetInCU: 0xAE1A, offset: 0xAE1A, size: 0x8, addend: 0x0, symName: __ZNSt3__16vectorIP6SectorNS_9allocatorIS2_EEE7__allocB7v160006Ev, symObjAddr: 0x724, symBinAddr: 0x100003784, symSize: 0x28 }
  - { offsetInCU: 0xAE3E, offset: 0xAE3E, size: 0x8, addend: 0x0, symName: __ZNKSt3__16vectorIP6SectorNS_9allocatorIS2_EEE8capacityB7v160006Ev, symObjAddr: 0x74C, symBinAddr: 0x1000037AC, symSize: 0x40 }
  - { offsetInCU: 0xAE62, offset: 0xAE62, size: 0x8, addend: 0x0, symName: __ZNKSt3__16vectorIP6SectorNS_9allocatorIS2_EEE31__annotate_contiguous_containerB7v160006EPKvS7_S7_S7_, symObjAddr: 0x78C, symBinAddr: 0x1000037EC, symSize: 0x20 }
  - { offsetInCU: 0xAEB2, offset: 0xAEB2, size: 0x8, addend: 0x0, symName: __ZNKSt3__16vectorIP6SectorNS_9allocatorIS2_EEE4dataB7v160006Ev, symObjAddr: 0x7AC, symBinAddr: 0x10000380C, symSize: 0x28 }
  - { offsetInCU: 0xAED6, offset: 0xAED6, size: 0x8, addend: 0x0, symName: __ZNKSt3__16vectorIP6SectorNS_9allocatorIS2_EEE4sizeB7v160006Ev, symObjAddr: 0x7D4, symBinAddr: 0x100003834, symSize: 0x28 }
  - { offsetInCU: 0xAEFA, offset: 0xAEFA, size: 0x8, addend: 0x0, symName: __ZNSt3__16vectorIP6SectorNS_9allocatorIS2_EEE22__base_destruct_at_endB7v160006EPS2_, symObjAddr: 0x810, symBinAddr: 0x100003870, symSize: 0x8C }
  - { offsetInCU: 0xAF3C, offset: 0xAF3C, size: 0x8, addend: 0x0, symName: __ZNSt3__116allocator_traitsINS_9allocatorIP6SectorEEE7destroyB7v160006IS3_vEEvRS4_PT_, symObjAddr: 0x89C, symBinAddr: 0x1000038FC, symSize: 0x2C }
  - { offsetInCU: 0xAF78, offset: 0xAF78, size: 0x8, addend: 0x0, symName: __ZNSt3__19allocatorIP6SectorE7destroyB7v160006EPS2_, symObjAddr: 0x8C8, symBinAddr: 0x100003928, symSize: 0x14 }
  - { offsetInCU: 0xAFAA, offset: 0xAFAA, size: 0x8, addend: 0x0, symName: __ZNSt3__19allocatorIP6SectorE10deallocateB7v160006EPS2_m, symObjAddr: 0x8DC, symBinAddr: 0x10000393C, symSize: 0x40 }
  - { offsetInCU: 0xAFEA, offset: 0xAFEA, size: 0x8, addend: 0x0, symName: __ZNSt3__117__compressed_pairIPP6SectorNS_9allocatorIS2_EEE6secondB7v160006Ev, symObjAddr: 0x998, symBinAddr: 0x1000039F8, symSize: 0x24 }
  - { offsetInCU: 0xB00E, offset: 0xB00E, size: 0x8, addend: 0x0, symName: __ZNSt3__122__compressed_pair_elemINS_9allocatorIP6SectorEELi1ELb1EE5__getB7v160006Ev, symObjAddr: 0x9BC, symBinAddr: 0x100003A1C, symSize: 0x14 }
  - { offsetInCU: 0xB032, offset: 0xB032, size: 0x8, addend: 0x0, symName: __ZNKSt3__16vectorIP6SectorNS_9allocatorIS2_EEE9__end_capB7v160006Ev, symObjAddr: 0x9D0, symBinAddr: 0x100003A30, symSize: 0x28 }
  - { offsetInCU: 0xB056, offset: 0xB056, size: 0x8, addend: 0x0, symName: __ZNKSt3__117__compressed_pairIPP6SectorNS_9allocatorIS2_EEE5firstB7v160006Ev, symObjAddr: 0x9F8, symBinAddr: 0x100003A58, symSize: 0x24 }
  - { offsetInCU: 0xB07A, offset: 0xB07A, size: 0x8, addend: 0x0, symName: __ZNKSt3__122__compressed_pair_elemIPP6SectorLi0ELb0EE5__getB7v160006Ev, symObjAddr: 0xA1C, symBinAddr: 0x100003A7C, symSize: 0x14 }
  - { offsetInCU: 0xB09E, offset: 0xB09E, size: 0x8, addend: 0x0, symName: __ZNKSt3__19basic_iosIcNS_11char_traitsIcEEE5widenB7v160006Ec, symObjAddr: 0xA30, symBinAddr: 0x100003A90, symSize: 0x84 }
  - { offsetInCU: 0xB10A, offset: 0xB10A, size: 0x8, addend: 0x0, symName: __ZNKSt3__15ctypeIcE5widenB7v160006Ec, symObjAddr: 0xAE0, symBinAddr: 0x100003B40, symSize: 0x38 }
  - { offsetInCU: 0xB13D, offset: 0xB13D, size: 0x8, addend: 0x0, symName: __ZNSt3__16vectorIP6SectorNS_9allocatorIS2_EEE13__move_assignERS5_NS_17integral_constantIbLb1EEE, symObjAddr: 0xB18, symBinAddr: 0x100003B78, symSize: 0xAC }
  - { offsetInCU: 0xB17D, offset: 0xB17D, size: 0x8, addend: 0x0, symName: __ZNSt3__16vectorIP6SectorNS_9allocatorIS2_EEE13__vdeallocateEv, symObjAddr: 0xBC4, symBinAddr: 0x100003C24, symSize: 0x8C }
  - { offsetInCU: 0xB1A3, offset: 0xB1A3, size: 0x8, addend: 0x0, symName: __ZNSt3__16vectorIP6SectorNS_9allocatorIS2_EEE19__move_assign_allocB7v160006ERS5_, symObjAddr: 0xC50, symBinAddr: 0x100003CB0, symSize: 0x2C }
  - { offsetInCU: 0xB1D6, offset: 0xB1D6, size: 0x8, addend: 0x0, symName: __ZNSt3__16vectorIP6SectorNS_9allocatorIS2_EEE9__end_capB7v160006Ev, symObjAddr: 0xC7C, symBinAddr: 0x100003CDC, symSize: 0x28 }
  - { offsetInCU: 0xB1FA, offset: 0xB1FA, size: 0x8, addend: 0x0, symName: __ZNSt3__16vectorIP6SectorNS_9allocatorIS2_EEE5clearB7v160006Ev, symObjAddr: 0xCB8, symBinAddr: 0x100003D18, symSize: 0x54 }
  - { offsetInCU: 0xB22D, offset: 0xB22D, size: 0x8, addend: 0x0, symName: __ZNKSt3__16vectorIP6SectorNS_9allocatorIS2_EEE17__annotate_shrinkB7v160006Em, symObjAddr: 0xD0C, symBinAddr: 0x100003D6C, symSize: 0xB4 }
  - { offsetInCU: 0xB260, offset: 0xB260, size: 0x8, addend: 0x0, symName: __ZNSt3__16vectorIP6SectorNS_9allocatorIS2_EEE19__move_assign_allocB7v160006ERS5_NS_17integral_constantIbLb1EEE, symObjAddr: 0xDD0, symBinAddr: 0x100003E30, symSize: 0x38 }
  - { offsetInCU: 0xB29E, offset: 0xB29E, size: 0x8, addend: 0x0, symName: __ZNSt3__117__compressed_pairIPP6SectorNS_9allocatorIS2_EEE5firstB7v160006Ev, symObjAddr: 0xE08, symBinAddr: 0x100003E68, symSize: 0x24 }
  - { offsetInCU: 0xB2C2, offset: 0xB2C2, size: 0x8, addend: 0x0, symName: __ZNSt3__122__compressed_pair_elemIPP6SectorLi0ELb0EE5__getB7v160006Ev, symObjAddr: 0xE2C, symBinAddr: 0x100003E8C, symSize: 0x14 }
  - { offsetInCU: 0x2A3A, offset: 0xE38A, size: 0x8, addend: 0x0, symName: __ZNSt3__1plB7v160006IcNS_11char_traitsIcEENS_9allocatorIcEEEENS_12basic_stringIT_T0_T1_EEOS9_RKS9_, symObjAddr: 0x64C, symBinAddr: 0x1000044B8, symSize: 0x40 }
  - { offsetInCU: 0x2AC5, offset: 0xE415, size: 0x8, addend: 0x0, symName: __ZNSt3__112__to_addressB7v160006IKcEEPT_S3_, symObjAddr: 0x1018, symBinAddr: 0x100004C3C, symSize: 0x14 }
  - { offsetInCU: 0x2B2D, offset: 0xE47D, size: 0x8, addend: 0x0, symName: __ZNSt3__115__debug_db_swapB7v160006INS_12basic_stringIcNS_11char_traitsIcEENS_9allocatorIcEEEEEEvPT_S8_, symObjAddr: 0x11C0, symBinAddr: 0x100004DE4, symSize: 0x14 }
  - { offsetInCU: 0x4B67, offset: 0x104B7, size: 0x8, addend: 0x0, symName: __ZN6SectorC2Eiii, symObjAddr: 0x0, symBinAddr: 0x100003EA0, symSize: 0x100 }
  - { offsetInCU: 0x4BBC, offset: 0x1050C, size: 0x8, addend: 0x0, symName: __ZNSt3__112basic_stringIcNS_11char_traitsIcEENS_9allocatorIcEEEC1B7v160006Ev, symObjAddr: 0x100, symBinAddr: 0x100003FA0, symSize: 0x2C }
  - { offsetInCU: 0x4BE4, offset: 0x10534, size: 0x8, addend: 0x0, symName: __Z4sqrtB7v160006IiENSt3__19enable_ifIXsr3std11is_integralIT_EE5valueEdE4typeES2_, symObjAddr: 0x12C, symBinAddr: 0x100003FCC, symSize: 0x24 }
  - { offsetInCU: 0x4C1C, offset: 0x1056C, size: 0x8, addend: 0x0, symName: __ZN6Sector18generateSectorCodeEiii, symObjAddr: 0x150, symBinAddr: 0x100003FF0, symSize: 0x2E8 }
  - { offsetInCU: 0x4C9A, offset: 0x105EA, size: 0x8, addend: 0x0, symName: __ZNSt3__112basic_stringIcNS_11char_traitsIcEENS_9allocatorIcEEEaSB7v160006EOS5_, symObjAddr: 0x438, symBinAddr: 0x1000042D8, symSize: 0x34 }
  - { offsetInCU: 0x4CCD, offset: 0x1061D, size: 0x8, addend: 0x0, symName: __ZN6SectorC1Eiii, symObjAddr: 0x46C, symBinAddr: 0x10000430C, symSize: 0x44 }
  - { offsetInCU: 0x4D22, offset: 0x10672, size: 0x8, addend: 0x0, symName: __ZN6SectorC2Eiiib, symObjAddr: 0x4B0, symBinAddr: 0x100004350, symSize: 0x110 }
  - { offsetInCU: 0x4D85, offset: 0x106D5, size: 0x8, addend: 0x0, symName: __ZN6SectorC1Eiiib, symObjAddr: 0x5C0, symBinAddr: 0x100004460, symSize: 0x58 }
  - { offsetInCU: 0x4DED, offset: 0x1073D, size: 0x8, addend: 0x0, symName: __ZN6SectorD2Ev, symObjAddr: 0x68C, symBinAddr: 0x1000044F8, symSize: 0x30 }
  - { offsetInCU: 0x4E18, offset: 0x10768, size: 0x8, addend: 0x0, symName: __ZN6SectorD1Ev, symObjAddr: 0x6BC, symBinAddr: 0x100004528, symSize: 0x2C }
  - { offsetInCU: 0x4E43, offset: 0x10793, size: 0x8, addend: 0x0, symName: __ZN6SectoraSERKS_, symObjAddr: 0x6E8, symBinAddr: 0x100004554, symSize: 0xC0 }
  - { offsetInCU: 0x4E78, offset: 0x107C8, size: 0x8, addend: 0x0, symName: __ZNK6SectoreqERKS_, symObjAddr: 0x7A8, symBinAddr: 0x100004614, symSize: 0x90 }
  - { offsetInCU: 0x4EAD, offset: 0x107FD, size: 0x8, addend: 0x0, symName: __ZNK6SectorneERKS_, symObjAddr: 0x838, symBinAddr: 0x1000046A4, symSize: 0x34 }
  - { offsetInCU: 0x4EE2, offset: 0x10832, size: 0x8, addend: 0x0, symName: __ZNSt3__112basic_stringIcNS_11char_traitsIcEENS_9allocatorIcEEEC2B7v160006Ev, symObjAddr: 0x86C, symBinAddr: 0x1000046D8, symSize: 0x54 }
  - { offsetInCU: 0x4F0A, offset: 0x1085A, size: 0x8, addend: 0x0, symName: __ZNSt3__112basic_stringIcNS_11char_traitsIcEENS_9allocatorIcEEE14__default_initB7v160006Ev, symObjAddr: 0x918, symBinAddr: 0x10000472C, symSize: 0x40 }
  - { offsetInCU: 0x4F2E, offset: 0x1087E, size: 0x8, addend: 0x0, symName: __ZNSt3__117__compressed_pairINS_12basic_stringIcNS_11char_traitsIcEENS_9allocatorIcEEE5__repES5_E5firstB7v160006Ev, symObjAddr: 0xA14, symBinAddr: 0x10000476C, symSize: 0x24 }
  - { offsetInCU: 0x4F52, offset: 0x108A2, size: 0x8, addend: 0x0, symName: __ZNSt3__122__compressed_pair_elemINS_12basic_stringIcNS_11char_traitsIcEENS_9allocatorIcEEE5__repELi0ELb0EE5__getB7v160006Ev, symObjAddr: 0xA38, symBinAddr: 0x100004790, symSize: 0x14 }
  - { offsetInCU: 0x4F76, offset: 0x108C6, size: 0x8, addend: 0x0, symName: __ZNSt3__112basic_stringIcNS_11char_traitsIcEENS_9allocatorIcEEE13__move_assignB7v160006ERS5_NS_17integral_constantIbLb1EEE, symObjAddr: 0xA4C, symBinAddr: 0x1000047A4, symSize: 0xC8 }
  - { offsetInCU: 0x4FB6, offset: 0x10906, size: 0x8, addend: 0x0, symName: __ZNKSt3__112basic_stringIcNS_11char_traitsIcEENS_9allocatorIcEEE9__is_longB7v160006Ev, symObjAddr: 0xB14, symBinAddr: 0x10000486C, symSize: 0x38 }
  - { offsetInCU: 0x4FDA, offset: 0x1092A, size: 0x8, addend: 0x0, symName: __ZNSt3__116allocator_traitsINS_9allocatorIcEEE10deallocateB7v160006ERS2_Pcm, symObjAddr: 0xB4C, symBinAddr: 0x1000048A4, symSize: 0x34 }
  - { offsetInCU: 0x501B, offset: 0x1096B, size: 0x8, addend: 0x0, symName: __ZNSt3__112basic_stringIcNS_11char_traitsIcEENS_9allocatorIcEEE7__allocB7v160006Ev, symObjAddr: 0xB80, symBinAddr: 0x1000048D8, symSize: 0x24 }
  - { offsetInCU: 0x503F, offset: 0x1098F, size: 0x8, addend: 0x0, symName: __ZNSt3__112basic_stringIcNS_11char_traitsIcEENS_9allocatorIcEEE18__get_long_pointerB7v160006Ev, symObjAddr: 0xBA4, symBinAddr: 0x1000048FC, symSize: 0x28 }
  - { offsetInCU: 0x5063, offset: 0x109B3, size: 0x8, addend: 0x0, symName: __ZNKSt3__112basic_stringIcNS_11char_traitsIcEENS_9allocatorIcEEE14__get_long_capB7v160006Ev, symObjAddr: 0xBCC, symBinAddr: 0x100004924, symSize: 0x30 }
  - { offsetInCU: 0x5087, offset: 0x109D7, size: 0x8, addend: 0x0, symName: __ZNSt3__112basic_stringIcNS_11char_traitsIcEENS_9allocatorIcEEE19__move_assign_allocB7v160006ERS5_, symObjAddr: 0xBFC, symBinAddr: 0x100004954, symSize: 0x2C }
  - { offsetInCU: 0x50BA, offset: 0x10A0A, size: 0x8, addend: 0x0, symName: __ZNSt3__112basic_stringIcNS_11char_traitsIcEENS_9allocatorIcEEE16__set_short_sizeB7v160006Em, symObjAddr: 0xC28, symBinAddr: 0x100004980, symSize: 0x78 }
  - { offsetInCU: 0x50ED, offset: 0x10A3D, size: 0x8, addend: 0x0, symName: __ZNSt3__111char_traitsIcE6assignERcRKc, symObjAddr: 0xCA0, symBinAddr: 0x1000049F8, symSize: 0x24 }
  - { offsetInCU: 0x511E, offset: 0x10A6E, size: 0x8, addend: 0x0, symName: __ZNSt3__112basic_stringIcNS_11char_traitsIcEENS_9allocatorIcEEE19__get_short_pointerB7v160006Ev, symObjAddr: 0xCC4, symBinAddr: 0x100004A1C, symSize: 0x28 }
  - { offsetInCU: 0x5142, offset: 0x10A92, size: 0x8, addend: 0x0, symName: __ZNKSt3__117__compressed_pairINS_12basic_stringIcNS_11char_traitsIcEENS_9allocatorIcEEE5__repES5_E5firstB7v160006Ev, symObjAddr: 0xCEC, symBinAddr: 0x100004A44, symSize: 0x24 }
  - { offsetInCU: 0x5166, offset: 0x10AB6, size: 0x8, addend: 0x0, symName: __ZNKSt3__122__compressed_pair_elemINS_12basic_stringIcNS_11char_traitsIcEENS_9allocatorIcEEE5__repELi0ELb0EE5__getB7v160006Ev, symObjAddr: 0xD10, symBinAddr: 0x100004A68, symSize: 0x14 }
  - { offsetInCU: 0x518A, offset: 0x10ADA, size: 0x8, addend: 0x0, symName: __ZNSt3__19allocatorIcE10deallocateB7v160006EPcm, symObjAddr: 0xD24, symBinAddr: 0x100004A7C, symSize: 0x40 }
  - { offsetInCU: 0x51CA, offset: 0x10B1A, size: 0x8, addend: 0x0, symName: __ZNSt3__117__compressed_pairINS_12basic_stringIcNS_11char_traitsIcEENS_9allocatorIcEEE5__repES5_E6secondB7v160006Ev, symObjAddr: 0xDE0, symBinAddr: 0x100004ABC, symSize: 0x24 }
  - { offsetInCU: 0x51EE, offset: 0x10B3E, size: 0x8, addend: 0x0, symName: __ZNSt3__122__compressed_pair_elemINS_9allocatorIcEELi1ELb1EE5__getB7v160006Ev, symObjAddr: 0xE04, symBinAddr: 0x100004AE0, symSize: 0x14 }
  - { offsetInCU: 0x5212, offset: 0x10B62, size: 0x8, addend: 0x0, symName: __ZNSt3__112basic_stringIcNS_11char_traitsIcEENS_9allocatorIcEEE19__move_assign_allocB7v160006ERS5_NS_17integral_constantIbLb1EEE, symObjAddr: 0xE18, symBinAddr: 0x100004AF4, symSize: 0x38 }
  - { offsetInCU: 0x5250, offset: 0x10BA0, size: 0x8, addend: 0x0, symName: __ZNSt3__114pointer_traitsIPcE10pointer_toB7v160006ERc, symObjAddr: 0xE50, symBinAddr: 0x100004B2C, symSize: 0x14 }
  - { offsetInCU: 0x5273, offset: 0x10BC3, size: 0x8, addend: 0x0, symName: __ZNSt3__112basic_stringIcNS_11char_traitsIcEENS_9allocatorIcEEE6appendB7v160006ERKS5_, symObjAddr: 0xF1C, symBinAddr: 0x100004B40, symSize: 0x4C }
  - { offsetInCU: 0x52A6, offset: 0x10BF6, size: 0x8, addend: 0x0, symName: __ZNSt3__112basic_stringIcNS_11char_traitsIcEENS_9allocatorIcEEEC1B7v160006EOS5_, symObjAddr: 0xF68, symBinAddr: 0x100004B8C, symSize: 0x34 }
  - { offsetInCU: 0x52DD, offset: 0x10C2D, size: 0x8, addend: 0x0, symName: __ZNKSt3__112basic_stringIcNS_11char_traitsIcEENS_9allocatorIcEEE4dataB7v160006Ev, symObjAddr: 0xF9C, symBinAddr: 0x100004BC0, symSize: 0x28 }
  - { offsetInCU: 0x5301, offset: 0x10C51, size: 0x8, addend: 0x0, symName: __ZNKSt3__112basic_stringIcNS_11char_traitsIcEENS_9allocatorIcEEE4sizeB7v160006Ev, symObjAddr: 0xFC4, symBinAddr: 0x100004BE8, symSize: 0x54 }
  - { offsetInCU: 0x5325, offset: 0x10C75, size: 0x8, addend: 0x0, symName: __ZNKSt3__112basic_stringIcNS_11char_traitsIcEENS_9allocatorIcEEE13__get_pointerB7v160006Ev, symObjAddr: 0x102C, symBinAddr: 0x100004C50, symSize: 0x54 }
  - { offsetInCU: 0x5349, offset: 0x10C99, size: 0x8, addend: 0x0, symName: __ZNKSt3__112basic_stringIcNS_11char_traitsIcEENS_9allocatorIcEEE18__get_long_pointerB7v160006Ev, symObjAddr: 0x1080, symBinAddr: 0x100004CA4, symSize: 0x28 }
  - { offsetInCU: 0x536D, offset: 0x10CBD, size: 0x8, addend: 0x0, symName: __ZNKSt3__112basic_stringIcNS_11char_traitsIcEENS_9allocatorIcEEE19__get_short_pointerB7v160006Ev, symObjAddr: 0x10A8, symBinAddr: 0x100004CCC, symSize: 0x28 }
  - { offsetInCU: 0x5391, offset: 0x10CE1, size: 0x8, addend: 0x0, symName: __ZNSt3__114pointer_traitsIPKcE10pointer_toB7v160006ERS1_, symObjAddr: 0x10D0, symBinAddr: 0x100004CF4, symSize: 0x14 }
  - { offsetInCU: 0x53B4, offset: 0x10D04, size: 0x8, addend: 0x0, symName: __ZNKSt3__112basic_stringIcNS_11char_traitsIcEENS_9allocatorIcEEE15__get_long_sizeB7v160006Ev, symObjAddr: 0x10E4, symBinAddr: 0x100004D08, symSize: 0x28 }
  - { offsetInCU: 0x53D8, offset: 0x10D28, size: 0x8, addend: 0x0, symName: __ZNKSt3__112basic_stringIcNS_11char_traitsIcEENS_9allocatorIcEEE16__get_short_sizeB7v160006Ev, symObjAddr: 0x110C, symBinAddr: 0x100004D30, symSize: 0x34 }
  - { offsetInCU: 0x53FC, offset: 0x10D4C, size: 0x8, addend: 0x0, symName: __ZNSt3__112basic_stringIcNS_11char_traitsIcEENS_9allocatorIcEEEC2B7v160006EOS5_, symObjAddr: 0x1140, symBinAddr: 0x100004D64, symSize: 0x80 }
  - { offsetInCU: 0x5C, offset: 0x10E02, size: 0x8, addend: 0x0, symName: __ZNSt3__1L19piecewise_constructE, symObjAddr: 0xC4CF, symBinAddr: 0x100013610, symSize: 0x0 }
  - { offsetInCU: 0x4029, offset: 0x14DCF, size: 0x8, addend: 0x0, symName: __ZNSt3__124__put_character_sequenceB7v160006IcNS_11char_traitsIcEEEERNS_13basic_ostreamIT_T0_EES7_PKS4_m, symObjAddr: 0x3678, symBinAddr: 0x100007FAC, symSize: 0x1EC }
  - { offsetInCU: 0xBAF4, offset: 0x1C89A, size: 0x8, addend: 0x0, symName: __ZNSt3__1lsB7v160006INS_11char_traitsIcEEEERNS_13basic_ostreamIcT_EES6_PKc, symObjAddr: 0x590, symBinAddr: 0x10000537C, symSize: 0x48 }
  - { offsetInCU: 0xBB3A, offset: 0x1C8E0, size: 0x8, addend: 0x0, symName: __ZNSt3__17getlineB7v160006IcNS_11char_traitsIcEENS_9allocatorIcEEEERNS_13basic_istreamIT_T0_EES9_RNS_12basic_stringIS6_S7_T1_EE, symObjAddr: 0x604, symBinAddr: 0x1000053C4, symSize: 0x5C }
  - { offsetInCU: 0xBED8, offset: 0x1CC7E, size: 0x8, addend: 0x0, symName: __ZNSt3__1rsB7v160006IcNS_11char_traitsIcEEEERNS_13basic_istreamIT_T0_EES7_RS4_, symObjAddr: 0x788, symBinAddr: 0x100005548, symSize: 0x18C }
  - { offsetInCU: 0xBF71, offset: 0x1CD17, size: 0x8, addend: 0x0, symName: __ZNSt3__1neB7v160006ERKNS_19__hash_map_iteratorINS_15__hash_iteratorIPNS_11__hash_nodeINS_17__hash_value_typeINS_12basic_stringIcNS_11char_traitsIcEENS_9allocatorIcEEEENS_6vectorIiNS7_IiEEEEEEPvEEEEEESK_, symObjAddr: 0x1468, symBinAddr: 0x100006228, symSize: 0x30 }
  - { offsetInCU: 0xBFAE, offset: 0x1CD54, size: 0x8, addend: 0x0, symName: __ZNSt3__1lsB7v160006IcNS_11char_traitsIcEENS_9allocatorIcEEEERNS_13basic_ostreamIT_T0_EES9_RKNS_12basic_stringIS6_S7_T1_EE, symObjAddr: 0x17FC, symBinAddr: 0x100006538, symSize: 0x4C }
  - { offsetInCU: 0xC006, offset: 0x1CDAC, size: 0x8, addend: 0x0, symName: __ZNSt3__1neB7v160006IcNS_11char_traitsIcEENS_9allocatorIcEEEEbRKNS_12basic_stringIT_T0_T1_EESB_, symObjAddr: 0x1CEC, symBinAddr: 0x100006A28, symSize: 0x34 }
  - { offsetInCU: 0xC1D6, offset: 0x1CF7C, size: 0x8, addend: 0x0, symName: __ZNSt3__119__debug_db_insert_cB7v160006INS_13unordered_mapINS_12basic_stringIcNS_11char_traitsIcEENS_9allocatorIcEEEENS_6vectorIiNS5_IiEEEENS_4hashIS7_EENS_8equal_toIS7_EENS5_INS_4pairIKS7_SA_EEEEEEEEvPT_, symObjAddr: 0x26C4, symBinAddr: 0x1000071D8, symSize: 0x10 }
  - { offsetInCU: 0xC207, offset: 0x1CFAD, size: 0x8, addend: 0x0, symName: __ZNSt3__118__debug_db_erase_cB7v160006INS_12__hash_tableINS_17__hash_value_typeINS_12basic_stringIcNS_11char_traitsIcEENS_9allocatorIcEEEENS_6vectorIiNS6_IiEEEEEENS_22__unordered_map_hasherIS8_SC_NS_4hashIS8_EENS_8equal_toIS8_EELb1EEENS_21__unordered_map_equalIS8_SC_SH_SF_Lb1EEENS6_ISC_EEEEEEvPT_, symObjAddr: 0x2E44, symBinAddr: 0x100007958, symSize: 0x10 }
  - { offsetInCU: 0xC26B, offset: 0x1D011, size: 0x8, addend: 0x0, symName: __ZNSt3__116__pad_and_outputB7v160006IcNS_11char_traitsIcEEEENS_19ostreambuf_iteratorIT_T0_EES6_PKS4_S8_S8_RNS_8ios_baseES4_, symObjAddr: 0x38B4, symBinAddr: 0x1000081B4, symSize: 0x240 }
  - { offsetInCU: 0xC33B, offset: 0x1D0E1, size: 0x8, addend: 0x0, symName: __ZNSt3__17getlineB7v160006IcNS_11char_traitsIcEENS_9allocatorIcEEEERNS_13basic_istreamIT_T0_EES9_RNS_12basic_stringIS6_S7_T1_EES6_, symObjAddr: 0x3E9C, symBinAddr: 0x100008690, symSize: 0x238 }
  - { offsetInCU: 0xC3FB, offset: 0x1D1A1, size: 0x8, addend: 0x0, symName: __ZNSt3__125__debug_db_invalidate_allB7v160006INS_12basic_stringIcNS_11char_traitsIcEENS_9allocatorIcEEEEEEvPT_, symObjAddr: 0x43B8, symBinAddr: 0x100008B58, symSize: 0x10 }
  - { offsetInCU: 0xC42C, offset: 0x1D1D2, size: 0x8, addend: 0x0, symName: __ZNSt3__122__make_exception_guardB7v160006INS_6vectorIiNS_9allocatorIiEEE16__destroy_vectorEEENS_28__exception_guard_exceptionsIT_EES7_, symObjAddr: 0x4A14, symBinAddr: 0x100009058, symSize: 0x40 }
  - { offsetInCU: 0xC461, offset: 0x1D207, size: 0x8, addend: 0x0, symName: __ZNSt3__119__debug_db_insert_cB7v160006INS_6vectorIiNS_9allocatorIiEEEEEEvPT_, symObjAddr: 0x4A88, symBinAddr: 0x1000090CC, symSize: 0x10 }
  - { offsetInCU: 0xC492, offset: 0x1D238, size: 0x8, addend: 0x0, symName: __ZNSt3__119__allocate_at_leastB7v160006INS_9allocatorIiEEEENS_19__allocation_resultINS_16allocator_traitsIT_E7pointerEEERS5_m, symObjAddr: 0x4E24, symBinAddr: 0x100009468, symSize: 0x40 }
  - { offsetInCU: 0xC4D5, offset: 0x1D27B, size: 0x8, addend: 0x0, symName: __ZNSt3__13minB7v160006ImEERKT_S3_S3_, symObjAddr: 0x4F60, symBinAddr: 0x1000095A4, symSize: 0x2C }
  - { offsetInCU: 0xC723, offset: 0x1D4C9, size: 0x8, addend: 0x0, symName: __ZNSt3__13minB7v160006ImNS_6__lessImmEEEERKT_S5_S5_T0_, symObjAddr: 0x4FEC, symBinAddr: 0x100009630, symSize: 0x54 }
  - { offsetInCU: 0xC7B8, offset: 0x1D55E, size: 0x8, addend: 0x0, symName: __ZNSt3__120__throw_length_errorB7v160006EPKc, symObjAddr: 0x50C8, symBinAddr: 0x10000970C, symSize: 0x64 }
  - { offsetInCU: 0xC7E1, offset: 0x1D587, size: 0x8, addend: 0x0, symName: __ZNSt3__117__libcpp_allocateB7v160006Emm, symObjAddr: 0x5238, symBinAddr: 0x10000987C, symSize: 0x28 }
  - { offsetInCU: 0xC81E, offset: 0x1D5C4, size: 0x8, addend: 0x0, symName: __ZNSt3__121__libcpp_operator_newB7v160006IJmEEEPvDpT_, symObjAddr: 0x5260, symBinAddr: 0x1000098A4, symSize: 0x24 }
  - { offsetInCU: 0xC857, offset: 0x1D5FD, size: 0x8, addend: 0x0, symName: __ZNSt3__112__to_addressB7v160006IiEEPT_S2_, symObjAddr: 0x537C, symBinAddr: 0x1000099C0, symSize: 0x14 }
  - { offsetInCU: 0xC88C, offset: 0x1D632, size: 0x8, addend: 0x0, symName: __ZNSt3__130__uninitialized_allocator_copyB7v160006INS_9allocatorIiEEiiLPv0EEEPT0_RT_PKS4_S9_S5_, symObjAddr: 0x542C, symBinAddr: 0x100009A70, symSize: 0x38 }
  - { offsetInCU: 0xC905, offset: 0x1D6AB, size: 0x8, addend: 0x0, symName: __ZNSt3__14copyB7v160006IPKiPiEET0_T_S5_S4_, symObjAddr: 0x54D4, symBinAddr: 0x100009B18, symSize: 0x40 }
  - { offsetInCU: 0xC95F, offset: 0x1D705, size: 0x8, addend: 0x0, symName: __ZNSt3__16__copyB7v160006INS_17_ClassicAlgPolicyEPKiS3_PiEENS_4pairIT0_T2_EES6_T1_S7_, symObjAddr: 0x5514, symBinAddr: 0x100009B58, symSize: 0x44 }
  - { offsetInCU: 0xC9CB, offset: 0x1D771, size: 0x8, addend: 0x0, symName: __ZNSt3__123__dispatch_copy_or_moveB7v160006INS_17_ClassicAlgPolicyENS_11__copy_loopIS1_EENS_14__copy_trivialEPKiS6_PiEENS_4pairIT2_T4_EES9_T3_SA_, symObjAddr: 0x5558, symBinAddr: 0x100009B9C, symSize: 0x44 }
  - { offsetInCU: 0xCA49, offset: 0x1D7EF, size: 0x8, addend: 0x0, symName: __ZNSt3__121__unwrap_and_dispatchB7v160006INS_10__overloadINS_11__copy_loopINS_17_ClassicAlgPolicyEEENS_14__copy_trivialEEEPKiS8_PiLi0EEENS_4pairIT0_T2_EESB_T1_SC_, symObjAddr: 0x559C, symBinAddr: 0x100009BE0, symSize: 0xB4 }
  - { offsetInCU: 0xCAD8, offset: 0x1D87E, size: 0x8, addend: 0x0, symName: __ZNSt3__114__unwrap_rangeB7v160006IPKiS2_EENS_4pairIT0_S4_EET_S6_, symObjAddr: 0x5650, symBinAddr: 0x100009C94, symSize: 0x60 }
  - { offsetInCU: 0xCC70, offset: 0x1DA16, size: 0x8, addend: 0x0, symName: __ZNSt3__113__unwrap_iterB7v160006IPiNS_18__unwrap_iter_implIS1_Lb1EEELi0EEEDTclsrT0_8__unwrapclsr3stdE7declvalIT_EEEES5_, symObjAddr: 0x56F8, symBinAddr: 0x100009D3C, symSize: 0x24 }
  - { offsetInCU: 0xCCB5, offset: 0x1DA5B, size: 0x8, addend: 0x0, symName: __ZNSt3__19make_pairB7v160006IPKiPiEENS_4pairINS_18__unwrap_ref_decayIT_E4typeENS5_IT0_E4typeEEEOS6_OS9_, symObjAddr: 0x571C, symBinAddr: 0x100009D60, symSize: 0x38 }
  - { offsetInCU: 0xCD04, offset: 0x1DAAA, size: 0x8, addend: 0x0, symName: __ZNSt3__114__rewrap_rangeB7v160006IPKiS2_EET_S3_T0_, symObjAddr: 0x5754, symBinAddr: 0x100009D98, symSize: 0x2C }
  - { offsetInCU: 0xCD50, offset: 0x1DAF6, size: 0x8, addend: 0x0, symName: __ZNSt3__113__rewrap_iterB7v160006IPiS1_NS_18__unwrap_iter_implIS1_Lb1EEEEET_S4_T0_, symObjAddr: 0x5780, symBinAddr: 0x100009DC4, symSize: 0x3C }
  - { offsetInCU: 0xCDA5, offset: 0x1DB4B, size: 0x8, addend: 0x0, symName: __ZNSt3__19make_pairB7v160006IPKiS2_EENS_4pairINS_18__unwrap_ref_decayIT_E4typeENS4_IT0_E4typeEEEOS5_OS8_, symObjAddr: 0x57BC, symBinAddr: 0x100009E00, symSize: 0x38 }
  - { offsetInCU: 0xCDF4, offset: 0x1DB9A, size: 0x8, addend: 0x0, symName: __ZNSt3__113__unwrap_iterB7v160006IPKiNS_18__unwrap_iter_implIS2_Lb1EEELi0EEEDTclsrT0_8__unwrapclsr3stdE7declvalIT_EEEES6_, symObjAddr: 0x57F4, symBinAddr: 0x100009E38, symSize: 0x24 }
  - { offsetInCU: 0xCF61, offset: 0x1DD07, size: 0x8, addend: 0x0, symName: __ZNSt3__112__to_addressB7v160006IKiEEPT_S3_, symObjAddr: 0x58AC, symBinAddr: 0x100009EF0, symSize: 0x14 }
  - { offsetInCU: 0xCF96, offset: 0x1DD3C, size: 0x8, addend: 0x0, symName: __ZNSt3__119__copy_trivial_implB7v160006IKiiEENS_4pairIPT_PT0_EES4_S4_S6_, symObjAddr: 0x58C0, symBinAddr: 0x100009F04, symSize: 0x84 }
  - { offsetInCU: 0xCFFE, offset: 0x1DDA4, size: 0x8, addend: 0x0, symName: __ZNSt3__19make_pairB7v160006IRPKiPiEENS_4pairINS_18__unwrap_ref_decayIT_E4typeENS6_IT0_E4typeEEEOS7_OSA_, symObjAddr: 0x5944, symBinAddr: 0x100009F88, symSize: 0x38 }
  - { offsetInCU: 0xD0A0, offset: 0x1DE46, size: 0x8, addend: 0x0, symName: __ZNSt3__113__rewrap_iterB7v160006IPKiS2_NS_18__unwrap_iter_implIS2_Lb1EEEEET_S5_T0_, symObjAddr: 0x5A80, symBinAddr: 0x10000A0C4, symSize: 0x3C }
  - { offsetInCU: 0xD0F5, offset: 0x1DE9B, size: 0x8, addend: 0x0, symName: __ZNSt3__118__debug_db_erase_cB7v160006INS_6vectorIiNS_9allocatorIiEEEEEEvPT_, symObjAddr: 0x5D20, symBinAddr: 0x10000A364, symSize: 0x10 }
  - { offsetInCU: 0xD126, offset: 0x1DECC, size: 0x8, addend: 0x0, symName: __ZNSt3__116__constrain_hashB7v160006Emm, symObjAddr: 0x64D8, symBinAddr: 0x10000AB1C, symSize: 0x98 }
  - { offsetInCU: 0xD160, offset: 0x1DF06, size: 0x8, addend: 0x0, symName: __ZNSt3__13maxB7v160006ImEERKT_S3_S3_, symObjAddr: 0x67E8, symBinAddr: 0x10000AE2C, symSize: 0x2C }
  - { offsetInCU: 0xD1A3, offset: 0x1DF49, size: 0x8, addend: 0x0, symName: __ZNSt3__116__is_hash_power2B7v160006Em, symObjAddr: 0x6814, symBinAddr: 0x10000AE58, symSize: 0x50 }
  - { offsetInCU: 0xD1CF, offset: 0x1DF75, size: 0x8, addend: 0x0, symName: __ZNSt3__116__do_string_hashB7v160006IPKcEEmT_S3_, symObjAddr: 0x6A74, symBinAddr: 0x10000B0B8, symSize: 0x3C }
  - { offsetInCU: 0xD215, offset: 0x1DFBB, size: 0x8, addend: 0x0, symName: __ZNSt3__110__loadwordB7v160006ImEET_PKv, symObjAddr: 0x7468, symBinAddr: 0x10000BAAC, symSize: 0x20 }
  - { offsetInCU: 0xD258, offset: 0x1DFFE, size: 0x8, addend: 0x0, symName: __ZNSt3__14swapB7v160006ImEENS_9enable_ifIXaasr21is_move_constructibleIT_EE5valuesr18is_move_assignableIS2_EE5valueEvE4typeERS2_S5_, symObjAddr: 0x7624, symBinAddr: 0x10000BC68, symSize: 0x3C }
  - { offsetInCU: 0xD2A9, offset: 0x1E04F, size: 0x8, addend: 0x0, symName: __ZNSt3__110__loadwordB7v160006IjEET_PKv, symObjAddr: 0x76B4, symBinAddr: 0x10000BCF8, symSize: 0x20 }
  - { offsetInCU: 0xD2EC, offset: 0x1E092, size: 0x8, addend: 0x0, symName: __ZNSt3__1eqB7v160006INS_9allocatorIcEEEEbRKNS_12basic_stringIcNS_11char_traitsIcEET_EES9_, symObjAddr: 0x7994, symBinAddr: 0x10000BFD8, symSize: 0x148 }
  - { offsetInCU: 0xD35F, offset: 0x1E105, size: 0x8, addend: 0x0, symName: __ZNSt3__118__constexpr_memcmpB7v160006IcEEiPKT_S3_m, symObjAddr: 0x7B48, symBinAddr: 0x10000C18C, symSize: 0x34 }
  - { offsetInCU: 0xD3CE, offset: 0x1E174, size: 0x8, addend: 0x0, symName: __ZNSt3__115__debug_db_swapB7v160006INS_6vectorIiNS_9allocatorIiEEEEEEvPT_S6_, symObjAddr: 0x8058, symBinAddr: 0x10000C69C, symSize: 0x14 }
  - { offsetInCU: 0xD40D, offset: 0x1E1B3, size: 0x8, addend: 0x0, symName: __ZNSt3__116__next_hash_pow2B7v160006Em, symObjAddr: 0x8598, symBinAddr: 0x10000CBDC, symSize: 0x6C }
  - { offsetInCU: 0xD439, offset: 0x1E1DF, size: 0x8, addend: 0x0, symName: __ZNSt3__125__debug_db_invalidate_allB7v160006INS_12__hash_tableINS_17__hash_value_typeINS_12basic_stringIcNS_11char_traitsIcEENS_9allocatorIcEEEENS_6vectorIiNS6_IiEEEEEENS_22__unordered_map_hasherIS8_SC_NS_4hashIS8_EENS_8equal_toIS8_EELb1EEENS_21__unordered_map_equalIS8_SC_SH_SF_Lb1EEENS6_ISC_EEEEEEvPT_, symObjAddr: 0x8604, symBinAddr: 0x10000CC48, symSize: 0x10 }
  - { offsetInCU: 0xD489, offset: 0x1E22F, size: 0x8, addend: 0x0, symName: __ZNSt3__112__libcpp_clzB7v160006Em, symObjAddr: 0x876C, symBinAddr: 0x10000CDB0, symSize: 0x1C }
  - { offsetInCU: 0xD4B5, offset: 0x1E25B, size: 0x8, addend: 0x0, symName: __ZNSt3__13maxB7v160006ImNS_6__lessImmEEEERKT_S5_S5_T0_, symObjAddr: 0x8788, symBinAddr: 0x10000CDCC, symSize: 0x54 }
  - { offsetInCU: 0xD50F, offset: 0x1E2B5, size: 0x8, addend: 0x0, symName: __ZNSt3__1neB7v160006ERKNS_15__hash_iteratorIPNS_11__hash_nodeINS_17__hash_value_typeINS_12basic_stringIcNS_11char_traitsIcEENS_9allocatorIcEEEENS_6vectorIiNS6_IiEEEEEEPvEEEESI_, symObjAddr: 0x8B40, symBinAddr: 0x10000D184, symSize: 0x34 }
  - { offsetInCU: 0xD54C, offset: 0x1E2F2, size: 0x8, addend: 0x0, symName: __ZNSt3__1eqB7v160006ERKNS_15__hash_iteratorIPNS_11__hash_nodeINS_17__hash_value_typeINS_12basic_stringIcNS_11char_traitsIcEENS_9allocatorIcEEEENS_6vectorIiNS6_IiEEEEEEPvEEEESI_, symObjAddr: 0x8B74, symBinAddr: 0x10000D1B8, symSize: 0x30 }
  - { offsetInCU: 0xD5BD, offset: 0x1E363, size: 0x8, addend: 0x0, symName: __ZNSt3__1neB7v160006ERKNS_21__hash_const_iteratorIPNS_11__hash_nodeINS_17__hash_value_typeINS_12basic_stringIcNS_11char_traitsIcEENS_9allocatorIcEEEENS_6vectorIiNS6_IiEEEEEEPvEEEESI_, symObjAddr: 0x8C6C, symBinAddr: 0x10000D2B0, symSize: 0x34 }
  - { offsetInCU: 0xD5FA, offset: 0x1E3A0, size: 0x8, addend: 0x0, symName: __ZNSt3__1eqB7v160006ERKNS_21__hash_const_iteratorIPNS_11__hash_nodeINS_17__hash_value_typeINS_12basic_stringIcNS_11char_traitsIcEENS_9allocatorIcEEEENS_6vectorIiNS6_IiEEEEEEPvEEEESI_, symObjAddr: 0x8E8C, symBinAddr: 0x10000D4D0, symSize: 0x30 }
  - { offsetInCU: 0xD66F, offset: 0x1E415, size: 0x8, addend: 0x0, symName: __ZNSt3__116forward_as_tupleB7v160006IJRKNS_12basic_stringIcNS_11char_traitsIcEENS_9allocatorIcEEEEEEENS_5tupleIJDpOT_EEESC_, symObjAddr: 0x9474, symBinAddr: 0x10000DAB8, symSize: 0x2C }
  - { offsetInCU: 0xD6A8, offset: 0x1E44E, size: 0x8, addend: 0x0, symName: __ZNSt3__116forward_as_tupleB7v160006IJEEENS_5tupleIJDpOT_EEES4_, symObjAddr: 0x94A0, symBinAddr: 0x10000DAE4, symSize: 0x4 }
  - { offsetInCU: 0xD6D9, offset: 0x1E47F, size: 0x8, addend: 0x0, symName: __ZNSt3__13getB7v160006ILm0EJRKNS_12basic_stringIcNS_11char_traitsIcEENS_9allocatorIcEEEEEEERNS_13tuple_elementIXT_ENS_5tupleIJDpT0_EEEE4typeERSD_, symObjAddr: 0x9744, symBinAddr: 0x10000DD88, symSize: 0x24 }
  - { offsetInCU: 0xD740, offset: 0x1E4E6, size: 0x8, addend: 0x0, symName: __ZNSt3__130__uninitialized_allocator_copyB7v160006INS_9allocatorIiEEPiS3_S3_EET2_RT_T0_T1_S4_, symObjAddr: 0x9A9C, symBinAddr: 0x10000E0E0, symSize: 0xF4 }
  - { offsetInCU: 0xD7DE, offset: 0x1E584, size: 0x8, addend: 0x0, symName: __ZNSt3__122__make_exception_guardB7v160006INS_29_AllocatorDestroyRangeReverseINS_9allocatorIiEEPiEEEENS_28__exception_guard_exceptionsIT_EES7_, symObjAddr: 0x9B90, symBinAddr: 0x10000E1D4, symSize: 0x4C }
  - { offsetInCU: 0xD814, offset: 0x1E5BA, size: 0x8, addend: 0x0, symName: __ZNSt3__119__allocator_destroyB7v160006INS_9allocatorIiEENS_16reverse_iteratorIPiEES5_EEvRT_T0_T1_, symObjAddr: 0x9E18, symBinAddr: 0x10000E45C, symSize: 0x70 }
  - { offsetInCU: 0xD877, offset: 0x1E61D, size: 0x8, addend: 0x0, symName: __ZNSt3__1neB7v160006IPiS1_EEbRKNS_16reverse_iteratorIT_EERKNS2_IT0_EE, symObjAddr: 0x9EBC, symBinAddr: 0x10000E500, symSize: 0x48 }
  - { offsetInCU: 0xD8C3, offset: 0x1E669, size: 0x8, addend: 0x0, symName: __ZNSt3__112__to_addressB7v160006INS_16reverse_iteratorIPiEEvEENS_5decayIDTclsr19__to_address_helperIT_EE6__callclsr3stdE7declvalIRKS5_EEEEE4typeES7_, symObjAddr: 0x9F04, symBinAddr: 0x10000E548, symSize: 0x24 }
  - { offsetInCU: 0xD923, offset: 0x1E6C9, size: 0x8, addend: 0x0, symName: __ZNSt3__119__debug_db_insert_cB7v160006INS_6vectorIP6SectorNS_9allocatorIS3_EEEEEEvPT_, symObjAddr: 0xA5D4, symBinAddr: 0x10000EC18, symSize: 0x10 }
  - { offsetInCU: 0xD954, offset: 0x1E6FA, size: 0x8, addend: 0x0, symName: __ZNSt3__119__allocate_at_leastB7v160006INS_9allocatorIP6SectorEEEENS_19__allocation_resultINS_16allocator_traitsIT_E7pointerEEERS7_m, symObjAddr: 0xB2BC, symBinAddr: 0x10000F3E0, symSize: 0x40 }
  - { offsetInCU: 0xD997, offset: 0x1E73D, size: 0x8, addend: 0x0, symName: __ZNSt3__142__uninitialized_allocator_move_if_noexceptB7v160006INS_9allocatorIP6SectorEENS_16reverse_iteratorIPS3_EES7_S3_vEET1_RT_T0_SB_S8_, symObjAddr: 0xB470, symBinAddr: 0x10000F594, symSize: 0x78 }
  - { offsetInCU: 0xDA14, offset: 0x1E7BA, size: 0x8, addend: 0x0, symName: __ZNSt3__14swapB7v160006IPP6SectorEENS_9enable_ifIXaasr21is_move_constructibleIT_EE5valuesr18is_move_assignableIS5_EE5valueEvE4typeERS5_S8_, symObjAddr: 0xB534, symBinAddr: 0x10000F658, symSize: 0x3C }
  - { offsetInCU: 0xDA65, offset: 0x1E80B, size: 0x8, addend: 0x0, symName: __ZNSt3__14moveB7v160006INS_16reverse_iteratorIPP6SectorEES5_EET0_T_S7_S6_, symObjAddr: 0xB62C, symBinAddr: 0x10000F740, symSize: 0x78 }
  - { offsetInCU: 0xDABF, offset: 0x1E865, size: 0x8, addend: 0x0, symName: __ZNSt3__16__moveB7v160006INS_17_ClassicAlgPolicyENS_16reverse_iteratorIPP6SectorEES6_S6_EENS_4pairIT0_T2_EES8_T1_S9_, symObjAddr: 0xB6A4, symBinAddr: 0x10000F7B8, symSize: 0x64 }
  - { offsetInCU: 0xDB2B, offset: 0x1E8D1, size: 0x8, addend: 0x0, symName: __ZNSt3__123__dispatch_copy_or_moveB7v160006INS_17_ClassicAlgPolicyENS_11__move_loopIS1_EENS_14__move_trivialENS_16reverse_iteratorIPP6SectorEES9_S9_EENS_4pairIT2_T4_EESB_T3_SC_, symObjAddr: 0xB708, symBinAddr: 0x10000F81C, symSize: 0x64 }
  - { offsetInCU: 0xDBA9, offset: 0x1E94F, size: 0x8, addend: 0x0, symName: __ZNSt3__121__unwrap_and_dispatchB7v160006INS_10__overloadINS_11__move_loopINS_17_ClassicAlgPolicyEEENS_14__move_trivialEEENS_16reverse_iteratorIPP6SectorEESB_SB_Li0EEENS_4pairIT0_T2_EESD_T1_SE_, symObjAddr: 0xB76C, symBinAddr: 0x10000F880, symSize: 0x12C }
  - { offsetInCU: 0xDC3A, offset: 0x1E9E0, size: 0x8, addend: 0x0, symName: __ZNSt3__114__unwrap_rangeB7v160006INS_16reverse_iteratorIPP6SectorEES5_EENS_4pairIT0_S7_EET_S9_, symObjAddr: 0xB898, symBinAddr: 0x10000F9AC, symSize: 0x84 }
  - { offsetInCU: 0xDDB6, offset: 0x1EB5C, size: 0x8, addend: 0x0, symName: __ZNSt3__113__unwrap_iterB7v160006INS_16reverse_iteratorIPP6SectorEENS_18__unwrap_iter_implIS5_Lb0EEELi0EEEDTclsrT0_8__unwrapclsr3stdE7declvalIT_EEEES9_, symObjAddr: 0xB9BC, symBinAddr: 0x10000FAD0, symSize: 0x44 }
  - { offsetInCU: 0xDDFB, offset: 0x1EBA1, size: 0x8, addend: 0x0, symName: __ZNSt3__19make_pairB7v160006INS_16reverse_iteratorIPP6SectorEES5_EENS_4pairINS_18__unwrap_ref_decayIT_E4typeENS7_IT0_E4typeEEEOS8_OSB_, symObjAddr: 0xBA00, symBinAddr: 0x10000FB14, symSize: 0x38 }
  - { offsetInCU: 0xDE4A, offset: 0x1EBF0, size: 0x8, addend: 0x0, symName: __ZNSt3__114__rewrap_rangeB7v160006INS_16reverse_iteratorIPP6SectorEES5_EET_S6_T0_, symObjAddr: 0xBA38, symBinAddr: 0x10000FB4C, symSize: 0x5C }
  - { offsetInCU: 0xDE96, offset: 0x1EC3C, size: 0x8, addend: 0x0, symName: __ZNSt3__113__rewrap_iterB7v160006INS_16reverse_iteratorIPP6SectorEES5_NS_18__unwrap_iter_implIS5_Lb0EEEEET_S8_T0_, symObjAddr: 0xBA94, symBinAddr: 0x10000FBA8, symSize: 0x74 }
  - { offsetInCU: 0xDEEB, offset: 0x1EC91, size: 0x8, addend: 0x0, symName: __ZNSt3__1neB7v160006IPP6SectorS3_EEbRKNS_16reverse_iteratorIT_EERKNS4_IT0_EE, symObjAddr: 0xBB08, symBinAddr: 0x10000FC1C, symSize: 0x48 }
  - { offsetInCU: 0xE38F, offset: 0x1F135, size: 0x8, addend: 0x0, symName: __ZSt28__throw_bad_array_new_lengthB7v160006v, symObjAddr: 0x5204, symBinAddr: 0x100009848, symSize: 0x34 }
  - { offsetInCU: 0xEFD0, offset: 0x1FD76, size: 0x8, addend: 0x0, symName: __ZNSt3__16vectorIP6SectorNS_9allocatorIS2_EEE26__swap_out_circular_bufferERNS_14__split_bufferIS2_RS4_EE, symObjAddr: 0xAF54, symBinAddr: 0x10000F078, symSize: 0x118 }
  - { offsetInCU: 0x1108F, offset: 0x21E35, size: 0x8, addend: 0x0, symName: __ZN14SpaceSectorBSTC2Ev, symObjAddr: 0x0, symBinAddr: 0x100004DF8, symSize: 0x34 }
  - { offsetInCU: 0x110BA, offset: 0x21E60, size: 0x8, addend: 0x0, symName: __ZNSt3__113unordered_mapINS_12basic_stringIcNS_11char_traitsIcEENS_9allocatorIcEEEENS_6vectorIiNS4_IiEEEENS_4hashIS6_EENS_8equal_toIS6_EENS4_INS_4pairIKS6_S9_EEEEEC1B7v160006Ev, symObjAddr: 0x34, symBinAddr: 0x100004E2C, symSize: 0x2C }
  - { offsetInCU: 0x110E2, offset: 0x21E88, size: 0x8, addend: 0x0, symName: __ZN14SpaceSectorBSTC1Ev, symObjAddr: 0x60, symBinAddr: 0x100004E58, symSize: 0x2C }
  - { offsetInCU: 0x1110D, offset: 0x21EB3, size: 0x8, addend: 0x0, symName: __ZN14SpaceSectorBSTD2Ev, symObjAddr: 0x8C, symBinAddr: 0x100004E84, symSize: 0x44 }
  - { offsetInCU: 0x11138, offset: 0x21EDE, size: 0x8, addend: 0x0, symName: __ZN14SpaceSectorBST10deleteTreeEP6Sector, symObjAddr: 0xD0, symBinAddr: 0x100004EC8, symSize: 0x8C }
  - { offsetInCU: 0x1116D, offset: 0x21F13, size: 0x8, addend: 0x0, symName: __ZNSt3__113unordered_mapINS_12basic_stringIcNS_11char_traitsIcEENS_9allocatorIcEEEENS_6vectorIiNS4_IiEEEENS_4hashIS6_EENS_8equal_toIS6_EENS4_INS_4pairIKS6_S9_EEEEED1B7v160006Ev, symObjAddr: 0x168, symBinAddr: 0x100004F54, symSize: 0x2C }
  - { offsetInCU: 0x11195, offset: 0x21F3B, size: 0x8, addend: 0x0, symName: __ZN14SpaceSectorBSTD1Ev, symObjAddr: 0x194, symBinAddr: 0x100004F80, symSize: 0x2C }
  - { offsetInCU: 0x111C0, offset: 0x21F66, size: 0x8, addend: 0x0, symName: __ZN14SpaceSectorBST19readSectorsFromFileERKNSt3__112basic_stringIcNS0_11char_traitsIcEENS0_9allocatorIcEEEE, symObjAddr: 0x1C0, symBinAddr: 0x100004FAC, symSize: 0x238 }
  - { offsetInCU: 0x11388, offset: 0x2212E, size: 0x8, addend: 0x0, symName: __ZNSt3__114basic_ifstreamIcNS_11char_traitsIcEEEC1ERKNS_12basic_stringIcS2_NS_9allocatorIcEEEEj, symObjAddr: 0x3F8, symBinAddr: 0x1000051E4, symSize: 0x16C }
  - { offsetInCU: 0x113D1, offset: 0x22177, size: 0x8, addend: 0x0, symName: __ZNKSt3__114basic_ifstreamIcNS_11char_traitsIcEEE7is_openEv, symObjAddr: 0x564, symBinAddr: 0x100005350, symSize: 0x2C }
  - { offsetInCU: 0x113F7, offset: 0x2219D, size: 0x8, addend: 0x0, symName: __ZNKSt3__19basic_iosIcNS_11char_traitsIcEEEcvbB7v160006Ev, symObjAddr: 0x660, symBinAddr: 0x100005420, symSize: 0x2C }
  - { offsetInCU: 0x1146B, offset: 0x22211, size: 0x8, addend: 0x0, symName: __ZNSt3__119basic_istringstreamIcNS_11char_traitsIcEENS_9allocatorIcEEEC1B7v160006ERKNS_12basic_stringIcS2_S4_EEj, symObjAddr: 0x68C, symBinAddr: 0x10000544C, symSize: 0xFC }
  - { offsetInCU: 0x114B1, offset: 0x22257, size: 0x8, addend: 0x0, symName: __ZN14SpaceSectorBST25insertSectorByCoordinatesEiii, symObjAddr: 0x914, symBinAddr: 0x1000056D4, symSize: 0x4C }
  - { offsetInCU: 0x11507, offset: 0x222AD, size: 0x8, addend: 0x0, symName: __ZNSt3__119basic_istringstreamIcNS_11char_traitsIcEENS_9allocatorIcEEED1Ev, symObjAddr: 0x960, symBinAddr: 0x100005720, symSize: 0x40 }
  - { offsetInCU: 0x11538, offset: 0x222DE, size: 0x8, addend: 0x0, symName: __ZNSt3__114basic_ifstreamIcNS_11char_traitsIcEEED1Ev, symObjAddr: 0x9A0, symBinAddr: 0x100005760, symSize: 0x40 }
  - { offsetInCU: 0x11564, offset: 0x2230A, size: 0x8, addend: 0x0, symName: __ZN14SpaceSectorBST12insertSectorEP6Sectoriii, symObjAddr: 0x9E0, symBinAddr: 0x1000057A0, symSize: 0x288 }
  - { offsetInCU: 0x115EB, offset: 0x22391, size: 0x8, addend: 0x0, symName: __ZNSt3__113unordered_mapINS_12basic_stringIcNS_11char_traitsIcEENS_9allocatorIcEEEENS_6vectorIiNS4_IiEEEENS_4hashIS6_EENS_8equal_toIS6_EENS4_INS_4pairIKS6_S9_EEEEE6insertB7v160006EOSG_, symObjAddr: 0xC68, symBinAddr: 0x100005A28, symSize: 0x4C }
  - { offsetInCU: 0x1161E, offset: 0x223C4, size: 0x8, addend: 0x0, symName: __ZNSt3__16vectorIiNS_9allocatorIiEEEC1B7v160006ESt16initializer_listIiE, symObjAddr: 0xCB4, symBinAddr: 0x100005A74, symSize: 0x3C }
  - { offsetInCU: 0x1165D, offset: 0x22403, size: 0x8, addend: 0x0, symName: __ZNSt3__14pairIKNS_12basic_stringIcNS_11char_traitsIcEENS_9allocatorIcEEEENS_6vectorIiNS4_IiEEEEEC1B7v160006IRS6_SA_LPv0EEEOT_OT0_, symObjAddr: 0xCF0, symBinAddr: 0x100005AB0, symSize: 0x3C }
  - { offsetInCU: 0x116BA, offset: 0x22460, size: 0x8, addend: 0x0, symName: __ZNSt3__14pairIKNS_12basic_stringIcNS_11char_traitsIcEENS_9allocatorIcEEEENS_6vectorIiNS4_IiEEEEED1Ev, symObjAddr: 0xD2C, symBinAddr: 0x100005AEC, symSize: 0x2C }
  - { offsetInCU: 0x116E5, offset: 0x2248B, size: 0x8, addend: 0x0, symName: __ZNSt3__16vectorIiNS_9allocatorIiEEED1B7v160006Ev, symObjAddr: 0xD58, symBinAddr: 0x100005B18, symSize: 0x2C }
  - { offsetInCU: 0x1170D, offset: 0x224B3, size: 0x8, addend: 0x0, symName: __ZN14SpaceSectorBST18compareCoordinatesEiiiPK6Sector, symObjAddr: 0xD84, symBinAddr: 0x100005B44, symSize: 0x11C }
  - { offsetInCU: 0x1176C, offset: 0x22512, size: 0x8, addend: 0x0, symName: __ZN14SpaceSectorBST12deleteSectorERKNSt3__112basic_stringIcNS0_11char_traitsIcEENS0_9allocatorIcEEEE, symObjAddr: 0xEA0, symBinAddr: 0x100005C60, symSize: 0x3C }
  - { offsetInCU: 0x117A1, offset: 0x22547, size: 0x8, addend: 0x0, symName: __ZN14SpaceSectorBST21deleteSectorRecursiveEP6SectorRKNSt3__112basic_stringIcNS2_11char_traitsIcEENS2_9allocatorIcEEEE, symObjAddr: 0xEDC, symBinAddr: 0x100005C9C, symSize: 0x51C }
  - { offsetInCU: 0x1190A, offset: 0x226B0, size: 0x8, addend: 0x0, symName: __ZNSt3__113unordered_mapINS_12basic_stringIcNS_11char_traitsIcEENS_9allocatorIcEEEENS_6vectorIiNS4_IiEEEENS_4hashIS6_EENS_8equal_toIS6_EENS4_INS_4pairIKS6_S9_EEEEE5beginB7v160006Ev, symObjAddr: 0x13F8, symBinAddr: 0x1000061B8, symSize: 0x38 }
  - { offsetInCU: 0x1192E, offset: 0x226D4, size: 0x8, addend: 0x0, symName: __ZNSt3__113unordered_mapINS_12basic_stringIcNS_11char_traitsIcEENS_9allocatorIcEEEENS_6vectorIiNS4_IiEEEENS_4hashIS6_EENS_8equal_toIS6_EENS4_INS_4pairIKS6_S9_EEEEE3endB7v160006Ev, symObjAddr: 0x1430, symBinAddr: 0x1000061F0, symSize: 0x38 }
  - { offsetInCU: 0x11952, offset: 0x226F8, size: 0x8, addend: 0x0, symName: __ZNKSt3__119__hash_map_iteratorINS_15__hash_iteratorIPNS_11__hash_nodeINS_17__hash_value_typeINS_12basic_stringIcNS_11char_traitsIcEENS_9allocatorIcEEEENS_6vectorIiNS7_IiEEEEEEPvEEEEEdeB7v160006Ev, symObjAddr: 0x1498, symBinAddr: 0x100006258, symSize: 0x28 }
  - { offsetInCU: 0x11976, offset: 0x2271C, size: 0x8, addend: 0x0, symName: __ZNSt3__119__hash_map_iteratorINS_15__hash_iteratorIPNS_11__hash_nodeINS_17__hash_value_typeINS_12basic_stringIcNS_11char_traitsIcEENS_9allocatorIcEEEENS_6vectorIiNS7_IiEEEEEEPvEEEEEppB7v160006Ev, symObjAddr: 0x14C0, symBinAddr: 0x100006280, symSize: 0x2C }
  - { offsetInCU: 0x1199A, offset: 0x22740, size: 0x8, addend: 0x0, symName: __ZNKSt3__113unordered_mapINS_12basic_stringIcNS_11char_traitsIcEENS_9allocatorIcEEEENS_6vectorIiNS4_IiEEEENS_4hashIS6_EENS_8equal_toIS6_EENS4_INS_4pairIKS6_S9_EEEEE5countB7v160006ERSF_, symObjAddr: 0x14EC, symBinAddr: 0x1000062AC, symSize: 0x2C }
  - { offsetInCU: 0x119CD, offset: 0x22773, size: 0x8, addend: 0x0, symName: __ZNSt3__113unordered_mapINS_12basic_stringIcNS_11char_traitsIcEENS_9allocatorIcEEEENS_6vectorIiNS4_IiEEEENS_4hashIS6_EENS_8equal_toIS6_EENS4_INS_4pairIKS6_S9_EEEEEixERSF_, symObjAddr: 0x1518, symBinAddr: 0x1000062D8, symSize: 0x80 }
  - { offsetInCU: 0x11A02, offset: 0x227A8, size: 0x8, addend: 0x0, symName: __ZNSt3__16vectorIiNS_9allocatorIiEEEC1ERKS3_, symObjAddr: 0x1598, symBinAddr: 0x100006358, symSize: 0x34 }
  - { offsetInCU: 0x11A3C, offset: 0x227E2, size: 0x8, addend: 0x0, symName: __ZNSt3__16vectorIiNS_9allocatorIiEEEixB7v160006Em, symObjAddr: 0x15CC, symBinAddr: 0x10000638C, symSize: 0x24 }
  - { offsetInCU: 0x11A72, offset: 0x22818, size: 0x8, addend: 0x0, symName: __ZNSt3__113unordered_mapINS_12basic_stringIcNS_11char_traitsIcEENS_9allocatorIcEEEENS_6vectorIiNS4_IiEEEENS_4hashIS6_EENS_8equal_toIS6_EENS4_INS_4pairIKS6_S9_EEEEE5eraseB7v160006ERSF_, symObjAddr: 0x15F0, symBinAddr: 0x1000063B0, symSize: 0x2C }
  - { offsetInCU: 0x11AA5, offset: 0x2284B, size: 0x8, addend: 0x0, symName: __ZN14SpaceSectorBST13findMinSectorEP6Sector, symObjAddr: 0x161C, symBinAddr: 0x1000063DC, symSize: 0x44 }
  - { offsetInCU: 0x11ADA, offset: 0x22880, size: 0x8, addend: 0x0, symName: __ZN6SectorC1ERKS_, symObjAddr: 0x1660, symBinAddr: 0x100006420, symSize: 0x34 }
  - { offsetInCU: 0x11B0E, offset: 0x228B4, size: 0x8, addend: 0x0, symName: __ZN14SpaceSectorBST21displaySectorsInOrderEv, symObjAddr: 0x1694, symBinAddr: 0x100006454, symSize: 0x64 }
  - { offsetInCU: 0x11B35, offset: 0x228DB, size: 0x8, addend: 0x0, symName: __ZN14SpaceSectorBST15traverseInorderEP6Sector, symObjAddr: 0x177C, symBinAddr: 0x1000064B8, symSize: 0x80 }
  - { offsetInCU: 0x11B6A, offset: 0x22910, size: 0x8, addend: 0x0, symName: __ZN14SpaceSectorBST22displaySectorsPreOrderEv, symObjAddr: 0x1848, symBinAddr: 0x100006584, symSize: 0x64 }
  - { offsetInCU: 0x11B91, offset: 0x22937, size: 0x8, addend: 0x0, symName: __ZN14SpaceSectorBST16traversePreorderEP6Sector, symObjAddr: 0x18AC, symBinAddr: 0x1000065E8, symSize: 0x80 }
  - { offsetInCU: 0x11BC6, offset: 0x2296C, size: 0x8, addend: 0x0, symName: __ZN14SpaceSectorBST23displaySectorsPostOrderEv, symObjAddr: 0x192C, symBinAddr: 0x100006668, symSize: 0x64 }
  - { offsetInCU: 0x11BED, offset: 0x22993, size: 0x8, addend: 0x0, symName: __ZN14SpaceSectorBST17traversePostorderEP6Sector, symObjAddr: 0x1990, symBinAddr: 0x1000066CC, symSize: 0x80 }
  - { offsetInCU: 0x11C22, offset: 0x229C8, size: 0x8, addend: 0x0, symName: __ZN14SpaceSectorBST14getStellarPathERKNSt3__112basic_stringIcNS0_11char_traitsIcEENS0_9allocatorIcEEEE, symObjAddr: 0x1A10, symBinAddr: 0x10000674C, symSize: 0x244 }
  - { offsetInCU: 0x11CC4, offset: 0x22A6A, size: 0x8, addend: 0x0, symName: __ZNSt3__16vectorIP6SectorNS_9allocatorIS2_EEEC1B7v160006Ev, symObjAddr: 0x1C54, symBinAddr: 0x100006990, symSize: 0x2C }
  - { offsetInCU: 0x11CEC, offset: 0x22A92, size: 0x8, addend: 0x0, symName: __ZNSt3__16vectorIP6SectorNS_9allocatorIS2_EEE9push_backB7v160006ERKS2_, symObjAddr: 0x1C80, symBinAddr: 0x1000069BC, symSize: 0x6C }
  - { offsetInCU: 0x11D21, offset: 0x22AC7, size: 0x8, addend: 0x0, symName: __ZN14SpaceSectorBST16printStellarPathERKNSt3__16vectorIP6SectorNS0_9allocatorIS3_EEEE, symObjAddr: 0x1D4C, symBinAddr: 0x100006A5C, symSize: 0x108 }
  - { offsetInCU: 0x11D73, offset: 0x22B19, size: 0x8, addend: 0x0, symName: __ZNKSt3__16vectorIP6SectorNS_9allocatorIS2_EEE5emptyB7v160006Ev, symObjAddr: 0x1E54, symBinAddr: 0x100006B64, symSize: 0x28 }
  - { offsetInCU: 0x11D97, offset: 0x22B3D, size: 0x8, addend: 0x0, symName: __ZNKSt3__16vectorIP6SectorNS_9allocatorIS2_EEEixB7v160006Em, symObjAddr: 0x1EA4, symBinAddr: 0x100006B8C, symSize: 0x24 }
  - { offsetInCU: 0x11DCD, offset: 0x22B73, size: 0x8, addend: 0x0, symName: __ZNKSt3__16vectorIP6SectorNS_9allocatorIS2_EEE4backB7v160006Ev, symObjAddr: 0x1EC8, symBinAddr: 0x100006BB0, symSize: 0x1C }
  - { offsetInCU: 0x11DF1, offset: 0x22B97, size: 0x8, addend: 0x0, symName: __ZN14SpaceSectorBST13print_to_fileERKNSt3__112basic_stringIcNS0_11char_traitsIcEENS0_9allocatorIcEEEES8_, symObjAddr: 0x1EE4, symBinAddr: 0x100006BCC, symSize: 0x118 }
  - { offsetInCU: 0x11E4C, offset: 0x22BF2, size: 0x8, addend: 0x0, symName: __ZNSt3__114basic_ofstreamIcNS_11char_traitsIcEEEC1ERKNS_12basic_stringIcS2_NS_9allocatorIcEEEEj, symObjAddr: 0x1FFC, symBinAddr: 0x100006CE4, symSize: 0x16C }
  - { offsetInCU: 0x11E95, offset: 0x22C3B, size: 0x8, addend: 0x0, symName: __ZNKSt3__114basic_ofstreamIcNS_11char_traitsIcEEE7is_openEv, symObjAddr: 0x2168, symBinAddr: 0x100006E50, symSize: 0x2C }
  - { offsetInCU: 0x11EC0, offset: 0x22C66, size: 0x8, addend: 0x0, symName: __ZNSt3__114basic_ofstreamIcNS_11char_traitsIcEEED1Ev, symObjAddr: 0x2194, symBinAddr: 0x100006E7C, symSize: 0x40 }
  - { offsetInCU: 0x11EEC, offset: 0x22C92, size: 0x8, addend: 0x0, symName: __ZNSt3__119basic_istringstreamIcNS_11char_traitsIcEENS_9allocatorIcEEED2Ev, symObjAddr: 0x21D4, symBinAddr: 0x100006EBC, symSize: 0x64 }
  - { offsetInCU: 0x11F24, offset: 0x22CCA, size: 0x8, addend: 0x0, symName: __ZTv0_n24_NSt3__119basic_istringstreamIcNS_11char_traitsIcEENS_9allocatorIcEEED1Ev, symObjAddr: 0x2238, symBinAddr: 0x100006F20, symSize: 0x28 }
  - { offsetInCU: 0x11F40, offset: 0x22CE6, size: 0x8, addend: 0x0, symName: __ZNSt3__115basic_stringbufIcNS_11char_traitsIcEENS_9allocatorIcEEED1Ev, symObjAddr: 0x2260, symBinAddr: 0x100006F48, symSize: 0x2C }
  - { offsetInCU: 0x11F6C, offset: 0x22D12, size: 0x8, addend: 0x0, symName: __ZNSt3__115basic_stringbufIcNS_11char_traitsIcEENS_9allocatorIcEEED2Ev, symObjAddr: 0x228C, symBinAddr: 0x100006F74, symSize: 0x48 }
  - { offsetInCU: 0x11F98, offset: 0x22D3E, size: 0x8, addend: 0x0, symName: __ZNSt3__114basic_ifstreamIcNS_11char_traitsIcEEED2Ev, symObjAddr: 0x22D4, symBinAddr: 0x100006FBC, symSize: 0x64 }
  - { offsetInCU: 0x11FD0, offset: 0x22D76, size: 0x8, addend: 0x0, symName: __ZTv0_n24_NSt3__114basic_ifstreamIcNS_11char_traitsIcEEED1Ev, symObjAddr: 0x2338, symBinAddr: 0x100007020, symSize: 0x28 }
  - { offsetInCU: 0x11FE7, offset: 0x22D8D, size: 0x8, addend: 0x0, symName: __ZNSt3__14pairIKNS_12basic_stringIcNS_11char_traitsIcEENS_9allocatorIcEEEENS_6vectorIiNS4_IiEEEEED2Ev, symObjAddr: 0x2360, symBinAddr: 0x100007048, symSize: 0x38 }
  - { offsetInCU: 0x12012, offset: 0x22DB8, size: 0x8, addend: 0x0, symName: __ZN6SectorC2ERKS_, symObjAddr: 0x2398, symBinAddr: 0x100007080, symSize: 0x64 }
  - { offsetInCU: 0x12046, offset: 0x22DEC, size: 0x8, addend: 0x0, symName: __ZNSt3__114basic_ofstreamIcNS_11char_traitsIcEEED2Ev, symObjAddr: 0x23FC, symBinAddr: 0x1000070E4, symSize: 0x64 }
  - { offsetInCU: 0x1207E, offset: 0x22E24, size: 0x8, addend: 0x0, symName: __ZTv0_n24_NSt3__114basic_ofstreamIcNS_11char_traitsIcEEED1Ev, symObjAddr: 0x2460, symBinAddr: 0x100007148, symSize: 0x28 }
  - { offsetInCU: 0x1209A, offset: 0x22E40, size: 0x8, addend: 0x0, symName: __ZNSt3__113unordered_mapINS_12basic_stringIcNS_11char_traitsIcEENS_9allocatorIcEEEENS_6vectorIiNS4_IiEEEENS_4hashIS6_EENS_8equal_toIS6_EENS4_INS_4pairIKS6_S9_EEEEEC2B7v160006Ev, symObjAddr: 0x265C, symBinAddr: 0x100007170, symSize: 0x3C }
  - { offsetInCU: 0x120C2, offset: 0x22E68, size: 0x8, addend: 0x0, symName: __ZNSt3__112__hash_tableINS_17__hash_value_typeINS_12basic_stringIcNS_11char_traitsIcEENS_9allocatorIcEEEENS_6vectorIiNS5_IiEEEEEENS_22__unordered_map_hasherIS7_SB_NS_4hashIS7_EENS_8equal_toIS7_EELb1EEENS_21__unordered_map_equalIS7_SB_SG_SE_Lb1EEENS5_ISB_EEEC1Ev, symObjAddr: 0x2698, symBinAddr: 0x1000071AC, symSize: 0x2C }
  - { offsetInCU: 0x120ED, offset: 0x22E93, size: 0x8, addend: 0x0, symName: __ZNSt3__112__hash_tableINS_17__hash_value_typeINS_12basic_stringIcNS_11char_traitsIcEENS_9allocatorIcEEEENS_6vectorIiNS5_IiEEEEEENS_22__unordered_map_hasherIS7_SB_NS_4hashIS7_EENS_8equal_toIS7_EELb1EEENS_21__unordered_map_equalIS7_SB_SG_SE_Lb1EEENS5_ISB_EEEC2Ev, symObjAddr: 0x26D4, symBinAddr: 0x1000071E8, symSize: 0x7C }
  - { offsetInCU: 0x12118, offset: 0x22EBE, size: 0x8, addend: 0x0, symName: __ZNSt3__110unique_ptrIA_PNS_16__hash_node_baseIPNS_11__hash_nodeINS_17__hash_value_typeINS_12basic_stringIcNS_11char_traitsIcEENS_9allocatorIcEEEENS_6vectorIiNS7_IiEEEEEEPvEEEENS_25__bucket_list_deallocatorINS7_ISI_EEEEEC1B7v160006ILb1EvEEv, symObjAddr: 0x2750, symBinAddr: 0x100007264, symSize: 0x2C }
  - { offsetInCU: 0x1214B, offset: 0x22EF1, size: 0x8, addend: 0x0, symName: __ZNSt3__117__compressed_pairINS_16__hash_node_baseIPNS_11__hash_nodeINS_17__hash_value_typeINS_12basic_stringIcNS_11char_traitsIcEENS_9allocatorIcEEEENS_6vectorIiNS7_IiEEEEEEPvEEEENS7_ISF_EEEC1B7v160006ILb1EvEEv, symObjAddr: 0x277C, symBinAddr: 0x100007290, symSize: 0x2C }
  - { offsetInCU: 0x12183, offset: 0x22F29, size: 0x8, addend: 0x0, symName: __ZNSt3__117__compressed_pairImNS_22__unordered_map_hasherINS_12basic_stringIcNS_11char_traitsIcEENS_9allocatorIcEEEENS_17__hash_value_typeIS7_NS_6vectorIiNS5_IiEEEEEENS_4hashIS7_EENS_8equal_toIS7_EELb1EEEEC1B7v160006IiNS_18__default_init_tagEEEOT_OT0_, symObjAddr: 0x27A8, symBinAddr: 0x1000072BC, symSize: 0x3C }
  - { offsetInCU: 0x121DE, offset: 0x22F84, size: 0x8, addend: 0x0, symName: __ZNSt3__117__compressed_pairIfNS_21__unordered_map_equalINS_12basic_stringIcNS_11char_traitsIcEENS_9allocatorIcEEEENS_17__hash_value_typeIS7_NS_6vectorIiNS5_IiEEEEEENS_8equal_toIS7_EENS_4hashIS7_EELb1EEEEC1B7v160006IfNS_18__default_init_tagEEEOT_OT0_, symObjAddr: 0x27E4, symBinAddr: 0x1000072F8, symSize: 0x3C }
  - { offsetInCU: 0x12234, offset: 0x22FDA, size: 0x8, addend: 0x0, symName: __ZNSt3__110unique_ptrIA_PNS_16__hash_node_baseIPNS_11__hash_nodeINS_17__hash_value_typeINS_12basic_stringIcNS_11char_traitsIcEENS_9allocatorIcEEEENS_6vectorIiNS7_IiEEEEEEPvEEEENS_25__bucket_list_deallocatorINS7_ISI_EEEEEC2B7v160006ILb1EvEEv, symObjAddr: 0x2820, symBinAddr: 0x100007334, symSize: 0x3C }
  - { offsetInCU: 0x1226C, offset: 0x23012, size: 0x8, addend: 0x0, symName: __ZNSt3__117__compressed_pairIPPNS_16__hash_node_baseIPNS_11__hash_nodeINS_17__hash_value_typeINS_12basic_stringIcNS_11char_traitsIcEENS_9allocatorIcEEEENS_6vectorIiNS7_IiEEEEEEPvEEEENS_25__bucket_list_deallocatorINS7_ISI_EEEEEC1B7v160006INS_16__value_init_tagESP_EEOT_OT0_, symObjAddr: 0x285C, symBinAddr: 0x100007370, symSize: 0x3C }
  - { offsetInCU: 0x122C2, offset: 0x23068, size: 0x8, addend: 0x0, symName: __ZNSt3__117__compressed_pairIPPNS_16__hash_node_baseIPNS_11__hash_nodeINS_17__hash_value_typeINS_12basic_stringIcNS_11char_traitsIcEENS_9allocatorIcEEEENS_6vectorIiNS7_IiEEEEEEPvEEEENS_25__bucket_list_deallocatorINS7_ISI_EEEEEC2B7v160006INS_16__value_init_tagESP_EEOT_OT0_, symObjAddr: 0x2898, symBinAddr: 0x1000073AC, symSize: 0x40 }
  - { offsetInCU: 0x12318, offset: 0x230BE, size: 0x8, addend: 0x0, symName: __ZNSt3__122__compressed_pair_elemIPPNS_16__hash_node_baseIPNS_11__hash_nodeINS_17__hash_value_typeINS_12basic_stringIcNS_11char_traitsIcEENS_9allocatorIcEEEENS_6vectorIiNS7_IiEEEEEEPvEEEELi0ELb0EEC2B7v160006ENS_16__value_init_tagE, symObjAddr: 0x28D8, symBinAddr: 0x1000073EC, symSize: 0x18 }
  - { offsetInCU: 0x1234A, offset: 0x230F0, size: 0x8, addend: 0x0, symName: __ZNSt3__122__compressed_pair_elemINS_25__bucket_list_deallocatorINS_9allocatorIPNS_16__hash_node_baseIPNS_11__hash_nodeINS_17__hash_value_typeINS_12basic_stringIcNS_11char_traitsIcEENS2_IcEEEENS_6vectorIiNS2_IiEEEEEEPvEEEEEEEELi1ELb0EEC2B7v160006ENS_16__value_init_tagE, symObjAddr: 0x28F0, symBinAddr: 0x100007404, symSize: 0x2C }
  - { offsetInCU: 0x1237C, offset: 0x23122, size: 0x8, addend: 0x0, symName: __ZNSt3__125__bucket_list_deallocatorINS_9allocatorIPNS_16__hash_node_baseIPNS_11__hash_nodeINS_17__hash_value_typeINS_12basic_stringIcNS_11char_traitsIcEENS1_IcEEEENS_6vectorIiNS1_IiEEEEEEPvEEEEEEEC1B7v160006Ev, symObjAddr: 0x291C, symBinAddr: 0x100007430, symSize: 0x2C }
  - { offsetInCU: 0x123A4, offset: 0x2314A, size: 0x8, addend: 0x0, symName: __ZNSt3__125__bucket_list_deallocatorINS_9allocatorIPNS_16__hash_node_baseIPNS_11__hash_nodeINS_17__hash_value_typeINS_12basic_stringIcNS_11char_traitsIcEENS1_IcEEEENS_6vectorIiNS1_IiEEEEEEPvEEEEEEEC2B7v160006Ev, symObjAddr: 0x2948, symBinAddr: 0x10000745C, symSize: 0x40 }
  - { offsetInCU: 0x123CC, offset: 0x23172, size: 0x8, addend: 0x0, symName: __ZNSt3__117__compressed_pairImNS_9allocatorIPNS_16__hash_node_baseIPNS_11__hash_nodeINS_17__hash_value_typeINS_12basic_stringIcNS_11char_traitsIcEENS1_IcEEEENS_6vectorIiNS1_IiEEEEEEPvEEEEEEEC1B7v160006IiNS_18__default_init_tagEEEOT_OT0_, symObjAddr: 0x2988, symBinAddr: 0x10000749C, symSize: 0x3C }
  - { offsetInCU: 0x12422, offset: 0x231C8, size: 0x8, addend: 0x0, symName: __ZNSt3__117__compressed_pairImNS_9allocatorIPNS_16__hash_node_baseIPNS_11__hash_nodeINS_17__hash_value_typeINS_12basic_stringIcNS_11char_traitsIcEENS1_IcEEEENS_6vectorIiNS1_IiEEEEEEPvEEEEEEEC2B7v160006IiNS_18__default_init_tagEEEOT_OT0_, symObjAddr: 0x29C4, symBinAddr: 0x1000074D8, symSize: 0x40 }
  - { offsetInCU: 0x12478, offset: 0x2321E, size: 0x8, addend: 0x0, symName: __ZNSt3__122__compressed_pair_elemImLi0ELb0EEC2B7v160006IivEEOT_, symObjAddr: 0x2A04, symBinAddr: 0x100007518, symSize: 0x24 }
  - { offsetInCU: 0x124B8, offset: 0x2325E, size: 0x8, addend: 0x0, symName: __ZNSt3__122__compressed_pair_elemINS_9allocatorIPNS_16__hash_node_baseIPNS_11__hash_nodeINS_17__hash_value_typeINS_12basic_stringIcNS_11char_traitsIcEENS1_IcEEEENS_6vectorIiNS1_IiEEEEEEPvEEEEEELi1ELb1EEC2B7v160006ENS_18__default_init_tagE, symObjAddr: 0x2A28, symBinAddr: 0x10000753C, symSize: 0x2C }
  - { offsetInCU: 0x124EA, offset: 0x23290, size: 0x8, addend: 0x0, symName: __ZNSt3__19allocatorIPNS_16__hash_node_baseIPNS_11__hash_nodeINS_17__hash_value_typeINS_12basic_stringIcNS_11char_traitsIcEENS0_IcEEEENS_6vectorIiNS0_IiEEEEEEPvEEEEEC2B7v160006Ev, symObjAddr: 0x2A54, symBinAddr: 0x100007568, symSize: 0x2C }
  - { offsetInCU: 0x12512, offset: 0x232B8, size: 0x8, addend: 0x0, symName: __ZNSt3__116__non_trivial_ifILb1ENS_9allocatorIPNS_16__hash_node_baseIPNS_11__hash_nodeINS_17__hash_value_typeINS_12basic_stringIcNS_11char_traitsIcEENS1_IcEEEENS_6vectorIiNS1_IiEEEEEEPvEEEEEEEC2B7v160006Ev, symObjAddr: 0x2A80, symBinAddr: 0x100007594, symSize: 0x14 }
  - { offsetInCU: 0x1253A, offset: 0x232E0, size: 0x8, addend: 0x0, symName: __ZNSt3__117__compressed_pairINS_16__hash_node_baseIPNS_11__hash_nodeINS_17__hash_value_typeINS_12basic_stringIcNS_11char_traitsIcEENS_9allocatorIcEEEENS_6vectorIiNS7_IiEEEEEEPvEEEENS7_ISF_EEEC2B7v160006ILb1EvEEv, symObjAddr: 0x2A94, symBinAddr: 0x1000075A8, symSize: 0x34 }
  - { offsetInCU: 0x1256D, offset: 0x23313, size: 0x8, addend: 0x0, symName: __ZNSt3__122__compressed_pair_elemINS_16__hash_node_baseIPNS_11__hash_nodeINS_17__hash_value_typeINS_12basic_stringIcNS_11char_traitsIcEENS_9allocatorIcEEEENS_6vectorIiNS7_IiEEEEEEPvEEEELi0ELb0EEC2B7v160006ENS_16__value_init_tagE, symObjAddr: 0x2AC8, symBinAddr: 0x1000075DC, symSize: 0x2C }
  - { offsetInCU: 0x1259F, offset: 0x23345, size: 0x8, addend: 0x0, symName: __ZNSt3__122__compressed_pair_elemINS_9allocatorINS_11__hash_nodeINS_17__hash_value_typeINS_12basic_stringIcNS_11char_traitsIcEENS1_IcEEEENS_6vectorIiNS1_IiEEEEEEPvEEEELi1ELb1EEC2B7v160006ENS_16__value_init_tagE, symObjAddr: 0x2AF4, symBinAddr: 0x100007608, symSize: 0x2C }
  - { offsetInCU: 0x125D1, offset: 0x23377, size: 0x8, addend: 0x0, symName: __ZNSt3__116__hash_node_baseIPNS_11__hash_nodeINS_17__hash_value_typeINS_12basic_stringIcNS_11char_traitsIcEENS_9allocatorIcEEEENS_6vectorIiNS6_IiEEEEEEPvEEEC1B7v160006Ev, symObjAddr: 0x2B20, symBinAddr: 0x100007634, symSize: 0x2C }
  - { offsetInCU: 0x125F9, offset: 0x2339F, size: 0x8, addend: 0x0, symName: __ZNSt3__116__hash_node_baseIPNS_11__hash_nodeINS_17__hash_value_typeINS_12basic_stringIcNS_11char_traitsIcEENS_9allocatorIcEEEENS_6vectorIiNS6_IiEEEEEEPvEEEC2B7v160006Ev, symObjAddr: 0x2B4C, symBinAddr: 0x100007660, symSize: 0x18 }
  - { offsetInCU: 0x12621, offset: 0x233C7, size: 0x8, addend: 0x0, symName: __ZNSt3__19allocatorINS_11__hash_nodeINS_17__hash_value_typeINS_12basic_stringIcNS_11char_traitsIcEENS0_IcEEEENS_6vectorIiNS0_IiEEEEEEPvEEEC2B7v160006Ev, symObjAddr: 0x2B64, symBinAddr: 0x100007678, symSize: 0x2C }
  - { offsetInCU: 0x12649, offset: 0x233EF, size: 0x8, addend: 0x0, symName: __ZNSt3__116__non_trivial_ifILb1ENS_9allocatorINS_11__hash_nodeINS_17__hash_value_typeINS_12basic_stringIcNS_11char_traitsIcEENS1_IcEEEENS_6vectorIiNS1_IiEEEEEEPvEEEEEC2B7v160006Ev, symObjAddr: 0x2B90, symBinAddr: 0x1000076A4, symSize: 0x14 }
  - { offsetInCU: 0x12671, offset: 0x23417, size: 0x8, addend: 0x0, symName: __ZNSt3__117__compressed_pairImNS_22__unordered_map_hasherINS_12basic_stringIcNS_11char_traitsIcEENS_9allocatorIcEEEENS_17__hash_value_typeIS7_NS_6vectorIiNS5_IiEEEEEENS_4hashIS7_EENS_8equal_toIS7_EELb1EEEEC2B7v160006IiNS_18__default_init_tagEEEOT_OT0_, symObjAddr: 0x2BA4, symBinAddr: 0x1000076B8, symSize: 0x40 }
  - { offsetInCU: 0x126C7, offset: 0x2346D, size: 0x8, addend: 0x0, symName: __ZNSt3__122__compressed_pair_elemINS_22__unordered_map_hasherINS_12basic_stringIcNS_11char_traitsIcEENS_9allocatorIcEEEENS_17__hash_value_typeIS7_NS_6vectorIiNS5_IiEEEEEENS_4hashIS7_EENS_8equal_toIS7_EELb1EEELi1ELb1EEC2B7v160006ENS_18__default_init_tagE, symObjAddr: 0x2BE4, symBinAddr: 0x1000076F8, symSize: 0x2C }
  - { offsetInCU: 0x126F9, offset: 0x2349F, size: 0x8, addend: 0x0, symName: __ZNSt3__122__unordered_map_hasherINS_12basic_stringIcNS_11char_traitsIcEENS_9allocatorIcEEEENS_17__hash_value_typeIS6_NS_6vectorIiNS4_IiEEEEEENS_4hashIS6_EENS_8equal_toIS6_EELb1EEC2B7v160006Ev, symObjAddr: 0x2C10, symBinAddr: 0x100007724, symSize: 0x14 }
  - { offsetInCU: 0x12721, offset: 0x234C7, size: 0x8, addend: 0x0, symName: __ZNSt3__117__compressed_pairIfNS_21__unordered_map_equalINS_12basic_stringIcNS_11char_traitsIcEENS_9allocatorIcEEEENS_17__hash_value_typeIS7_NS_6vectorIiNS5_IiEEEEEENS_8equal_toIS7_EENS_4hashIS7_EELb1EEEEC2B7v160006IfNS_18__default_init_tagEEEOT_OT0_, symObjAddr: 0x2C24, symBinAddr: 0x100007738, symSize: 0x40 }
  - { offsetInCU: 0x12777, offset: 0x2351D, size: 0x8, addend: 0x0, symName: __ZNSt3__122__compressed_pair_elemIfLi0ELb0EEC2B7v160006IfvEEOT_, symObjAddr: 0x2C64, symBinAddr: 0x100007778, symSize: 0x24 }
  - { offsetInCU: 0x127B7, offset: 0x2355D, size: 0x8, addend: 0x0, symName: __ZNSt3__122__compressed_pair_elemINS_21__unordered_map_equalINS_12basic_stringIcNS_11char_traitsIcEENS_9allocatorIcEEEENS_17__hash_value_typeIS7_NS_6vectorIiNS5_IiEEEEEENS_8equal_toIS7_EENS_4hashIS7_EELb1EEELi1ELb1EEC2B7v160006ENS_18__default_init_tagE, symObjAddr: 0x2C88, symBinAddr: 0x10000779C, symSize: 0x2C }
  - { offsetInCU: 0x127E9, offset: 0x2358F, size: 0x8, addend: 0x0, symName: __ZNSt3__121__unordered_map_equalINS_12basic_stringIcNS_11char_traitsIcEENS_9allocatorIcEEEENS_17__hash_value_typeIS6_NS_6vectorIiNS4_IiEEEEEENS_8equal_toIS6_EENS_4hashIS6_EELb1EEC2B7v160006Ev, symObjAddr: 0x2CB4, symBinAddr: 0x1000077C8, symSize: 0x14 }
  - { offsetInCU: 0x12811, offset: 0x235B7, size: 0x8, addend: 0x0, symName: __ZNSt3__113unordered_mapINS_12basic_stringIcNS_11char_traitsIcEENS_9allocatorIcEEEENS_6vectorIiNS4_IiEEEENS_4hashIS6_EENS_8equal_toIS6_EENS4_INS_4pairIKS6_S9_EEEEED2B7v160006Ev, symObjAddr: 0x2CC8, symBinAddr: 0x1000077DC, symSize: 0x2C }
  - { offsetInCU: 0x12839, offset: 0x235DF, size: 0x8, addend: 0x0, symName: __ZNSt3__112__hash_tableINS_17__hash_value_typeINS_12basic_stringIcNS_11char_traitsIcEENS_9allocatorIcEEEENS_6vectorIiNS5_IiEEEEEENS_22__unordered_map_hasherIS7_SB_NS_4hashIS7_EENS_8equal_toIS7_EELb1EEENS_21__unordered_map_equalIS7_SB_SG_SE_Lb1EEENS5_ISB_EEED1Ev, symObjAddr: 0x2CF4, symBinAddr: 0x100007808, symSize: 0x2C }
  - { offsetInCU: 0x12864, offset: 0x2360A, size: 0x8, addend: 0x0, symName: __ZNSt3__112__hash_tableINS_17__hash_value_typeINS_12basic_stringIcNS_11char_traitsIcEENS_9allocatorIcEEEENS_6vectorIiNS5_IiEEEEEENS_22__unordered_map_hasherIS7_SB_NS_4hashIS7_EENS_8equal_toIS7_EELb1EEENS_21__unordered_map_equalIS7_SB_SG_SE_Lb1EEENS5_ISB_EEED2Ev, symObjAddr: 0x2D20, symBinAddr: 0x100007834, symSize: 0x58 }
  - { offsetInCU: 0x1288F, offset: 0x23635, size: 0x8, addend: 0x0, symName: __ZNSt3__112__hash_tableINS_17__hash_value_typeINS_12basic_stringIcNS_11char_traitsIcEENS_9allocatorIcEEEENS_6vectorIiNS5_IiEEEEEENS_22__unordered_map_hasherIS7_SB_NS_4hashIS7_EENS_8equal_toIS7_EELb1EEENS_21__unordered_map_equalIS7_SB_SG_SE_Lb1EEENS5_ISB_EEE17__deallocate_nodeEPNS_16__hash_node_baseIPNS_11__hash_nodeISB_PvEEEE, symObjAddr: 0x2D78, symBinAddr: 0x10000788C, symSize: 0xA8 }
  - { offsetInCU: 0x128F8, offset: 0x2369E, size: 0x8, addend: 0x0, symName: __ZNSt3__117__compressed_pairINS_16__hash_node_baseIPNS_11__hash_nodeINS_17__hash_value_typeINS_12basic_stringIcNS_11char_traitsIcEENS_9allocatorIcEEEENS_6vectorIiNS7_IiEEEEEEPvEEEENS7_ISF_EEE5firstB7v160006Ev, symObjAddr: 0x2E20, symBinAddr: 0x100007934, symSize: 0x24 }
  - { offsetInCU: 0x1291C, offset: 0x236C2, size: 0x8, addend: 0x0, symName: __ZNSt3__110unique_ptrIA_PNS_16__hash_node_baseIPNS_11__hash_nodeINS_17__hash_value_typeINS_12basic_stringIcNS_11char_traitsIcEENS_9allocatorIcEEEENS_6vectorIiNS7_IiEEEEEEPvEEEENS_25__bucket_list_deallocatorINS7_ISI_EEEEED1B7v160006Ev, symObjAddr: 0x2E54, symBinAddr: 0x100007968, symSize: 0x2C }
  - { offsetInCU: 0x12944, offset: 0x236EA, size: 0x8, addend: 0x0, symName: __ZNSt3__112__hash_tableINS_17__hash_value_typeINS_12basic_stringIcNS_11char_traitsIcEENS_9allocatorIcEEEENS_6vectorIiNS5_IiEEEEEENS_22__unordered_map_hasherIS7_SB_NS_4hashIS7_EENS_8equal_toIS7_EELb1EEENS_21__unordered_map_equalIS7_SB_SG_SE_Lb1EEENS5_ISB_EEE12__node_allocB7v160006Ev, symObjAddr: 0x2E80, symBinAddr: 0x100007994, symSize: 0x28 }
  - { offsetInCU: 0x12968, offset: 0x2370E, size: 0x8, addend: 0x0, symName: __ZNSt3__116__hash_node_baseIPNS_11__hash_nodeINS_17__hash_value_typeINS_12basic_stringIcNS_11char_traitsIcEENS_9allocatorIcEEEENS_6vectorIiNS6_IiEEEEEEPvEEE8__upcastB7v160006Ev, symObjAddr: 0x2EA8, symBinAddr: 0x1000079BC, symSize: 0x24 }
  - { offsetInCU: 0x1298C, offset: 0x23732, size: 0x8, addend: 0x0, symName: __ZNSt3__116allocator_traitsINS_9allocatorINS_11__hash_nodeINS_17__hash_value_typeINS_12basic_stringIcNS_11char_traitsIcEENS1_IcEEEENS_6vectorIiNS1_IiEEEEEEPvEEEEE7destroyB7v160006INS_4pairIKS8_SB_EEvvEEvRSF_PT_, symObjAddr: 0x2ECC, symBinAddr: 0x1000079E0, symSize: 0x28 }
  - { offsetInCU: 0x129C5, offset: 0x2376B, size: 0x8, addend: 0x0, symName: __ZNSt3__122__hash_key_value_typesINS_17__hash_value_typeINS_12basic_stringIcNS_11char_traitsIcEENS_9allocatorIcEEEENS_6vectorIiNS5_IiEEEEEEE9__get_ptrB7v160006ERSB_, symObjAddr: 0x2EF4, symBinAddr: 0x100007A08, symSize: 0x24 }
  - { offsetInCU: 0x129E7, offset: 0x2378D, size: 0x8, addend: 0x0, symName: __ZNSt3__116allocator_traitsINS_9allocatorINS_11__hash_nodeINS_17__hash_value_typeINS_12basic_stringIcNS_11char_traitsIcEENS1_IcEEEENS_6vectorIiNS1_IiEEEEEEPvEEEEE10deallocateB7v160006ERSF_PSE_m, symObjAddr: 0x2F18, symBinAddr: 0x100007A2C, symSize: 0x34 }
  - { offsetInCU: 0x12A28, offset: 0x237CE, size: 0x8, addend: 0x0, symName: __ZNSt3__117__compressed_pairINS_16__hash_node_baseIPNS_11__hash_nodeINS_17__hash_value_typeINS_12basic_stringIcNS_11char_traitsIcEENS_9allocatorIcEEEENS_6vectorIiNS7_IiEEEEEEPvEEEENS7_ISF_EEE6secondB7v160006Ev, symObjAddr: 0x2F4C, symBinAddr: 0x100007A60, symSize: 0x24 }
  - { offsetInCU: 0x12A4C, offset: 0x237F2, size: 0x8, addend: 0x0, symName: __ZNSt3__122__compressed_pair_elemINS_9allocatorINS_11__hash_nodeINS_17__hash_value_typeINS_12basic_stringIcNS_11char_traitsIcEENS1_IcEEEENS_6vectorIiNS1_IiEEEEEEPvEEEELi1ELb1EE5__getB7v160006Ev, symObjAddr: 0x2F70, symBinAddr: 0x100007A84, symSize: 0x14 }
  - { offsetInCU: 0x12A70, offset: 0x23816, size: 0x8, addend: 0x0, symName: __ZNSt3__114pointer_traitsIPNS_16__hash_node_baseIPNS_11__hash_nodeINS_17__hash_value_typeINS_12basic_stringIcNS_11char_traitsIcEENS_9allocatorIcEEEENS_6vectorIiNS7_IiEEEEEEPvEEEEE10pointer_toB7v160006ERSH_, symObjAddr: 0x2F84, symBinAddr: 0x100007A98, symSize: 0x14 }
  - { offsetInCU: 0x12A93, offset: 0x23839, size: 0x8, addend: 0x0, symName: __ZNSt3__117__hash_value_typeINS_12basic_stringIcNS_11char_traitsIcEENS_9allocatorIcEEEENS_6vectorIiNS4_IiEEEEE11__get_valueB7v160006Ev, symObjAddr: 0x2F98, symBinAddr: 0x100007AAC, symSize: 0x14 }
  - { offsetInCU: 0x12AB7, offset: 0x2385D, size: 0x8, addend: 0x0, symName: __ZNSt3__19allocatorINS_11__hash_nodeINS_17__hash_value_typeINS_12basic_stringIcNS_11char_traitsIcEENS0_IcEEEENS_6vectorIiNS0_IiEEEEEEPvEEE10deallocateB7v160006EPSD_m, symObjAddr: 0x2FAC, symBinAddr: 0x100007AC0, symSize: 0x40 }
  - { offsetInCU: 0x12AF7, offset: 0x2389D, size: 0x8, addend: 0x0, symName: __ZNSt3__122__compressed_pair_elemINS_16__hash_node_baseIPNS_11__hash_nodeINS_17__hash_value_typeINS_12basic_stringIcNS_11char_traitsIcEENS_9allocatorIcEEEENS_6vectorIiNS7_IiEEEEEEPvEEEELi0ELb0EE5__getB7v160006Ev, symObjAddr: 0x3068, symBinAddr: 0x100007B00, symSize: 0x14 }
  - { offsetInCU: 0x12B1B, offset: 0x238C1, size: 0x8, addend: 0x0, symName: __ZNSt3__110unique_ptrIA_PNS_16__hash_node_baseIPNS_11__hash_nodeINS_17__hash_value_typeINS_12basic_stringIcNS_11char_traitsIcEENS_9allocatorIcEEEENS_6vectorIiNS7_IiEEEEEEPvEEEENS_25__bucket_list_deallocatorINS7_ISI_EEEEED2B7v160006Ev, symObjAddr: 0x307C, symBinAddr: 0x100007B14, symSize: 0x30 }
  - { offsetInCU: 0x12B43, offset: 0x238E9, size: 0x8, addend: 0x0, symName: __ZNSt3__110unique_ptrIA_PNS_16__hash_node_baseIPNS_11__hash_nodeINS_17__hash_value_typeINS_12basic_stringIcNS_11char_traitsIcEENS_9allocatorIcEEEENS_6vectorIiNS7_IiEEEEEEPvEEEENS_25__bucket_list_deallocatorINS7_ISI_EEEEE5resetB7v160006EDn, symObjAddr: 0x30AC, symBinAddr: 0x100007B44, symSize: 0x6C }
  - { offsetInCU: 0x12B81, offset: 0x23927, size: 0x8, addend: 0x0, symName: __ZNSt3__117__compressed_pairIPPNS_16__hash_node_baseIPNS_11__hash_nodeINS_17__hash_value_typeINS_12basic_stringIcNS_11char_traitsIcEENS_9allocatorIcEEEENS_6vectorIiNS7_IiEEEEEEPvEEEENS_25__bucket_list_deallocatorINS7_ISI_EEEEE5firstB7v160006Ev, symObjAddr: 0x3118, symBinAddr: 0x100007BB0, symSize: 0x24 }
  - { offsetInCU: 0x12BA5, offset: 0x2394B, size: 0x8, addend: 0x0, symName: __ZNSt3__117__compressed_pairIPPNS_16__hash_node_baseIPNS_11__hash_nodeINS_17__hash_value_typeINS_12basic_stringIcNS_11char_traitsIcEENS_9allocatorIcEEEENS_6vectorIiNS7_IiEEEEEEPvEEEENS_25__bucket_list_deallocatorINS7_ISI_EEEEE6secondB7v160006Ev, symObjAddr: 0x313C, symBinAddr: 0x100007BD4, symSize: 0x28 }
  - { offsetInCU: 0x12BC9, offset: 0x2396F, size: 0x8, addend: 0x0, symName: __ZNSt3__125__bucket_list_deallocatorINS_9allocatorIPNS_16__hash_node_baseIPNS_11__hash_nodeINS_17__hash_value_typeINS_12basic_stringIcNS_11char_traitsIcEENS1_IcEEEENS_6vectorIiNS1_IiEEEEEEPvEEEEEEEclB7v160006EPSI_, symObjAddr: 0x3164, symBinAddr: 0x100007BFC, symSize: 0x58 }
  - { offsetInCU: 0x12BFC, offset: 0x239A2, size: 0x8, addend: 0x0, symName: __ZNSt3__122__compressed_pair_elemIPPNS_16__hash_node_baseIPNS_11__hash_nodeINS_17__hash_value_typeINS_12basic_stringIcNS_11char_traitsIcEENS_9allocatorIcEEEENS_6vectorIiNS7_IiEEEEEEPvEEEELi0ELb0EE5__getB7v160006Ev, symObjAddr: 0x31BC, symBinAddr: 0x100007C54, symSize: 0x14 }
  - { offsetInCU: 0x12C20, offset: 0x239C6, size: 0x8, addend: 0x0, symName: __ZNSt3__122__compressed_pair_elemINS_25__bucket_list_deallocatorINS_9allocatorIPNS_16__hash_node_baseIPNS_11__hash_nodeINS_17__hash_value_typeINS_12basic_stringIcNS_11char_traitsIcEENS2_IcEEEENS_6vectorIiNS2_IiEEEEEEPvEEEEEEEELi1ELb0EE5__getB7v160006Ev, symObjAddr: 0x31D0, symBinAddr: 0x100007C68, symSize: 0x14 }
  - { offsetInCU: 0x12C44, offset: 0x239EA, size: 0x8, addend: 0x0, symName: __ZNSt3__116allocator_traitsINS_9allocatorIPNS_16__hash_node_baseIPNS_11__hash_nodeINS_17__hash_value_typeINS_12basic_stringIcNS_11char_traitsIcEENS1_IcEEEENS_6vectorIiNS1_IiEEEEEEPvEEEEEEE10deallocateB7v160006ERSJ_PSI_m, symObjAddr: 0x31E4, symBinAddr: 0x100007C7C, symSize: 0x34 }
  - { offsetInCU: 0x12C85, offset: 0x23A2B, size: 0x8, addend: 0x0, symName: __ZNSt3__125__bucket_list_deallocatorINS_9allocatorIPNS_16__hash_node_baseIPNS_11__hash_nodeINS_17__hash_value_typeINS_12basic_stringIcNS_11char_traitsIcEENS1_IcEEEENS_6vectorIiNS1_IiEEEEEEPvEEEEEEE7__allocB7v160006Ev, symObjAddr: 0x3218, symBinAddr: 0x100007CB0, symSize: 0x24 }
  - { offsetInCU: 0x12CA9, offset: 0x23A4F, size: 0x8, addend: 0x0, symName: __ZNSt3__125__bucket_list_deallocatorINS_9allocatorIPNS_16__hash_node_baseIPNS_11__hash_nodeINS_17__hash_value_typeINS_12basic_stringIcNS_11char_traitsIcEENS1_IcEEEENS_6vectorIiNS1_IiEEEEEEPvEEEEEEE4sizeB7v160006Ev, symObjAddr: 0x323C, symBinAddr: 0x100007CD4, symSize: 0x24 }
  - { offsetInCU: 0x12CCD, offset: 0x23A73, size: 0x8, addend: 0x0, symName: __ZNSt3__19allocatorIPNS_16__hash_node_baseIPNS_11__hash_nodeINS_17__hash_value_typeINS_12basic_stringIcNS_11char_traitsIcEENS0_IcEEEENS_6vectorIiNS0_IiEEEEEEPvEEEEE10deallocateB7v160006EPSH_m, symObjAddr: 0x3260, symBinAddr: 0x100007CF8, symSize: 0x40 }
  - { offsetInCU: 0x12D0D, offset: 0x23AB3, size: 0x8, addend: 0x0, symName: __ZNSt3__117__compressed_pairImNS_9allocatorIPNS_16__hash_node_baseIPNS_11__hash_nodeINS_17__hash_value_typeINS_12basic_stringIcNS_11char_traitsIcEENS1_IcEEEENS_6vectorIiNS1_IiEEEEEEPvEEEEEEE6secondB7v160006Ev, symObjAddr: 0x32A0, symBinAddr: 0x100007D38, symSize: 0x24 }
  - { offsetInCU: 0x12D31, offset: 0x23AD7, size: 0x8, addend: 0x0, symName: __ZNSt3__122__compressed_pair_elemINS_9allocatorIPNS_16__hash_node_baseIPNS_11__hash_nodeINS_17__hash_value_typeINS_12basic_stringIcNS_11char_traitsIcEENS1_IcEEEENS_6vectorIiNS1_IiEEEEEEPvEEEEEELi1ELb1EE5__getB7v160006Ev, symObjAddr: 0x32C4, symBinAddr: 0x100007D5C, symSize: 0x14 }
  - { offsetInCU: 0x12D55, offset: 0x23AFB, size: 0x8, addend: 0x0, symName: __ZNSt3__117__compressed_pairImNS_9allocatorIPNS_16__hash_node_baseIPNS_11__hash_nodeINS_17__hash_value_typeINS_12basic_stringIcNS_11char_traitsIcEENS1_IcEEEENS_6vectorIiNS1_IiEEEEEEPvEEEEEEE5firstB7v160006Ev, symObjAddr: 0x32D8, symBinAddr: 0x100007D70, symSize: 0x24 }
  - { offsetInCU: 0x12D79, offset: 0x23B1F, size: 0x8, addend: 0x0, symName: __ZNSt3__122__compressed_pair_elemImLi0ELb0EE5__getB7v160006Ev, symObjAddr: 0x32FC, symBinAddr: 0x100007D94, symSize: 0x14 }
  - { offsetInCU: 0x12D9D, offset: 0x23B43, size: 0x8, addend: 0x0, symName: __ZNSt3__19basic_iosIcNS_11char_traitsIcEEEC2B7v160006Ev, symObjAddr: 0x3310, symBinAddr: 0x100007DA8, symSize: 0x44 }
  - { offsetInCU: 0x12DC5, offset: 0x23B6B, size: 0x8, addend: 0x0, symName: __ZNSt3__113basic_istreamIcNS_11char_traitsIcEEEC2B7v160006EPNS_15basic_streambufIcS2_EE, symObjAddr: 0x3354, symBinAddr: 0x100007DEC, symSize: 0x64 }
  - { offsetInCU: 0x12E07, offset: 0x23BAD, size: 0x8, addend: 0x0, symName: __ZNSt3__113basic_filebufIcNS_11char_traitsIcEEE4openERKNS_12basic_stringIcS2_NS_9allocatorIcEEEEj, symObjAddr: 0x33B8, symBinAddr: 0x100007E50, symSize: 0x44 }
  - { offsetInCU: 0x12E49, offset: 0x23BEF, size: 0x8, addend: 0x0, symName: __ZNSt3__19basic_iosIcNS_11char_traitsIcEEE8setstateB7v160006Ej, symObjAddr: 0x33FC, symBinAddr: 0x100007E94, symSize: 0x2C }
  - { offsetInCU: 0x12E7C, offset: 0x23C22, size: 0x8, addend: 0x0, symName: __ZNSt3__18ios_baseC2B7v160006Ev, symObjAddr: 0x3428, symBinAddr: 0x100007EC0, symSize: 0x24 }
  - { offsetInCU: 0x12EA4, offset: 0x23C4A, size: 0x8, addend: 0x0, symName: __ZNSt3__19basic_iosIcNS_11char_traitsIcEEE4initB7v160006EPNS_15basic_streambufIcS2_EE, symObjAddr: 0x344C, symBinAddr: 0x100007EE4, symSize: 0x44 }
  - { offsetInCU: 0x12ED9, offset: 0x23C7F, size: 0x8, addend: 0x0, symName: __ZNSt3__111char_traitsIcE3eofEv, symObjAddr: 0x3490, symBinAddr: 0x100007F28, symSize: 0x8 }
  - { offsetInCU: 0x12EED, offset: 0x23C93, size: 0x8, addend: 0x0, symName: __ZNKSt3__112basic_stringIcNS_11char_traitsIcEENS_9allocatorIcEEE5c_strB7v160006Ev, symObjAddr: 0x3498, symBinAddr: 0x100007F30, symSize: 0x24 }
  - { offsetInCU: 0x12F11, offset: 0x23CB7, size: 0x8, addend: 0x0, symName: __ZNSt3__18ios_base8setstateB7v160006Ej, symObjAddr: 0x3620, symBinAddr: 0x100007F54, symSize: 0x34 }
  - { offsetInCU: 0x12F46, offset: 0x23CEC, size: 0x8, addend: 0x0, symName: __ZNKSt3__113basic_filebufIcNS_11char_traitsIcEEE7is_openEv, symObjAddr: 0x3654, symBinAddr: 0x100007F88, symSize: 0x24 }
  - { offsetInCU: 0x12F8B, offset: 0x23D31, size: 0x8, addend: 0x0, symName: __ZNKSt3__113basic_ostreamIcNS_11char_traitsIcEEE6sentrycvbB7v160006Ev, symObjAddr: 0x3898, symBinAddr: 0x100008198, symSize: 0x1C }
  - { offsetInCU: 0x12FAF, offset: 0x23D55, size: 0x8, addend: 0x0, symName: __ZNSt3__119ostreambuf_iteratorIcNS_11char_traitsIcEEEC1B7v160006ERNS_13basic_ostreamIcS2_EE, symObjAddr: 0x3AF4, symBinAddr: 0x1000083F4, symSize: 0x34 }
  - { offsetInCU: 0x12FE5, offset: 0x23D8B, size: 0x8, addend: 0x0, symName: __ZNKSt3__18ios_base5flagsB7v160006Ev, symObjAddr: 0x3B28, symBinAddr: 0x100008428, symSize: 0x18 }
  - { offsetInCU: 0x1300C, offset: 0x23DB2, size: 0x8, addend: 0x0, symName: __ZNKSt3__19basic_iosIcNS_11char_traitsIcEEE4fillB7v160006Ev, symObjAddr: 0x3B40, symBinAddr: 0x100008440, symSize: 0x64 }
  - { offsetInCU: 0x13032, offset: 0x23DD8, size: 0x8, addend: 0x0, symName: __ZNKSt3__119ostreambuf_iteratorIcNS_11char_traitsIcEEE6failedB7v160006Ev, symObjAddr: 0x3BA4, symBinAddr: 0x1000084A4, symSize: 0x24 }
  - { offsetInCU: 0x13056, offset: 0x23DFC, size: 0x8, addend: 0x0, symName: __ZNKSt3__18ios_base5widthB7v160006Ev, symObjAddr: 0x3BC8, symBinAddr: 0x1000084C8, symSize: 0x18 }
  - { offsetInCU: 0x1307D, offset: 0x23E23, size: 0x8, addend: 0x0, symName: __ZNSt3__115basic_streambufIcNS_11char_traitsIcEEE5sputnB7v160006EPKcl, symObjAddr: 0x3BE0, symBinAddr: 0x1000084E0, symSize: 0x3C }
  - { offsetInCU: 0x130BD, offset: 0x23E63, size: 0x8, addend: 0x0, symName: __ZNSt3__112basic_stringIcNS_11char_traitsIcEENS_9allocatorIcEEEC1B7v160006Emc, symObjAddr: 0x3C1C, symBinAddr: 0x10000851C, symSize: 0x3C }
  - { offsetInCU: 0x13103, offset: 0x23EA9, size: 0x8, addend: 0x0, symName: __ZNSt3__18ios_base5widthB7v160006El, symObjAddr: 0x3C58, symBinAddr: 0x100008558, symSize: 0x2C }
  - { offsetInCU: 0x13148, offset: 0x23EEE, size: 0x8, addend: 0x0, symName: __ZNSt3__112basic_stringIcNS_11char_traitsIcEENS_9allocatorIcEEEC2B7v160006Emc, symObjAddr: 0x3C84, symBinAddr: 0x100008584, symSize: 0x54 }
  - { offsetInCU: 0x1318E, offset: 0x23F34, size: 0x8, addend: 0x0, symName: __ZNSt3__119ostreambuf_iteratorIcNS_11char_traitsIcEEEC2B7v160006ERNS_13basic_ostreamIcS2_EE, symObjAddr: 0x3CD8, symBinAddr: 0x1000085D8, symSize: 0x54 }
  - { offsetInCU: 0x131C4, offset: 0x23F6A, size: 0x8, addend: 0x0, symName: __ZNKSt3__19basic_iosIcNS_11char_traitsIcEEE5rdbufB7v160006Ev, symObjAddr: 0x3D2C, symBinAddr: 0x10000862C, symSize: 0x24 }
  - { offsetInCU: 0x131EA, offset: 0x23F90, size: 0x8, addend: 0x0, symName: __ZNKSt3__18ios_base5rdbufB7v160006Ev, symObjAddr: 0x3D50, symBinAddr: 0x100008650, symSize: 0x18 }
  - { offsetInCU: 0x1320E, offset: 0x23FB4, size: 0x8, addend: 0x0, symName: __ZNSt3__111char_traitsIcE11eq_int_typeEii, symObjAddr: 0x3D68, symBinAddr: 0x100008668, symSize: 0x28 }
  - { offsetInCU: 0x13262, offset: 0x24008, size: 0x8, addend: 0x0, symName: __ZNKSt3__113basic_istreamIcNS_11char_traitsIcEEE6sentrycvbB7v160006Ev, symObjAddr: 0x40D4, symBinAddr: 0x1000088C8, symSize: 0x1C }
  - { offsetInCU: 0x13286, offset: 0x2402C, size: 0x8, addend: 0x0, symName: __ZNSt3__112basic_stringIcNS_11char_traitsIcEENS_9allocatorIcEEE5clearB7v160006Ev, symObjAddr: 0x40F0, symBinAddr: 0x1000088E4, symSize: 0x88 }
  - { offsetInCU: 0x132AC, offset: 0x24052, size: 0x8, addend: 0x0, symName: __ZNSt3__115basic_streambufIcNS_11char_traitsIcEEE6sbumpcB7v160006Ev, symObjAddr: 0x4178, symBinAddr: 0x10000896C, symSize: 0x78 }
  - { offsetInCU: 0x132D0, offset: 0x24076, size: 0x8, addend: 0x0, symName: __ZNSt3__111char_traitsIcE12to_char_typeEi, symObjAddr: 0x41F0, symBinAddr: 0x1000089E4, symSize: 0x18 }
  - { offsetInCU: 0x132F3, offset: 0x24099, size: 0x8, addend: 0x0, symName: __ZNSt3__111char_traitsIcE2eqEcc, symObjAddr: 0x4208, symBinAddr: 0x1000089FC, symSize: 0x28 }
  - { offsetInCU: 0x13324, offset: 0x240CA, size: 0x8, addend: 0x0, symName: __ZNKSt3__112basic_stringIcNS_11char_traitsIcEENS_9allocatorIcEEE8max_sizeB7v160006Ev, symObjAddr: 0x4284, symBinAddr: 0x100008A24, symSize: 0xAC }
  - { offsetInCU: 0x13375, offset: 0x2411B, size: 0x8, addend: 0x0, symName: __ZNSt3__18ios_base18__setstate_nothrowB7v160006Ej, symObjAddr: 0x4330, symBinAddr: 0x100008AD0, symSize: 0x64 }
  - { offsetInCU: 0x133A8, offset: 0x2414E, size: 0x8, addend: 0x0, symName: __ZNKSt3__19basic_iosIcNS_11char_traitsIcEEE10exceptionsB7v160006Ev, symObjAddr: 0x4394, symBinAddr: 0x100008B34, symSize: 0x24 }
  - { offsetInCU: 0x133CC, offset: 0x24172, size: 0x8, addend: 0x0, symName: __ZNSt3__112basic_stringIcNS_11char_traitsIcEENS_9allocatorIcEEE15__set_long_sizeB7v160006Em, symObjAddr: 0x4414, symBinAddr: 0x100008B68, symSize: 0x38 }
  - { offsetInCU: 0x133FF, offset: 0x241A5, size: 0x8, addend: 0x0, symName: __ZNSt3__111char_traitsIcE11to_int_typeEc, symObjAddr: 0x4500, symBinAddr: 0x100008BA0, symSize: 0x14 }
  - { offsetInCU: 0x1342C, offset: 0x241D2, size: 0x8, addend: 0x0, symName: __ZNSt3__116allocator_traitsINS_9allocatorIcEEE8max_sizeB7v160006IS2_vEEmRKS2_, symObjAddr: 0x4570, symBinAddr: 0x100008BB4, symSize: 0x24 }
  - { offsetInCU: 0x13459, offset: 0x241FF, size: 0x8, addend: 0x0, symName: __ZNKSt3__112basic_stringIcNS_11char_traitsIcEENS_9allocatorIcEEE7__allocB7v160006Ev, symObjAddr: 0x4594, symBinAddr: 0x100008BD8, symSize: 0x24 }
  - { offsetInCU: 0x1347D, offset: 0x24223, size: 0x8, addend: 0x0, symName: __ZNSt3__114numeric_limitsImE3maxB7v160006Ev, symObjAddr: 0x45B8, symBinAddr: 0x100008BFC, symSize: 0x14 }
  - { offsetInCU: 0x13491, offset: 0x24237, size: 0x8, addend: 0x0, symName: __ZNKSt3__19allocatorIcE8max_sizeB7v160006Ev, symObjAddr: 0x45CC, symBinAddr: 0x100008C10, symSize: 0x14 }
  - { offsetInCU: 0x134B5, offset: 0x2425B, size: 0x8, addend: 0x0, symName: __ZNKSt3__117__compressed_pairINS_12basic_stringIcNS_11char_traitsIcEENS_9allocatorIcEEE5__repES5_E6secondB7v160006Ev, symObjAddr: 0x45E0, symBinAddr: 0x100008C24, symSize: 0x24 }
  - { offsetInCU: 0x134D9, offset: 0x2427F, size: 0x8, addend: 0x0, symName: __ZNKSt3__122__compressed_pair_elemINS_9allocatorIcEELi1ELb1EE5__getB7v160006Ev, symObjAddr: 0x4604, symBinAddr: 0x100008C48, symSize: 0x14 }
  - { offsetInCU: 0x134FD, offset: 0x242A3, size: 0x8, addend: 0x0, symName: __ZNSt3__123__libcpp_numeric_limitsImLb1EE3maxB7v160006Ev, symObjAddr: 0x4618, symBinAddr: 0x100008C5C, symSize: 0x8 }
  - { offsetInCU: 0x13511, offset: 0x242B7, size: 0x8, addend: 0x0, symName: __ZNKSt3__18ios_base10exceptionsB7v160006Ev, symObjAddr: 0x4620, symBinAddr: 0x100008C64, symSize: 0x18 }
  - { offsetInCU: 0x13538, offset: 0x242DE, size: 0x8, addend: 0x0, symName: __ZNKSt3__19basic_iosIcNS_11char_traitsIcEEE4failB7v160006Ev, symObjAddr: 0x4638, symBinAddr: 0x100008C7C, symSize: 0x28 }
  - { offsetInCU: 0x1355C, offset: 0x24302, size: 0x8, addend: 0x0, symName: __ZNKSt3__18ios_base4failB7v160006Ev, symObjAddr: 0x4660, symBinAddr: 0x100008CA4, symSize: 0x28 }
  - { offsetInCU: 0x13583, offset: 0x24329, size: 0x8, addend: 0x0, symName: __ZNSt3__115basic_stringbufIcNS_11char_traitsIcEENS_9allocatorIcEEEC1B7v160006ERKNS_12basic_stringIcS2_S4_EEj, symObjAddr: 0x4688, symBinAddr: 0x100008CCC, symSize: 0x3C }
  - { offsetInCU: 0x135C7, offset: 0x2436D, size: 0x8, addend: 0x0, symName: __ZNSt3__115basic_stringbufIcNS_11char_traitsIcEENS_9allocatorIcEEEC2B7v160006ERKNS_12basic_stringIcS2_S4_EEj, symObjAddr: 0x46C4, symBinAddr: 0x100008D08, symSize: 0xB4 }
  - { offsetInCU: 0x1360B, offset: 0x243B1, size: 0x8, addend: 0x0, symName: __ZNKSt3__112basic_stringIcNS_11char_traitsIcEENS_9allocatorIcEEE13get_allocatorB7v160006Ev, symObjAddr: 0x4778, symBinAddr: 0x100008DBC, symSize: 0x24 }
  - { offsetInCU: 0x1362F, offset: 0x243D5, size: 0x8, addend: 0x0, symName: __ZNSt3__112basic_stringIcNS_11char_traitsIcEENS_9allocatorIcEEEC1B7v160006ERKS4_, symObjAddr: 0x479C, symBinAddr: 0x100008DE0, symSize: 0x34 }
  - { offsetInCU: 0x13666, offset: 0x2440C, size: 0x8, addend: 0x0, symName: __ZNSt3__112basic_stringIcNS_11char_traitsIcEENS_9allocatorIcEEEC2B7v160006ERKS4_, symObjAddr: 0x47D0, symBinAddr: 0x100008E14, symSize: 0x50 }
  - { offsetInCU: 0x1369D, offset: 0x24443, size: 0x8, addend: 0x0, symName: __ZNSt3__117__compressed_pairINS_12basic_stringIcNS_11char_traitsIcEENS_9allocatorIcEEE5__repES5_EC1B7v160006INS_18__default_init_tagERKS5_EEOT_OT0_, symObjAddr: 0x4820, symBinAddr: 0x100008E64, symSize: 0x3C }
  - { offsetInCU: 0x136F3, offset: 0x24499, size: 0x8, addend: 0x0, symName: __ZNSt3__117__compressed_pairINS_12basic_stringIcNS_11char_traitsIcEENS_9allocatorIcEEE5__repES5_EC2B7v160006INS_18__default_init_tagERKS5_EEOT_OT0_, symObjAddr: 0x485C, symBinAddr: 0x100008EA0, symSize: 0x40 }
  - { offsetInCU: 0x13749, offset: 0x244EF, size: 0x8, addend: 0x0, symName: __ZNSt3__122__compressed_pair_elemINS_9allocatorIcEELi1ELb1EEC2B7v160006IRKS2_vEEOT_, symObjAddr: 0x489C, symBinAddr: 0x100008EE0, symSize: 0x18 }
  - { offsetInCU: 0x13789, offset: 0x2452F, size: 0x8, addend: 0x0, symName: __ZNSt3__16vectorIiNS_9allocatorIiEEEC2B7v160006ESt16initializer_listIiE, symObjAddr: 0x48B4, symBinAddr: 0x100008EF8, symSize: 0x124 }
  - { offsetInCU: 0x137DF, offset: 0x24585, size: 0x8, addend: 0x0, symName: __ZNSt3__117__compressed_pairIPiNS_9allocatorIiEEEC1B7v160006IDnNS_18__default_init_tagEEEOT_OT0_, symObjAddr: 0x49D8, symBinAddr: 0x10000901C, symSize: 0x3C }
  - { offsetInCU: 0x13835, offset: 0x245DB, size: 0x8, addend: 0x0, symName: __ZNSt3__16vectorIiNS_9allocatorIiEEE16__destroy_vectorC1ERS3_, symObjAddr: 0x4A54, symBinAddr: 0x100009098, symSize: 0x34 }
  - { offsetInCU: 0x1386C, offset: 0x24612, size: 0x8, addend: 0x0, symName: __ZNKSt16initializer_listIiE4sizeB7v160006Ev, symObjAddr: 0x4A98, symBinAddr: 0x1000090DC, symSize: 0x18 }
  - { offsetInCU: 0x13890, offset: 0x24636, size: 0x8, addend: 0x0, symName: __ZNSt3__16vectorIiNS_9allocatorIiEEE11__vallocateB7v160006Em, symObjAddr: 0x4AB0, symBinAddr: 0x1000090F4, symSize: 0xAC }
  - { offsetInCU: 0x138D2, offset: 0x24678, size: 0x8, addend: 0x0, symName: __ZNSt3__16vectorIiNS_9allocatorIiEEE18__construct_at_endIPKiLi0EEEvT_S7_m, symObjAddr: 0x4B5C, symBinAddr: 0x1000091A0, symSize: 0x8C }
  - { offsetInCU: 0x13944, offset: 0x246EA, size: 0x8, addend: 0x0, symName: __ZNKSt16initializer_listIiE5beginB7v160006Ev, symObjAddr: 0x4BE8, symBinAddr: 0x10000922C, symSize: 0x18 }
  - { offsetInCU: 0x13968, offset: 0x2470E, size: 0x8, addend: 0x0, symName: __ZNKSt16initializer_listIiE3endB7v160006Ev, symObjAddr: 0x4C00, symBinAddr: 0x100009244, symSize: 0x20 }
  - { offsetInCU: 0x1398C, offset: 0x24732, size: 0x8, addend: 0x0, symName: __ZNSt3__128__exception_guard_exceptionsINS_6vectorIiNS_9allocatorIiEEE16__destroy_vectorEE10__completeB7v160006Ev, symObjAddr: 0x4C20, symBinAddr: 0x100009264, symSize: 0x1C }
  - { offsetInCU: 0x139B0, offset: 0x24756, size: 0x8, addend: 0x0, symName: __ZNSt3__128__exception_guard_exceptionsINS_6vectorIiNS_9allocatorIiEEE16__destroy_vectorEED1B7v160006Ev, symObjAddr: 0x4C3C, symBinAddr: 0x100009280, symSize: 0x2C }
  - { offsetInCU: 0x139D8, offset: 0x2477E, size: 0x8, addend: 0x0, symName: __ZNSt3__117__compressed_pairIPiNS_9allocatorIiEEEC2B7v160006IDnNS_18__default_init_tagEEEOT_OT0_, symObjAddr: 0x4C68, symBinAddr: 0x1000092AC, symSize: 0x40 }
  - { offsetInCU: 0x13A2E, offset: 0x247D4, size: 0x8, addend: 0x0, symName: __ZNSt3__122__compressed_pair_elemIPiLi0ELb0EEC2B7v160006IDnvEEOT_, symObjAddr: 0x4CA8, symBinAddr: 0x1000092EC, symSize: 0x1C }
  - { offsetInCU: 0x13A6E, offset: 0x24814, size: 0x8, addend: 0x0, symName: __ZNSt3__122__compressed_pair_elemINS_9allocatorIiEELi1ELb1EEC2B7v160006ENS_18__default_init_tagE, symObjAddr: 0x4CC4, symBinAddr: 0x100009308, symSize: 0x2C }
  - { offsetInCU: 0x13AA0, offset: 0x24846, size: 0x8, addend: 0x0, symName: __ZNSt3__19allocatorIiEC2B7v160006Ev, symObjAddr: 0x4CF0, symBinAddr: 0x100009334, symSize: 0x2C }
  - { offsetInCU: 0x13AC8, offset: 0x2486E, size: 0x8, addend: 0x0, symName: __ZNSt3__116__non_trivial_ifILb1ENS_9allocatorIiEEEC2B7v160006Ev, symObjAddr: 0x4D1C, symBinAddr: 0x100009360, symSize: 0x14 }
  - { offsetInCU: 0x13AF0, offset: 0x24896, size: 0x8, addend: 0x0, symName: __ZNSt3__128__exception_guard_exceptionsINS_6vectorIiNS_9allocatorIiEEE16__destroy_vectorEEC1B7v160006ES5_, symObjAddr: 0x4D30, symBinAddr: 0x100009374, symSize: 0x34 }
  - { offsetInCU: 0x13B26, offset: 0x248CC, size: 0x8, addend: 0x0, symName: __ZNSt3__128__exception_guard_exceptionsINS_6vectorIiNS_9allocatorIiEEE16__destroy_vectorEEC2B7v160006ES5_, symObjAddr: 0x4D64, symBinAddr: 0x1000093A8, symSize: 0x24 }
  - { offsetInCU: 0x13B5C, offset: 0x24902, size: 0x8, addend: 0x0, symName: __ZNSt3__16vectorIiNS_9allocatorIiEEE16__destroy_vectorC2ERS3_, symObjAddr: 0x4D88, symBinAddr: 0x1000093CC, symSize: 0x20 }
  - { offsetInCU: 0x13B93, offset: 0x24939, size: 0x8, addend: 0x0, symName: __ZNKSt3__16vectorIiNS_9allocatorIiEEE8max_sizeEv, symObjAddr: 0x4DA8, symBinAddr: 0x1000093EC, symSize: 0x60 }
  - { offsetInCU: 0x13BB9, offset: 0x2495F, size: 0x8, addend: 0x0, symName: __ZNKSt3__16vectorIiNS_9allocatorIiEEE20__throw_length_errorB7v160006Ev, symObjAddr: 0x4E08, symBinAddr: 0x10000944C, symSize: 0x1C }
  - { offsetInCU: 0x13BDD, offset: 0x24983, size: 0x8, addend: 0x0, symName: __ZNSt3__16vectorIiNS_9allocatorIiEEE7__allocB7v160006Ev, symObjAddr: 0x4E64, symBinAddr: 0x1000094A8, symSize: 0x28 }
  - { offsetInCU: 0x13C01, offset: 0x249A7, size: 0x8, addend: 0x0, symName: __ZNSt3__16vectorIiNS_9allocatorIiEEE9__end_capB7v160006Ev, symObjAddr: 0x4E8C, symBinAddr: 0x1000094D0, symSize: 0x28 }
  - { offsetInCU: 0x13C25, offset: 0x249CB, size: 0x8, addend: 0x0, symName: __ZNKSt3__16vectorIiNS_9allocatorIiEEE14__annotate_newB7v160006Em, symObjAddr: 0x4EB4, symBinAddr: 0x1000094F8, symSize: 0xAC }
  - { offsetInCU: 0x13C62, offset: 0x24A08, size: 0x8, addend: 0x0, symName: __ZNSt3__116allocator_traitsINS_9allocatorIiEEE8max_sizeB7v160006IS2_vEEmRKS2_, symObjAddr: 0x4F8C, symBinAddr: 0x1000095D0, symSize: 0x24 }
  - { offsetInCU: 0x13C8F, offset: 0x24A35, size: 0x8, addend: 0x0, symName: __ZNKSt3__16vectorIiNS_9allocatorIiEEE7__allocB7v160006Ev, symObjAddr: 0x4FB0, symBinAddr: 0x1000095F4, symSize: 0x28 }
  - { offsetInCU: 0x13CB3, offset: 0x24A59, size: 0x8, addend: 0x0, symName: __ZNSt3__114numeric_limitsIlE3maxB7v160006Ev, symObjAddr: 0x4FD8, symBinAddr: 0x10000961C, symSize: 0x14 }
  - { offsetInCU: 0x13CD1, offset: 0x24A77, size: 0x8, addend: 0x0, symName: __ZNKSt3__16__lessImmEclB7v160006ERKmS3_, symObjAddr: 0x5040, symBinAddr: 0x100009684, symSize: 0x34 }
  - { offsetInCU: 0x13D11, offset: 0x24AB7, size: 0x8, addend: 0x0, symName: __ZNKSt3__19allocatorIiE8max_sizeB7v160006Ev, symObjAddr: 0x5074, symBinAddr: 0x1000096B8, symSize: 0x14 }
  - { offsetInCU: 0x13D35, offset: 0x24ADB, size: 0x8, addend: 0x0, symName: __ZNKSt3__117__compressed_pairIPiNS_9allocatorIiEEE6secondB7v160006Ev, symObjAddr: 0x5088, symBinAddr: 0x1000096CC, symSize: 0x24 }
  - { offsetInCU: 0x13D59, offset: 0x24AFF, size: 0x8, addend: 0x0, symName: __ZNKSt3__122__compressed_pair_elemINS_9allocatorIiEELi1ELb1EE5__getB7v160006Ev, symObjAddr: 0x50AC, symBinAddr: 0x1000096F0, symSize: 0x14 }
  - { offsetInCU: 0x13D7D, offset: 0x24B23, size: 0x8, addend: 0x0, symName: __ZNSt3__123__libcpp_numeric_limitsIlLb1EE3maxB7v160006Ev, symObjAddr: 0x50C0, symBinAddr: 0x100009704, symSize: 0x8 }
  - { offsetInCU: 0x13D91, offset: 0x24B37, size: 0x8, addend: 0x0, symName: __ZNSt12length_errorC1B7v160006EPKc, symObjAddr: 0x512C, symBinAddr: 0x100009770, symSize: 0x34 }
  - { offsetInCU: 0x13DC7, offset: 0x24B6D, size: 0x8, addend: 0x0, symName: __ZNSt12length_errorC2B7v160006EPKc, symObjAddr: 0x5160, symBinAddr: 0x1000097A4, symSize: 0x4C }
  - { offsetInCU: 0x13DFD, offset: 0x24BA3, size: 0x8, addend: 0x0, symName: __ZNSt3__19allocatorIiE8allocateB7v160006Em, symObjAddr: 0x51AC, symBinAddr: 0x1000097F0, symSize: 0x58 }
  - { offsetInCU: 0x13E2F, offset: 0x24BD5, size: 0x8, addend: 0x0, symName: __ZNSt3__117__compressed_pairIPiNS_9allocatorIiEEE6secondB7v160006Ev, symObjAddr: 0x5284, symBinAddr: 0x1000098C8, symSize: 0x24 }
  - { offsetInCU: 0x13E53, offset: 0x24BF9, size: 0x8, addend: 0x0, symName: __ZNSt3__122__compressed_pair_elemINS_9allocatorIiEELi1ELb1EE5__getB7v160006Ev, symObjAddr: 0x52A8, symBinAddr: 0x1000098EC, symSize: 0x14 }
  - { offsetInCU: 0x13E77, offset: 0x24C1D, size: 0x8, addend: 0x0, symName: __ZNSt3__117__compressed_pairIPiNS_9allocatorIiEEE5firstB7v160006Ev, symObjAddr: 0x52BC, symBinAddr: 0x100009900, symSize: 0x24 }
  - { offsetInCU: 0x13E9B, offset: 0x24C41, size: 0x8, addend: 0x0, symName: __ZNSt3__122__compressed_pair_elemIPiLi0ELb0EE5__getB7v160006Ev, symObjAddr: 0x52E0, symBinAddr: 0x100009924, symSize: 0x14 }
  - { offsetInCU: 0x13EBF, offset: 0x24C65, size: 0x8, addend: 0x0, symName: __ZNKSt3__16vectorIiNS_9allocatorIiEEE31__annotate_contiguous_containerB7v160006EPKvS5_S5_S5_, symObjAddr: 0x52F4, symBinAddr: 0x100009938, symSize: 0x20 }
  - { offsetInCU: 0x13F0F, offset: 0x24CB5, size: 0x8, addend: 0x0, symName: __ZNKSt3__16vectorIiNS_9allocatorIiEEE4dataB7v160006Ev, symObjAddr: 0x5314, symBinAddr: 0x100009958, symSize: 0x28 }
  - { offsetInCU: 0x13F33, offset: 0x24CD9, size: 0x8, addend: 0x0, symName: __ZNKSt3__16vectorIiNS_9allocatorIiEEE8capacityB7v160006Ev, symObjAddr: 0x533C, symBinAddr: 0x100009980, symSize: 0x40 }
  - { offsetInCU: 0x13F57, offset: 0x24CFD, size: 0x8, addend: 0x0, symName: __ZNKSt3__16vectorIiNS_9allocatorIiEEE9__end_capB7v160006Ev, symObjAddr: 0x5390, symBinAddr: 0x1000099D4, symSize: 0x28 }
  - { offsetInCU: 0x13F7B, offset: 0x24D21, size: 0x8, addend: 0x0, symName: __ZNKSt3__117__compressed_pairIPiNS_9allocatorIiEEE5firstB7v160006Ev, symObjAddr: 0x53B8, symBinAddr: 0x1000099FC, symSize: 0x24 }
  - { offsetInCU: 0x13F9F, offset: 0x24D45, size: 0x8, addend: 0x0, symName: __ZNKSt3__122__compressed_pair_elemIPiLi0ELb0EE5__getB7v160006Ev, symObjAddr: 0x53DC, symBinAddr: 0x100009A20, symSize: 0x14 }
  - { offsetInCU: 0x13FDC, offset: 0x24D82, size: 0x8, addend: 0x0, symName: __ZNSt3__16vectorIiNS_9allocatorIiEEE21_ConstructTransactionC1B7v160006ERS3_m, symObjAddr: 0x53F0, symBinAddr: 0x100009A34, symSize: 0x3C }
  - { offsetInCU: 0x14022, offset: 0x24DC8, size: 0x8, addend: 0x0, symName: __ZNSt3__16vectorIiNS_9allocatorIiEEE21_ConstructTransactionD1B7v160006Ev, symObjAddr: 0x5464, symBinAddr: 0x100009AA8, symSize: 0x2C }
  - { offsetInCU: 0x1404A, offset: 0x24DF0, size: 0x8, addend: 0x0, symName: __ZNSt3__16vectorIiNS_9allocatorIiEEE21_ConstructTransactionC2B7v160006ERS3_m, symObjAddr: 0x5490, symBinAddr: 0x100009AD4, symSize: 0x44 }
  - { offsetInCU: 0x140B3, offset: 0x24E59, size: 0x8, addend: 0x0, symName: __ZNKSt3__114__copy_trivialclB7v160006IKiiLi0EEENS_4pairIPT_PT0_EES5_S5_S7_, symObjAddr: 0x56B0, symBinAddr: 0x100009CF4, symSize: 0x48 }
  - { offsetInCU: 0x14138, offset: 0x24EDE, size: 0x8, addend: 0x0, symName: __ZNSt3__14pairIPKiS2_EC1B7v160006IS2_S2_LPv0EEEOT_OT0_, symObjAddr: 0x5818, symBinAddr: 0x100009E5C, symSize: 0x3C }
  - { offsetInCU: 0x14195, offset: 0x24F3B, size: 0x8, addend: 0x0, symName: __ZNSt3__14pairIPKiS2_EC2B7v160006IS2_S2_LPv0EEEOT_OT0_, symObjAddr: 0x5854, symBinAddr: 0x100009E98, symSize: 0x34 }
  - { offsetInCU: 0x141F2, offset: 0x24F98, size: 0x8, addend: 0x0, symName: __ZNSt3__118__unwrap_iter_implIPKiLb1EE8__unwrapB7v160006ES2_, symObjAddr: 0x5888, symBinAddr: 0x100009ECC, symSize: 0x24 }
  - { offsetInCU: 0x1421E, offset: 0x24FC4, size: 0x8, addend: 0x0, symName: __ZNSt3__14pairIPKiPiEC1B7v160006IRS2_S3_LPv0EEEOT_OT0_, symObjAddr: 0x597C, symBinAddr: 0x100009FC0, symSize: 0x3C }
  - { offsetInCU: 0x1427B, offset: 0x25021, size: 0x8, addend: 0x0, symName: __ZNSt3__14pairIPKiPiEC2B7v160006IRS2_S3_LPv0EEEOT_OT0_, symObjAddr: 0x59B8, symBinAddr: 0x100009FFC, symSize: 0x34 }
  - { offsetInCU: 0x142D8, offset: 0x2507E, size: 0x8, addend: 0x0, symName: __ZNSt3__118__unwrap_iter_implIPiLb1EE8__unwrapB7v160006ES1_, symObjAddr: 0x59EC, symBinAddr: 0x10000A030, symSize: 0x24 }
  - { offsetInCU: 0x142FA, offset: 0x250A0, size: 0x8, addend: 0x0, symName: __ZNSt3__14pairIPKiPiEC1B7v160006IS2_S3_LPv0EEEOT_OT0_, symObjAddr: 0x5A10, symBinAddr: 0x10000A054, symSize: 0x3C }
  - { offsetInCU: 0x14357, offset: 0x250FD, size: 0x8, addend: 0x0, symName: __ZNSt3__14pairIPKiPiEC2B7v160006IS2_S3_LPv0EEEOT_OT0_, symObjAddr: 0x5A4C, symBinAddr: 0x10000A090, symSize: 0x34 }
  - { offsetInCU: 0x143B4, offset: 0x2515A, size: 0x8, addend: 0x0, symName: __ZNSt3__118__unwrap_iter_implIPKiLb1EE8__rewrapB7v160006ES2_S2_, symObjAddr: 0x5ABC, symBinAddr: 0x10000A100, symSize: 0x50 }
  - { offsetInCU: 0x143E4, offset: 0x2518A, size: 0x8, addend: 0x0, symName: __ZNSt3__118__unwrap_iter_implIPiLb1EE8__rewrapB7v160006ES1_S1_, symObjAddr: 0x5B0C, symBinAddr: 0x10000A150, symSize: 0x50 }
  - { offsetInCU: 0x14414, offset: 0x251BA, size: 0x8, addend: 0x0, symName: __ZNSt3__16vectorIiNS_9allocatorIiEEE21_ConstructTransactionD2B7v160006Ev, symObjAddr: 0x5B5C, symBinAddr: 0x10000A1A0, symSize: 0x20 }
  - { offsetInCU: 0x1443C, offset: 0x251E2, size: 0x8, addend: 0x0, symName: __ZNSt3__128__exception_guard_exceptionsINS_6vectorIiNS_9allocatorIiEEE16__destroy_vectorEED2B7v160006Ev, symObjAddr: 0x5B7C, symBinAddr: 0x10000A1C0, symSize: 0x50 }
  - { offsetInCU: 0x14464, offset: 0x2520A, size: 0x8, addend: 0x0, symName: __ZNSt3__16vectorIiNS_9allocatorIiEEE16__destroy_vectorclB7v160006Ev, symObjAddr: 0x5BCC, symBinAddr: 0x10000A210, symSize: 0x9C }
  - { offsetInCU: 0x14488, offset: 0x2522E, size: 0x8, addend: 0x0, symName: __ZNKSt3__16vectorIiNS_9allocatorIiEEE17__annotate_deleteB7v160006Ev, symObjAddr: 0x5C68, symBinAddr: 0x10000A2AC, symSize: 0xB8 }
  - { offsetInCU: 0x144AC, offset: 0x25252, size: 0x8, addend: 0x0, symName: __ZNSt3__16vectorIiNS_9allocatorIiEEE7__clearB7v160006Ev, symObjAddr: 0x5D30, symBinAddr: 0x10000A374, symSize: 0x28 }
  - { offsetInCU: 0x144D0, offset: 0x25276, size: 0x8, addend: 0x0, symName: __ZNSt3__116allocator_traitsINS_9allocatorIiEEE10deallocateB7v160006ERS2_Pim, symObjAddr: 0x5D58, symBinAddr: 0x10000A39C, symSize: 0x34 }
  - { offsetInCU: 0x14511, offset: 0x252B7, size: 0x8, addend: 0x0, symName: __ZNKSt3__16vectorIiNS_9allocatorIiEEE4sizeB7v160006Ev, symObjAddr: 0x5D8C, symBinAddr: 0x10000A3D0, symSize: 0x28 }
  - { offsetInCU: 0x14535, offset: 0x252DB, size: 0x8, addend: 0x0, symName: __ZNSt3__16vectorIiNS_9allocatorIiEEE22__base_destruct_at_endB7v160006EPi, symObjAddr: 0x5DB4, symBinAddr: 0x10000A3F8, symSize: 0x8C }
  - { offsetInCU: 0x14577, offset: 0x2531D, size: 0x8, addend: 0x0, symName: __ZNSt3__116allocator_traitsINS_9allocatorIiEEE7destroyB7v160006IivEEvRS2_PT_, symObjAddr: 0x5E40, symBinAddr: 0x10000A484, symSize: 0x2C }
  - { offsetInCU: 0x145B3, offset: 0x25359, size: 0x8, addend: 0x0, symName: __ZNSt3__19allocatorIiE7destroyB7v160006EPi, symObjAddr: 0x5E6C, symBinAddr: 0x10000A4B0, symSize: 0x14 }
  - { offsetInCU: 0x145E5, offset: 0x2538B, size: 0x8, addend: 0x0, symName: __ZNSt3__19allocatorIiE10deallocateB7v160006EPim, symObjAddr: 0x5E80, symBinAddr: 0x10000A4C4, symSize: 0x40 }
  - { offsetInCU: 0x14625, offset: 0x253CB, size: 0x8, addend: 0x0, symName: __ZNSt3__16vectorIiNS_9allocatorIiEEED2B7v160006Ev, symObjAddr: 0x5EC0, symBinAddr: 0x10000A504, symSize: 0x44 }
  - { offsetInCU: 0x1464D, offset: 0x253F3, size: 0x8, addend: 0x0, symName: __ZNSt3__112__hash_tableINS_17__hash_value_typeINS_12basic_stringIcNS_11char_traitsIcEENS_9allocatorIcEEEENS_6vectorIiNS5_IiEEEEEENS_22__unordered_map_hasherIS7_SB_NS_4hashIS7_EENS_8equal_toIS7_EELb1EEENS_21__unordered_map_equalIS7_SB_SG_SE_Lb1EEENS5_ISB_EEE15__insert_uniqueB7v160006EONS_4pairIKS7_SA_EE, symObjAddr: 0x5F04, symBinAddr: 0x10000A548, symSize: 0x50 }
  - { offsetInCU: 0x14680, offset: 0x25426, size: 0x8, addend: 0x0, symName: __ZNSt3__14pairINS_19__hash_map_iteratorINS_15__hash_iteratorIPNS_11__hash_nodeINS_17__hash_value_typeINS_12basic_stringIcNS_11char_traitsIcEENS_9allocatorIcEEEENS_6vectorIiNS8_IiEEEEEEPvEEEEEEbEC1B7v160006ISI_bLSF_0EEEONS0_IT_T0_EE, symObjAddr: 0x5F54, symBinAddr: 0x10000A598, symSize: 0x34 }
  - { offsetInCU: 0x146D0, offset: 0x25476, size: 0x8, addend: 0x0, symName: __ZNSt3__112__hash_tableINS_17__hash_value_typeINS_12basic_stringIcNS_11char_traitsIcEENS_9allocatorIcEEEENS_6vectorIiNS5_IiEEEEEENS_22__unordered_map_hasherIS7_SB_NS_4hashIS7_EENS_8equal_toIS7_EELb1EEENS_21__unordered_map_equalIS7_SB_SG_SE_Lb1EEENS5_ISB_EEE25__emplace_unique_key_argsIS7_JNS_4pairIKS7_SA_EEEEENSN_INS_15__hash_iteratorIPNS_11__hash_nodeISB_PvEEEEbEERKT_DpOT0_, symObjAddr: 0x5F88, symBinAddr: 0x10000A5CC, symSize: 0x4C0 }
  - { offsetInCU: 0x147AF, offset: 0x25555, size: 0x8, addend: 0x0, symName: __ZNSt3__122__hash_key_value_typesINS_17__hash_value_typeINS_12basic_stringIcNS_11char_traitsIcEENS_9allocatorIcEEEENS_6vectorIiNS5_IiEEEEEEE9__get_keyB7v160006ERKNS_4pairIKS7_SA_EE, symObjAddr: 0x6448, symBinAddr: 0x10000AA8C, symSize: 0x14 }
  - { offsetInCU: 0x147D2, offset: 0x25578, size: 0x8, addend: 0x0, symName: __ZNSt3__112__hash_tableINS_17__hash_value_typeINS_12basic_stringIcNS_11char_traitsIcEENS_9allocatorIcEEEENS_6vectorIiNS5_IiEEEEEENS_22__unordered_map_hasherIS7_SB_NS_4hashIS7_EENS_8equal_toIS7_EELb1EEENS_21__unordered_map_equalIS7_SB_SG_SE_Lb1EEENS5_ISB_EEE13hash_functionB7v160006Ev, symObjAddr: 0x645C, symBinAddr: 0x10000AAA0, symSize: 0x28 }
  - { offsetInCU: 0x147F6, offset: 0x2559C, size: 0x8, addend: 0x0, symName: __ZNKSt3__122__unordered_map_hasherINS_12basic_stringIcNS_11char_traitsIcEENS_9allocatorIcEEEENS_17__hash_value_typeIS6_NS_6vectorIiNS4_IiEEEEEENS_4hashIS6_EENS_8equal_toIS6_EELb1EEclB7v160006ERKS6_, symObjAddr: 0x6484, symBinAddr: 0x10000AAC8, symSize: 0x2C }
  - { offsetInCU: 0x14829, offset: 0x255CF, size: 0x8, addend: 0x0, symName: __ZNKSt3__112__hash_tableINS_17__hash_value_typeINS_12basic_stringIcNS_11char_traitsIcEENS_9allocatorIcEEEENS_6vectorIiNS5_IiEEEEEENS_22__unordered_map_hasherIS7_SB_NS_4hashIS7_EENS_8equal_toIS7_EELb1EEENS_21__unordered_map_equalIS7_SB_SG_SE_Lb1EEENS5_ISB_EEE12bucket_countB7v160006Ev, symObjAddr: 0x64B0, symBinAddr: 0x10000AAF4, symSize: 0x28 }
  - { offsetInCU: 0x1484D, offset: 0x255F3, size: 0x8, addend: 0x0, symName: __ZNKSt3__110unique_ptrIA_PNS_16__hash_node_baseIPNS_11__hash_nodeINS_17__hash_value_typeINS_12basic_stringIcNS_11char_traitsIcEENS_9allocatorIcEEEENS_6vectorIiNS7_IiEEEEEEPvEEEENS_25__bucket_list_deallocatorINS7_ISI_EEEEEixB7v160006Em, symObjAddr: 0x6570, symBinAddr: 0x10000ABB4, symSize: 0x34 }
  - { offsetInCU: 0x14880, offset: 0x25626, size: 0x8, addend: 0x0, symName: __ZNKSt3__116__hash_node_baseIPNS_11__hash_nodeINS_17__hash_value_typeINS_12basic_stringIcNS_11char_traitsIcEENS_9allocatorIcEEEENS_6vectorIiNS6_IiEEEEEEPvEEE6__hashB7v160006Ev, symObjAddr: 0x65A4, symBinAddr: 0x10000ABE8, symSize: 0x18 }
  - { offsetInCU: 0x148A4, offset: 0x2564A, size: 0x8, addend: 0x0, symName: __ZNSt3__112__hash_tableINS_17__hash_value_typeINS_12basic_stringIcNS_11char_traitsIcEENS_9allocatorIcEEEENS_6vectorIiNS5_IiEEEEEENS_22__unordered_map_hasherIS7_SB_NS_4hashIS7_EENS_8equal_toIS7_EELb1EEENS_21__unordered_map_equalIS7_SB_SG_SE_Lb1EEENS5_ISB_EEE6key_eqB7v160006Ev, symObjAddr: 0x65BC, symBinAddr: 0x10000AC00, symSize: 0x28 }
  - { offsetInCU: 0x148C8, offset: 0x2566E, size: 0x8, addend: 0x0, symName: __ZNKSt3__121__unordered_map_equalINS_12basic_stringIcNS_11char_traitsIcEENS_9allocatorIcEEEENS_17__hash_value_typeIS6_NS_6vectorIiNS4_IiEEEEEENS_8equal_toIS6_EENS_4hashIS6_EELb1EEclB7v160006ERKSB_RKS6_, symObjAddr: 0x65E4, symBinAddr: 0x10000AC28, symSize: 0x48 }
  - { offsetInCU: 0x1490A, offset: 0x256B0, size: 0x8, addend: 0x0, symName: __ZNSt3__112__hash_tableINS_17__hash_value_typeINS_12basic_stringIcNS_11char_traitsIcEENS_9allocatorIcEEEENS_6vectorIiNS5_IiEEEEEENS_22__unordered_map_hasherIS7_SB_NS_4hashIS7_EENS_8equal_toIS7_EELb1EEENS_21__unordered_map_equalIS7_SB_SG_SE_Lb1EEENS5_ISB_EEE21__construct_node_hashINS_4pairIKS7_SA_EEJEEENS_10unique_ptrINS_11__hash_nodeISB_PvEENS_22__hash_node_destructorINS5_IST_EEEEEEmOT_DpOT0_, symObjAddr: 0x662C, symBinAddr: 0x10000AC70, symSize: 0x140 }
  - { offsetInCU: 0x1497B, offset: 0x25721, size: 0x8, addend: 0x0, symName: __ZNSt3__112__hash_tableINS_17__hash_value_typeINS_12basic_stringIcNS_11char_traitsIcEENS_9allocatorIcEEEENS_6vectorIiNS5_IiEEEEEENS_22__unordered_map_hasherIS7_SB_NS_4hashIS7_EENS_8equal_toIS7_EELb1EEENS_21__unordered_map_equalIS7_SB_SG_SE_Lb1EEENS5_ISB_EEE4sizeB7v160006Ev, symObjAddr: 0x676C, symBinAddr: 0x10000ADB0, symSize: 0x28 }
  - { offsetInCU: 0x1499F, offset: 0x25745, size: 0x8, addend: 0x0, symName: __ZNSt3__112__hash_tableINS_17__hash_value_typeINS_12basic_stringIcNS_11char_traitsIcEENS_9allocatorIcEEEENS_6vectorIiNS5_IiEEEEEENS_22__unordered_map_hasherIS7_SB_NS_4hashIS7_EENS_8equal_toIS7_EELb1EEENS_21__unordered_map_equalIS7_SB_SG_SE_Lb1EEENS5_ISB_EEE15max_load_factorB7v160006Ev, symObjAddr: 0x6794, symBinAddr: 0x10000ADD8, symSize: 0x28 }
  - { offsetInCU: 0x149C3, offset: 0x25769, size: 0x8, addend: 0x0, symName: __ZNSt3__112__hash_tableINS_17__hash_value_typeINS_12basic_stringIcNS_11char_traitsIcEENS_9allocatorIcEEEENS_6vectorIiNS5_IiEEEEEENS_22__unordered_map_hasherIS7_SB_NS_4hashIS7_EENS_8equal_toIS7_EELb1EEENS_21__unordered_map_equalIS7_SB_SG_SE_Lb1EEENS5_ISB_EEE15__rehash_uniqueB7v160006Em, symObjAddr: 0x67BC, symBinAddr: 0x10000AE00, symSize: 0x2C }
  - { offsetInCU: 0x149F5, offset: 0x2579B, size: 0x8, addend: 0x0, symName: __Z4ceilB7v160006f, symObjAddr: 0x6864, symBinAddr: 0x10000AEA8, symSize: 0x18 }
  - { offsetInCU: 0x14A25, offset: 0x257CB, size: 0x8, addend: 0x0, symName: __ZNSt3__116__hash_node_baseIPNS_11__hash_nodeINS_17__hash_value_typeINS_12basic_stringIcNS_11char_traitsIcEENS_9allocatorIcEEEENS_6vectorIiNS6_IiEEEEEEPvEEE5__ptrB7v160006Ev, symObjAddr: 0x687C, symBinAddr: 0x10000AEC0, symSize: 0x24 }
  - { offsetInCU: 0x14A49, offset: 0x257EF, size: 0x8, addend: 0x0, symName: __ZNKSt3__110unique_ptrINS_11__hash_nodeINS_17__hash_value_typeINS_12basic_stringIcNS_11char_traitsIcEENS_9allocatorIcEEEENS_6vectorIiNS6_IiEEEEEEPvEENS_22__hash_node_destructorINS6_ISE_EEEEEptB7v160006Ev, symObjAddr: 0x68A0, symBinAddr: 0x10000AEE4, symSize: 0x28 }
  - { offsetInCU: 0x14A6D, offset: 0x25813, size: 0x8, addend: 0x0, symName: __ZNKSt3__110unique_ptrINS_11__hash_nodeINS_17__hash_value_typeINS_12basic_stringIcNS_11char_traitsIcEENS_9allocatorIcEEEENS_6vectorIiNS6_IiEEEEEEPvEENS_22__hash_node_destructorINS6_ISE_EEEEE3getB7v160006Ev, symObjAddr: 0x68C8, symBinAddr: 0x10000AF0C, symSize: 0x28 }
  - { offsetInCU: 0x14A91, offset: 0x25837, size: 0x8, addend: 0x0, symName: __ZNSt3__110unique_ptrINS_11__hash_nodeINS_17__hash_value_typeINS_12basic_stringIcNS_11char_traitsIcEENS_9allocatorIcEEEENS_6vectorIiNS6_IiEEEEEEPvEENS_22__hash_node_destructorINS6_ISE_EEEEE7releaseB7v160006Ev, symObjAddr: 0x68F0, symBinAddr: 0x10000AF34, symSize: 0x44 }
  - { offsetInCU: 0x14AC4, offset: 0x2586A, size: 0x8, addend: 0x0, symName: __ZNSt3__110unique_ptrINS_11__hash_nodeINS_17__hash_value_typeINS_12basic_stringIcNS_11char_traitsIcEENS_9allocatorIcEEEENS_6vectorIiNS6_IiEEEEEEPvEENS_22__hash_node_destructorINS6_ISE_EEEEED1B7v160006Ev, symObjAddr: 0x6934, symBinAddr: 0x10000AF78, symSize: 0x2C }
  - { offsetInCU: 0x14AEC, offset: 0x25892, size: 0x8, addend: 0x0, symName: __ZNSt3__115__hash_iteratorIPNS_11__hash_nodeINS_17__hash_value_typeINS_12basic_stringIcNS_11char_traitsIcEENS_9allocatorIcEEEENS_6vectorIiNS6_IiEEEEEEPvEEEC1B7v160006EPNS_16__hash_node_baseISF_EEPKv, symObjAddr: 0x6960, symBinAddr: 0x10000AFA4, symSize: 0x3C }
  - { offsetInCU: 0x14B37, offset: 0x258DD, size: 0x8, addend: 0x0, symName: __ZNSt3__14pairINS_15__hash_iteratorIPNS_11__hash_nodeINS_17__hash_value_typeINS_12basic_stringIcNS_11char_traitsIcEENS_9allocatorIcEEEENS_6vectorIiNS7_IiEEEEEEPvEEEEbEC1B7v160006ISH_RbLSE_0EEEOT_OT0_, symObjAddr: 0x699C, symBinAddr: 0x10000AFE0, symSize: 0x3C }
  - { offsetInCU: 0x14B94, offset: 0x2593A, size: 0x8, addend: 0x0, symName: __ZNSt3__117__compressed_pairImNS_22__unordered_map_hasherINS_12basic_stringIcNS_11char_traitsIcEENS_9allocatorIcEEEENS_17__hash_value_typeIS7_NS_6vectorIiNS5_IiEEEEEENS_4hashIS7_EENS_8equal_toIS7_EELb1EEEE6secondB7v160006Ev, symObjAddr: 0x69D8, symBinAddr: 0x10000B01C, symSize: 0x24 }
  - { offsetInCU: 0x14BB8, offset: 0x2595E, size: 0x8, addend: 0x0, symName: __ZNSt3__122__compressed_pair_elemINS_22__unordered_map_hasherINS_12basic_stringIcNS_11char_traitsIcEENS_9allocatorIcEEEENS_17__hash_value_typeIS7_NS_6vectorIiNS5_IiEEEEEENS_4hashIS7_EENS_8equal_toIS7_EELb1EEELi1ELb1EE5__getB7v160006Ev, symObjAddr: 0x69FC, symBinAddr: 0x10000B040, symSize: 0x14 }
  - { offsetInCU: 0x14BDC, offset: 0x25982, size: 0x8, addend: 0x0, symName: __ZNKSt3__113__string_hashIcNS_9allocatorIcEEEclERKNS_12basic_stringIcNS_11char_traitsIcEES2_EE, symObjAddr: 0x6A10, symBinAddr: 0x10000B054, symSize: 0x64 }
  - { offsetInCU: 0x14C0F, offset: 0x259B5, size: 0x8, addend: 0x0, symName: __ZNSt3__121__murmur2_or_cityhashImLm64EEclEPKvm, symObjAddr: 0x6AB0, symBinAddr: 0x10000B0F4, symSize: 0x410 }
  - { offsetInCU: 0x14CA9, offset: 0x25A4F, size: 0x8, addend: 0x0, symName: __ZNSt3__121__murmur2_or_cityhashImLm64EE18__hash_len_0_to_16EPKcm, symObjAddr: 0x6EC0, symBinAddr: 0x10000B504, symSize: 0x1C0 }
  - { offsetInCU: 0x14D84, offset: 0x25B2A, size: 0x8, addend: 0x0, symName: __ZNSt3__121__murmur2_or_cityhashImLm64EE19__hash_len_17_to_32EPKcm, symObjAddr: 0x7080, symBinAddr: 0x10000B6C4, symSize: 0x130 }
  - { offsetInCU: 0x14DEC, offset: 0x25B92, size: 0x8, addend: 0x0, symName: __ZNSt3__121__murmur2_or_cityhashImLm64EE19__hash_len_33_to_64EPKcm, symObjAddr: 0x71B0, symBinAddr: 0x10000B7F4, symSize: 0x2B8 }
  - { offsetInCU: 0x14E9D, offset: 0x25C43, size: 0x8, addend: 0x0, symName: __ZNSt3__121__murmur2_or_cityhashImLm64EE13__hash_len_16Emm, symObjAddr: 0x7488, symBinAddr: 0x10000BACC, symSize: 0x80 }
  - { offsetInCU: 0x14EF8, offset: 0x25C9E, size: 0x8, addend: 0x0, symName: __ZNSt3__121__murmur2_or_cityhashImLm64EE29__weak_hash_len_32_with_seedsEPKcmm, symObjAddr: 0x7508, symBinAddr: 0x10000BB4C, symSize: 0x88 }
  - { offsetInCU: 0x14F36, offset: 0x25CDC, size: 0x8, addend: 0x0, symName: __ZNSt3__121__murmur2_or_cityhashImLm64EE8__rotateEmi, symObjAddr: 0x7590, symBinAddr: 0x10000BBD4, symSize: 0x64 }
  - { offsetInCU: 0x14F67, offset: 0x25D0D, size: 0x8, addend: 0x0, symName: __ZNSt3__14pairImmEaSB7v160006EOS1_, symObjAddr: 0x75F4, symBinAddr: 0x10000BC38, symSize: 0x30 }
  - { offsetInCU: 0x14F9A, offset: 0x25D40, size: 0x8, addend: 0x0, symName: __ZNSt3__121__murmur2_or_cityhashImLm64EE11__shift_mixEm, symObjAddr: 0x7660, symBinAddr: 0x10000BCA4, symSize: 0x1C }
  - { offsetInCU: 0x14FBD, offset: 0x25D63, size: 0x8, addend: 0x0, symName: __ZNSt3__121__murmur2_or_cityhashImLm64EE22__rotate_by_at_least_1Emi, symObjAddr: 0x767C, symBinAddr: 0x10000BCC0, symSize: 0x38 }
  - { offsetInCU: 0x14FEE, offset: 0x25D94, size: 0x8, addend: 0x0, symName: __ZNSt3__121__murmur2_or_cityhashImLm64EE29__weak_hash_len_32_with_seedsEmmmmmm, symObjAddr: 0x76D4, symBinAddr: 0x10000BD18, symSize: 0xD8 }
  - { offsetInCU: 0x15069, offset: 0x25E0F, size: 0x8, addend: 0x0, symName: __ZNSt3__14pairImmEC1B7v160006ImmLPv0EEEOT_OT0_, symObjAddr: 0x77AC, symBinAddr: 0x10000BDF0, symSize: 0x3C }
  - { offsetInCU: 0x150C6, offset: 0x25E6C, size: 0x8, addend: 0x0, symName: __ZNSt3__14pairImmEC2B7v160006ImmLPv0EEEOT_OT0_, symObjAddr: 0x77E8, symBinAddr: 0x10000BE2C, symSize: 0x34 }
  - { offsetInCU: 0x15123, offset: 0x25EC9, size: 0x8, addend: 0x0, symName: __ZNKSt3__110unique_ptrIA_PNS_16__hash_node_baseIPNS_11__hash_nodeINS_17__hash_value_typeINS_12basic_stringIcNS_11char_traitsIcEENS_9allocatorIcEEEENS_6vectorIiNS7_IiEEEEEEPvEEEENS_25__bucket_list_deallocatorINS7_ISI_EEEEE11get_deleterB7v160006Ev, symObjAddr: 0x781C, symBinAddr: 0x10000BE60, symSize: 0x24 }
  - { offsetInCU: 0x15147, offset: 0x25EED, size: 0x8, addend: 0x0, symName: __ZNKSt3__125__bucket_list_deallocatorINS_9allocatorIPNS_16__hash_node_baseIPNS_11__hash_nodeINS_17__hash_value_typeINS_12basic_stringIcNS_11char_traitsIcEENS1_IcEEEENS_6vectorIiNS1_IiEEEEEEPvEEEEEEE4sizeB7v160006Ev, symObjAddr: 0x7840, symBinAddr: 0x10000BE84, symSize: 0x28 }
  - { offsetInCU: 0x1516B, offset: 0x25F11, size: 0x8, addend: 0x0, symName: __ZNKSt3__117__compressed_pairIPPNS_16__hash_node_baseIPNS_11__hash_nodeINS_17__hash_value_typeINS_12basic_stringIcNS_11char_traitsIcEENS_9allocatorIcEEEENS_6vectorIiNS7_IiEEEEEEPvEEEENS_25__bucket_list_deallocatorINS7_ISI_EEEEE6secondB7v160006Ev, symObjAddr: 0x7868, symBinAddr: 0x10000BEAC, symSize: 0x28 }
  - { offsetInCU: 0x1518F, offset: 0x25F35, size: 0x8, addend: 0x0, symName: __ZNKSt3__122__compressed_pair_elemINS_25__bucket_list_deallocatorINS_9allocatorIPNS_16__hash_node_baseIPNS_11__hash_nodeINS_17__hash_value_typeINS_12basic_stringIcNS_11char_traitsIcEENS2_IcEEEENS_6vectorIiNS2_IiEEEEEEPvEEEEEEEELi1ELb0EE5__getB7v160006Ev, symObjAddr: 0x7890, symBinAddr: 0x10000BED4, symSize: 0x14 }
  - { offsetInCU: 0x151B3, offset: 0x25F59, size: 0x8, addend: 0x0, symName: __ZNKSt3__117__compressed_pairImNS_9allocatorIPNS_16__hash_node_baseIPNS_11__hash_nodeINS_17__hash_value_typeINS_12basic_stringIcNS_11char_traitsIcEENS1_IcEEEENS_6vectorIiNS1_IiEEEEEEPvEEEEEEE5firstB7v160006Ev, symObjAddr: 0x78A4, symBinAddr: 0x10000BEE8, symSize: 0x24 }
  - { offsetInCU: 0x151D7, offset: 0x25F7D, size: 0x8, addend: 0x0, symName: __ZNKSt3__122__compressed_pair_elemImLi0ELb0EE5__getB7v160006Ev, symObjAddr: 0x78C8, symBinAddr: 0x10000BF0C, symSize: 0x14 }
  - { offsetInCU: 0x151FB, offset: 0x25FA1, size: 0x8, addend: 0x0, symName: __ZNKSt3__117__compressed_pairIPPNS_16__hash_node_baseIPNS_11__hash_nodeINS_17__hash_value_typeINS_12basic_stringIcNS_11char_traitsIcEENS_9allocatorIcEEEENS_6vectorIiNS7_IiEEEEEEPvEEEENS_25__bucket_list_deallocatorINS7_ISI_EEEEE5firstB7v160006Ev, symObjAddr: 0x78DC, symBinAddr: 0x10000BF20, symSize: 0x24 }
  - { offsetInCU: 0x1521F, offset: 0x25FC5, size: 0x8, addend: 0x0, symName: __ZNKSt3__122__compressed_pair_elemIPPNS_16__hash_node_baseIPNS_11__hash_nodeINS_17__hash_value_typeINS_12basic_stringIcNS_11char_traitsIcEENS_9allocatorIcEEEENS_6vectorIiNS7_IiEEEEEEPvEEEELi0ELb0EE5__getB7v160006Ev, symObjAddr: 0x7900, symBinAddr: 0x10000BF44, symSize: 0x14 }
  - { offsetInCU: 0x15243, offset: 0x25FE9, size: 0x8, addend: 0x0, symName: __ZNSt3__117__compressed_pairIfNS_21__unordered_map_equalINS_12basic_stringIcNS_11char_traitsIcEENS_9allocatorIcEEEENS_17__hash_value_typeIS7_NS_6vectorIiNS5_IiEEEEEENS_8equal_toIS7_EENS_4hashIS7_EELb1EEEE6secondB7v160006Ev, symObjAddr: 0x7914, symBinAddr: 0x10000BF58, symSize: 0x24 }
  - { offsetInCU: 0x15267, offset: 0x2600D, size: 0x8, addend: 0x0, symName: __ZNSt3__122__compressed_pair_elemINS_21__unordered_map_equalINS_12basic_stringIcNS_11char_traitsIcEENS_9allocatorIcEEEENS_17__hash_value_typeIS7_NS_6vectorIiNS5_IiEEEEEENS_8equal_toIS7_EENS_4hashIS7_EELb1EEELi1ELb1EE5__getB7v160006Ev, symObjAddr: 0x7938, symBinAddr: 0x10000BF7C, symSize: 0x14 }
  - { offsetInCU: 0x1528B, offset: 0x26031, size: 0x8, addend: 0x0, symName: __ZNKSt3__18equal_toINS_12basic_stringIcNS_11char_traitsIcEENS_9allocatorIcEEEEEclB7v160006ERKS6_S9_, symObjAddr: 0x794C, symBinAddr: 0x10000BF90, symSize: 0x34 }
  - { offsetInCU: 0x152CD, offset: 0x26073, size: 0x8, addend: 0x0, symName: __ZNKSt3__117__hash_value_typeINS_12basic_stringIcNS_11char_traitsIcEENS_9allocatorIcEEEENS_6vectorIiNS4_IiEEEEE11__get_valueB7v160006Ev, symObjAddr: 0x7980, symBinAddr: 0x10000BFC4, symSize: 0x14 }
  - { offsetInCU: 0x152F1, offset: 0x26097, size: 0x8, addend: 0x0, symName: __ZNSt3__111char_traitsIcE7compareEPKcS3_m, symObjAddr: 0x7ADC, symBinAddr: 0x10000C120, symSize: 0x6C }
  - { offsetInCU: 0x1532F, offset: 0x260D5, size: 0x8, addend: 0x0, symName: __ZNSt3__116allocator_traitsINS_9allocatorINS_11__hash_nodeINS_17__hash_value_typeINS_12basic_stringIcNS_11char_traitsIcEENS1_IcEEEENS_6vectorIiNS1_IiEEEEEEPvEEEEE8allocateB7v160006ERSF_m, symObjAddr: 0x7B7C, symBinAddr: 0x10000C1C0, symSize: 0x2C }
  - { offsetInCU: 0x15361, offset: 0x26107, size: 0x8, addend: 0x0, symName: __ZNSt3__122__hash_node_destructorINS_9allocatorINS_11__hash_nodeINS_17__hash_value_typeINS_12basic_stringIcNS_11char_traitsIcEENS1_IcEEEENS_6vectorIiNS1_IiEEEEEEPvEEEEEC1B7v160006ERSF_b, symObjAddr: 0x7BA8, symBinAddr: 0x10000C1EC, symSize: 0x48 }
  - { offsetInCU: 0x153AC, offset: 0x26152, size: 0x8, addend: 0x0, symName: __ZNSt3__110unique_ptrINS_11__hash_nodeINS_17__hash_value_typeINS_12basic_stringIcNS_11char_traitsIcEENS_9allocatorIcEEEENS_6vectorIiNS6_IiEEEEEEPvEENS_22__hash_node_destructorINS6_ISE_EEEEEC1B7v160006ILb1EvEEPSE_NS_16__dependent_typeINS_27__unique_ptr_deleter_sfinaeISH_EEXT_EE20__good_rval_ref_typeE, symObjAddr: 0x7BF0, symBinAddr: 0x10000C234, symSize: 0x3C }
  - { offsetInCU: 0x153FB, offset: 0x261A1, size: 0x8, addend: 0x0, symName: __ZNSt3__116allocator_traitsINS_9allocatorINS_11__hash_nodeINS_17__hash_value_typeINS_12basic_stringIcNS_11char_traitsIcEENS1_IcEEEENS_6vectorIiNS1_IiEEEEEEPvEEEEE9constructB7v160006INS_4pairIKS8_SB_EEJSK_EvEEvRSF_PT_DpOT0_, symObjAddr: 0x7C2C, symBinAddr: 0x10000C270, symSize: 0x34 }
  - { offsetInCU: 0x15451, offset: 0x261F7, size: 0x8, addend: 0x0, symName: __ZNSt3__110unique_ptrINS_11__hash_nodeINS_17__hash_value_typeINS_12basic_stringIcNS_11char_traitsIcEENS_9allocatorIcEEEENS_6vectorIiNS6_IiEEEEEEPvEENS_22__hash_node_destructorINS6_ISE_EEEEE11get_deleterB7v160006Ev, symObjAddr: 0x7C60, symBinAddr: 0x10000C2A4, symSize: 0x24 }
  - { offsetInCU: 0x15475, offset: 0x2621B, size: 0x8, addend: 0x0, symName: __ZNSt3__19allocatorINS_11__hash_nodeINS_17__hash_value_typeINS_12basic_stringIcNS_11char_traitsIcEENS0_IcEEEENS_6vectorIiNS0_IiEEEEEEPvEEE8allocateB7v160006Em, symObjAddr: 0x7C84, symBinAddr: 0x10000C2C8, symSize: 0x58 }
  - { offsetInCU: 0x154B1, offset: 0x26257, size: 0x8, addend: 0x0, symName: __ZNSt3__116allocator_traitsINS_9allocatorINS_11__hash_nodeINS_17__hash_value_typeINS_12basic_stringIcNS_11char_traitsIcEENS1_IcEEEENS_6vectorIiNS1_IiEEEEEEPvEEEEE8max_sizeB7v160006ISF_vEEmRKSF_, symObjAddr: 0x7CDC, symBinAddr: 0x10000C320, symSize: 0x24 }
  - { offsetInCU: 0x154DE, offset: 0x26284, size: 0x8, addend: 0x0, symName: __ZNKSt3__19allocatorINS_11__hash_nodeINS_17__hash_value_typeINS_12basic_stringIcNS_11char_traitsIcEENS0_IcEEEENS_6vectorIiNS0_IiEEEEEEPvEEE8max_sizeB7v160006Ev, symObjAddr: 0x7D00, symBinAddr: 0x10000C344, symSize: 0x14 }
  - { offsetInCU: 0x15502, offset: 0x262A8, size: 0x8, addend: 0x0, symName: __ZNSt3__122__hash_node_destructorINS_9allocatorINS_11__hash_nodeINS_17__hash_value_typeINS_12basic_stringIcNS_11char_traitsIcEENS1_IcEEEENS_6vectorIiNS1_IiEEEEEEPvEEEEEC2B7v160006ERSF_b, symObjAddr: 0x7D14, symBinAddr: 0x10000C358, symSize: 0x38 }
  - { offsetInCU: 0x15548, offset: 0x262EE, size: 0x8, addend: 0x0, symName: __ZNSt3__110unique_ptrINS_11__hash_nodeINS_17__hash_value_typeINS_12basic_stringIcNS_11char_traitsIcEENS_9allocatorIcEEEENS_6vectorIiNS6_IiEEEEEEPvEENS_22__hash_node_destructorINS6_ISE_EEEEEC2B7v160006ILb1EvEEPSE_NS_16__dependent_typeINS_27__unique_ptr_deleter_sfinaeISH_EEXT_EE20__good_rval_ref_typeE, symObjAddr: 0x7D4C, symBinAddr: 0x10000C390, symSize: 0x48 }
  - { offsetInCU: 0x15597, offset: 0x2633D, size: 0x8, addend: 0x0, symName: __ZNSt3__117__compressed_pairIPNS_11__hash_nodeINS_17__hash_value_typeINS_12basic_stringIcNS_11char_traitsIcEENS_9allocatorIcEEEENS_6vectorIiNS6_IiEEEEEEPvEENS_22__hash_node_destructorINS6_ISE_EEEEEC1B7v160006IRSF_SI_EEOT_OT0_, symObjAddr: 0x7D94, symBinAddr: 0x10000C3D8, symSize: 0x3C }
  - { offsetInCU: 0x155ED, offset: 0x26393, size: 0x8, addend: 0x0, symName: __ZNSt3__117__compressed_pairIPNS_11__hash_nodeINS_17__hash_value_typeINS_12basic_stringIcNS_11char_traitsIcEENS_9allocatorIcEEEENS_6vectorIiNS6_IiEEEEEEPvEENS_22__hash_node_destructorINS6_ISE_EEEEEC2B7v160006IRSF_SI_EEOT_OT0_, symObjAddr: 0x7DD0, symBinAddr: 0x10000C414, symSize: 0x48 }
  - { offsetInCU: 0x15643, offset: 0x263E9, size: 0x8, addend: 0x0, symName: __ZNSt3__122__compressed_pair_elemIPNS_11__hash_nodeINS_17__hash_value_typeINS_12basic_stringIcNS_11char_traitsIcEENS_9allocatorIcEEEENS_6vectorIiNS6_IiEEEEEEPvEELi0ELb0EEC2B7v160006IRSF_vEEOT_, symObjAddr: 0x7E18, symBinAddr: 0x10000C45C, symSize: 0x24 }
  - { offsetInCU: 0x15683, offset: 0x26429, size: 0x8, addend: 0x0, symName: __ZNSt3__122__compressed_pair_elemINS_22__hash_node_destructorINS_9allocatorINS_11__hash_nodeINS_17__hash_value_typeINS_12basic_stringIcNS_11char_traitsIcEENS2_IcEEEENS_6vectorIiNS2_IiEEEEEEPvEEEEEELi1ELb0EEC2B7v160006ISH_vEEOT_, symObjAddr: 0x7E3C, symBinAddr: 0x10000C480, symSize: 0x24 }
  - { offsetInCU: 0x156C3, offset: 0x26469, size: 0x8, addend: 0x0, symName: __ZNSt3__19allocatorINS_11__hash_nodeINS_17__hash_value_typeINS_12basic_stringIcNS_11char_traitsIcEENS0_IcEEEENS_6vectorIiNS0_IiEEEEEEPvEEE9constructB7v160006INS_4pairIKS7_SA_EEJSI_EEEvPT_DpOT0_, symObjAddr: 0x7E60, symBinAddr: 0x10000C4A4, symSize: 0x30 }
  - { offsetInCU: 0x15717, offset: 0x264BD, size: 0x8, addend: 0x0, symName: __ZNSt3__14pairIKNS_12basic_stringIcNS_11char_traitsIcEENS_9allocatorIcEEEENS_6vectorIiNS4_IiEEEEEC1EOSB_, symObjAddr: 0x7E90, symBinAddr: 0x10000C4D4, symSize: 0x34 }
  - { offsetInCU: 0x15749, offset: 0x264EF, size: 0x8, addend: 0x0, symName: __ZNSt3__14pairIKNS_12basic_stringIcNS_11char_traitsIcEENS_9allocatorIcEEEENS_6vectorIiNS4_IiEEEEEC2EOSB_, symObjAddr: 0x7EC4, symBinAddr: 0x10000C508, symSize: 0x48 }
  - { offsetInCU: 0x1577B, offset: 0x26521, size: 0x8, addend: 0x0, symName: __ZNSt3__16vectorIiNS_9allocatorIiEEEC1B7v160006EOS3_, symObjAddr: 0x7F0C, symBinAddr: 0x10000C550, symSize: 0x34 }
  - { offsetInCU: 0x157B5, offset: 0x2655B, size: 0x8, addend: 0x0, symName: __ZNSt3__16vectorIiNS_9allocatorIiEEEC2B7v160006EOS3_, symObjAddr: 0x7F40, symBinAddr: 0x10000C584, symSize: 0xDC }
  - { offsetInCU: 0x157F4, offset: 0x2659A, size: 0x8, addend: 0x0, symName: __ZNSt3__117__compressed_pairIPiNS_9allocatorIiEEEC1B7v160006IDnS3_EEOT_OT0_, symObjAddr: 0x801C, symBinAddr: 0x10000C660, symSize: 0x3C }
  - { offsetInCU: 0x1584A, offset: 0x265F0, size: 0x8, addend: 0x0, symName: __ZNSt3__117__compressed_pairIPiNS_9allocatorIiEEEC2B7v160006IDnS3_EEOT_OT0_, symObjAddr: 0x806C, symBinAddr: 0x10000C6B0, symSize: 0x44 }
  - { offsetInCU: 0x158A0, offset: 0x26646, size: 0x8, addend: 0x0, symName: __ZNSt3__122__compressed_pair_elemINS_9allocatorIiEELi1ELb1EEC2B7v160006IS2_vEEOT_, symObjAddr: 0x80B0, symBinAddr: 0x10000C6F4, symSize: 0x18 }
  - { offsetInCU: 0x158E0, offset: 0x26686, size: 0x8, addend: 0x0, symName: __ZNSt3__117__compressed_pairIPNS_11__hash_nodeINS_17__hash_value_typeINS_12basic_stringIcNS_11char_traitsIcEENS_9allocatorIcEEEENS_6vectorIiNS6_IiEEEEEEPvEENS_22__hash_node_destructorINS6_ISE_EEEEE6secondB7v160006Ev, symObjAddr: 0x80C8, symBinAddr: 0x10000C70C, symSize: 0x28 }
  - { offsetInCU: 0x15904, offset: 0x266AA, size: 0x8, addend: 0x0, symName: __ZNSt3__122__compressed_pair_elemINS_22__hash_node_destructorINS_9allocatorINS_11__hash_nodeINS_17__hash_value_typeINS_12basic_stringIcNS_11char_traitsIcEENS2_IcEEEENS_6vectorIiNS2_IiEEEEEEPvEEEEEELi1ELb0EE5__getB7v160006Ev, symObjAddr: 0x80F0, symBinAddr: 0x10000C734, symSize: 0x14 }
  - { offsetInCU: 0x15928, offset: 0x266CE, size: 0x8, addend: 0x0, symName: __ZNSt3__117__compressed_pairImNS_22__unordered_map_hasherINS_12basic_stringIcNS_11char_traitsIcEENS_9allocatorIcEEEENS_17__hash_value_typeIS7_NS_6vectorIiNS5_IiEEEEEENS_4hashIS7_EENS_8equal_toIS7_EELb1EEEE5firstB7v160006Ev, symObjAddr: 0x8104, symBinAddr: 0x10000C748, symSize: 0x24 }
  - { offsetInCU: 0x1594C, offset: 0x266F2, size: 0x8, addend: 0x0, symName: __ZNSt3__117__compressed_pairIfNS_21__unordered_map_equalINS_12basic_stringIcNS_11char_traitsIcEENS_9allocatorIcEEEENS_17__hash_value_typeIS7_NS_6vectorIiNS5_IiEEEEEENS_8equal_toIS7_EENS_4hashIS7_EELb1EEEE5firstB7v160006Ev, symObjAddr: 0x8128, symBinAddr: 0x10000C76C, symSize: 0x24 }
  - { offsetInCU: 0x15970, offset: 0x26716, size: 0x8, addend: 0x0, symName: __ZNSt3__122__compressed_pair_elemIfLi0ELb0EE5__getB7v160006Ev, symObjAddr: 0x814C, symBinAddr: 0x10000C790, symSize: 0x14 }
  - { offsetInCU: 0x15994, offset: 0x2673A, size: 0x8, addend: 0x0, symName: __ZNSt3__112__hash_tableINS_17__hash_value_typeINS_12basic_stringIcNS_11char_traitsIcEENS_9allocatorIcEEEENS_6vectorIiNS5_IiEEEEEENS_22__unordered_map_hasherIS7_SB_NS_4hashIS7_EENS_8equal_toIS7_EELb1EEENS_21__unordered_map_equalIS7_SB_SG_SE_Lb1EEENS5_ISB_EEE8__rehashILb1EEEvm, symObjAddr: 0x8160, symBinAddr: 0x10000C7A4, symSize: 0x1A8 }
  - { offsetInCU: 0x159E2, offset: 0x26788, size: 0x8, addend: 0x0, symName: __ZNSt3__112__hash_tableINS_17__hash_value_typeINS_12basic_stringIcNS_11char_traitsIcEENS_9allocatorIcEEEENS_6vectorIiNS5_IiEEEEEENS_22__unordered_map_hasherIS7_SB_NS_4hashIS7_EENS_8equal_toIS7_EELb1EEENS_21__unordered_map_equalIS7_SB_SG_SE_Lb1EEENS5_ISB_EEE11__do_rehashILb1EEEvm, symObjAddr: 0x8308, symBinAddr: 0x10000C94C, symSize: 0x290 }
  - { offsetInCU: 0x15AC7, offset: 0x2686D, size: 0x8, addend: 0x0, symName: __ZNSt3__110unique_ptrIA_PNS_16__hash_node_baseIPNS_11__hash_nodeINS_17__hash_value_typeINS_12basic_stringIcNS_11char_traitsIcEENS_9allocatorIcEEEENS_6vectorIiNS7_IiEEEEEEPvEEEENS_25__bucket_list_deallocatorINS7_ISI_EEEEE11get_deleterB7v160006Ev, symObjAddr: 0x8614, symBinAddr: 0x10000CC58, symSize: 0x24 }
  - { offsetInCU: 0x15AEB, offset: 0x26891, size: 0x8, addend: 0x0, symName: __ZNSt3__110unique_ptrIA_PNS_16__hash_node_baseIPNS_11__hash_nodeINS_17__hash_value_typeINS_12basic_stringIcNS_11char_traitsIcEENS_9allocatorIcEEEENS_6vectorIiNS7_IiEEEEEEPvEEEENS_25__bucket_list_deallocatorINS7_ISI_EEEEE5resetB7v160006IPSI_EENS_9enable_ifIXsr28_CheckArrayPointerConversionIT_EE5valueEvE4typeESR_, symObjAddr: 0x8638, symBinAddr: 0x10000CC7C, symSize: 0x78 }
  - { offsetInCU: 0x15B36, offset: 0x268DC, size: 0x8, addend: 0x0, symName: __ZNSt3__116allocator_traitsINS_9allocatorIPNS_16__hash_node_baseIPNS_11__hash_nodeINS_17__hash_value_typeINS_12basic_stringIcNS_11char_traitsIcEENS1_IcEEEENS_6vectorIiNS1_IiEEEEEEPvEEEEEEE8allocateB7v160006ERSJ_m, symObjAddr: 0x86B0, symBinAddr: 0x10000CCF4, symSize: 0x2C }
  - { offsetInCU: 0x15B68, offset: 0x2690E, size: 0x8, addend: 0x0, symName: __ZNSt3__19allocatorIPNS_16__hash_node_baseIPNS_11__hash_nodeINS_17__hash_value_typeINS_12basic_stringIcNS_11char_traitsIcEENS0_IcEEEENS_6vectorIiNS0_IiEEEEEEPvEEEEE8allocateB7v160006Em, symObjAddr: 0x86DC, symBinAddr: 0x10000CD20, symSize: 0x58 }
  - { offsetInCU: 0x15BA4, offset: 0x2694A, size: 0x8, addend: 0x0, symName: __ZNSt3__116allocator_traitsINS_9allocatorIPNS_16__hash_node_baseIPNS_11__hash_nodeINS_17__hash_value_typeINS_12basic_stringIcNS_11char_traitsIcEENS1_IcEEEENS_6vectorIiNS1_IiEEEEEEPvEEEEEEE8max_sizeB7v160006ISJ_vEEmRKSJ_, symObjAddr: 0x8734, symBinAddr: 0x10000CD78, symSize: 0x24 }
  - { offsetInCU: 0x15BD1, offset: 0x26977, size: 0x8, addend: 0x0, symName: __ZNKSt3__19allocatorIPNS_16__hash_node_baseIPNS_11__hash_nodeINS_17__hash_value_typeINS_12basic_stringIcNS_11char_traitsIcEENS0_IcEEEENS_6vectorIiNS0_IiEEEEEEPvEEEEE8max_sizeB7v160006Ev, symObjAddr: 0x8758, symBinAddr: 0x10000CD9C, symSize: 0x14 }
  - { offsetInCU: 0x15BF5, offset: 0x2699B, size: 0x8, addend: 0x0, symName: __ZNKSt3__117__compressed_pairIPNS_11__hash_nodeINS_17__hash_value_typeINS_12basic_stringIcNS_11char_traitsIcEENS_9allocatorIcEEEENS_6vectorIiNS6_IiEEEEEEPvEENS_22__hash_node_destructorINS6_ISE_EEEEE5firstB7v160006Ev, symObjAddr: 0x87DC, symBinAddr: 0x10000CE20, symSize: 0x24 }
  - { offsetInCU: 0x15C19, offset: 0x269BF, size: 0x8, addend: 0x0, symName: __ZNKSt3__122__compressed_pair_elemIPNS_11__hash_nodeINS_17__hash_value_typeINS_12basic_stringIcNS_11char_traitsIcEENS_9allocatorIcEEEENS_6vectorIiNS6_IiEEEEEEPvEELi0ELb0EE5__getB7v160006Ev, symObjAddr: 0x8800, symBinAddr: 0x10000CE44, symSize: 0x14 }
  - { offsetInCU: 0x15C3D, offset: 0x269E3, size: 0x8, addend: 0x0, symName: __ZNSt3__117__compressed_pairIPNS_11__hash_nodeINS_17__hash_value_typeINS_12basic_stringIcNS_11char_traitsIcEENS_9allocatorIcEEEENS_6vectorIiNS6_IiEEEEEEPvEENS_22__hash_node_destructorINS6_ISE_EEEEE5firstB7v160006Ev, symObjAddr: 0x8814, symBinAddr: 0x10000CE58, symSize: 0x24 }
  - { offsetInCU: 0x15C61, offset: 0x26A07, size: 0x8, addend: 0x0, symName: __ZNSt3__122__compressed_pair_elemIPNS_11__hash_nodeINS_17__hash_value_typeINS_12basic_stringIcNS_11char_traitsIcEENS_9allocatorIcEEEENS_6vectorIiNS6_IiEEEEEEPvEELi0ELb0EE5__getB7v160006Ev, symObjAddr: 0x8838, symBinAddr: 0x10000CE7C, symSize: 0x14 }
  - { offsetInCU: 0x15C85, offset: 0x26A2B, size: 0x8, addend: 0x0, symName: __ZNSt3__110unique_ptrINS_11__hash_nodeINS_17__hash_value_typeINS_12basic_stringIcNS_11char_traitsIcEENS_9allocatorIcEEEENS_6vectorIiNS6_IiEEEEEEPvEENS_22__hash_node_destructorINS6_ISE_EEEEED2B7v160006Ev, symObjAddr: 0x884C, symBinAddr: 0x10000CE90, symSize: 0x30 }
  - { offsetInCU: 0x15CAD, offset: 0x26A53, size: 0x8, addend: 0x0, symName: __ZNSt3__110unique_ptrINS_11__hash_nodeINS_17__hash_value_typeINS_12basic_stringIcNS_11char_traitsIcEENS_9allocatorIcEEEENS_6vectorIiNS6_IiEEEEEEPvEENS_22__hash_node_destructorINS6_ISE_EEEEE5resetB7v160006EPSE_, symObjAddr: 0x887C, symBinAddr: 0x10000CEC0, symSize: 0x78 }
  - { offsetInCU: 0x15CEF, offset: 0x26A95, size: 0x8, addend: 0x0, symName: __ZNSt3__122__hash_node_destructorINS_9allocatorINS_11__hash_nodeINS_17__hash_value_typeINS_12basic_stringIcNS_11char_traitsIcEENS1_IcEEEENS_6vectorIiNS1_IiEEEEEEPvEEEEEclB7v160006EPSE_, symObjAddr: 0x88F4, symBinAddr: 0x10000CF38, symSize: 0x94 }
  - { offsetInCU: 0x15D22, offset: 0x26AC8, size: 0x8, addend: 0x0, symName: __ZNSt3__115__hash_iteratorIPNS_11__hash_nodeINS_17__hash_value_typeINS_12basic_stringIcNS_11char_traitsIcEENS_9allocatorIcEEEENS_6vectorIiNS6_IiEEEEEEPvEEEC2B7v160006EPNS_16__hash_node_baseISF_EEPKv, symObjAddr: 0x8988, symBinAddr: 0x10000CFCC, symSize: 0x24 }
  - { offsetInCU: 0x15D68, offset: 0x26B0E, size: 0x8, addend: 0x0, symName: __ZNSt3__14pairINS_15__hash_iteratorIPNS_11__hash_nodeINS_17__hash_value_typeINS_12basic_stringIcNS_11char_traitsIcEENS_9allocatorIcEEEENS_6vectorIiNS7_IiEEEEEEPvEEEEbEC2B7v160006ISH_RbLSE_0EEEOT_OT0_, symObjAddr: 0x89AC, symBinAddr: 0x10000CFF0, symSize: 0x38 }
  - { offsetInCU: 0x15DC5, offset: 0x26B6B, size: 0x8, addend: 0x0, symName: __ZNSt3__14pairINS_19__hash_map_iteratorINS_15__hash_iteratorIPNS_11__hash_nodeINS_17__hash_value_typeINS_12basic_stringIcNS_11char_traitsIcEENS_9allocatorIcEEEENS_6vectorIiNS8_IiEEEEEEPvEEEEEEbEC2B7v160006ISI_bLSF_0EEEONS0_IT_T0_EE, symObjAddr: 0x89E4, symBinAddr: 0x10000D028, symSize: 0x50 }
  - { offsetInCU: 0x15E15, offset: 0x26BBB, size: 0x8, addend: 0x0, symName: __ZNSt3__119__hash_map_iteratorINS_15__hash_iteratorIPNS_11__hash_nodeINS_17__hash_value_typeINS_12basic_stringIcNS_11char_traitsIcEENS_9allocatorIcEEEENS_6vectorIiNS7_IiEEEEEEPvEEEEEC1B7v160006ESH_, symObjAddr: 0x8A34, symBinAddr: 0x10000D078, symSize: 0x34 }
  - { offsetInCU: 0x15E4C, offset: 0x26BF2, size: 0x8, addend: 0x0, symName: __ZNSt3__119__hash_map_iteratorINS_15__hash_iteratorIPNS_11__hash_nodeINS_17__hash_value_typeINS_12basic_stringIcNS_11char_traitsIcEENS_9allocatorIcEEEENS_6vectorIiNS7_IiEEEEEEPvEEEEEC2B7v160006ESH_, symObjAddr: 0x8A68, symBinAddr: 0x10000D0AC, symSize: 0x20 }
  - { offsetInCU: 0x15E83, offset: 0x26C29, size: 0x8, addend: 0x0, symName: __ZNSt3__14pairIKNS_12basic_stringIcNS_11char_traitsIcEENS_9allocatorIcEEEENS_6vectorIiNS4_IiEEEEEC2B7v160006IRS6_SA_LPv0EEEOT_OT0_, symObjAddr: 0x8A88, symBinAddr: 0x10000D0CC, symSize: 0x48 }
  - { offsetInCU: 0x15EE0, offset: 0x26C86, size: 0x8, addend: 0x0, symName: __ZNSt3__112__hash_tableINS_17__hash_value_typeINS_12basic_stringIcNS_11char_traitsIcEENS_9allocatorIcEEEENS_6vectorIiNS5_IiEEEEEENS_22__unordered_map_hasherIS7_SB_NS_4hashIS7_EENS_8equal_toIS7_EELb1EEENS_21__unordered_map_equalIS7_SB_SG_SE_Lb1EEENS5_ISB_EEE5beginEv, symObjAddr: 0x8AD0, symBinAddr: 0x10000D114, symSize: 0x40 }
  - { offsetInCU: 0x15F06, offset: 0x26CAC, size: 0x8, addend: 0x0, symName: __ZNSt3__112__hash_tableINS_17__hash_value_typeINS_12basic_stringIcNS_11char_traitsIcEENS_9allocatorIcEEEENS_6vectorIiNS5_IiEEEEEENS_22__unordered_map_hasherIS7_SB_NS_4hashIS7_EENS_8equal_toIS7_EELb1EEENS_21__unordered_map_equalIS7_SB_SG_SE_Lb1EEENS5_ISB_EEE3endEv, symObjAddr: 0x8B10, symBinAddr: 0x10000D154, symSize: 0x30 }
  - { offsetInCU: 0x15F2C, offset: 0x26CD2, size: 0x8, addend: 0x0, symName: __ZNSt3__115__hash_iteratorIPNS_11__hash_nodeINS_17__hash_value_typeINS_12basic_stringIcNS_11char_traitsIcEENS_9allocatorIcEEEENS_6vectorIiNS6_IiEEEEEEPvEEEppB7v160006Ev, symObjAddr: 0x8BA4, symBinAddr: 0x10000D1E8, symSize: 0x20 }
  - { offsetInCU: 0x15F50, offset: 0x26CF6, size: 0x8, addend: 0x0, symName: __ZNKSt3__115__hash_iteratorIPNS_11__hash_nodeINS_17__hash_value_typeINS_12basic_stringIcNS_11char_traitsIcEENS_9allocatorIcEEEENS_6vectorIiNS6_IiEEEEEEPvEEEptB7v160006Ev, symObjAddr: 0x8BC4, symBinAddr: 0x10000D208, symSize: 0x30 }
  - { offsetInCU: 0x15F74, offset: 0x26D1A, size: 0x8, addend: 0x0, symName: __ZNSt3__114pointer_traitsIPNS_17__hash_value_typeINS_12basic_stringIcNS_11char_traitsIcEENS_9allocatorIcEEEENS_6vectorIiNS5_IiEEEEEEE10pointer_toB7v160006ERSB_, symObjAddr: 0x8BF4, symBinAddr: 0x10000D238, symSize: 0x14 }
  - { offsetInCU: 0x15F97, offset: 0x26D3D, size: 0x8, addend: 0x0, symName: __ZNKSt3__112__hash_tableINS_17__hash_value_typeINS_12basic_stringIcNS_11char_traitsIcEENS_9allocatorIcEEEENS_6vectorIiNS5_IiEEEEEENS_22__unordered_map_hasherIS7_SB_NS_4hashIS7_EENS_8equal_toIS7_EELb1EEENS_21__unordered_map_equalIS7_SB_SG_SE_Lb1EEENS5_ISB_EEE14__count_uniqueIS7_EEmRKT_, symObjAddr: 0x8C08, symBinAddr: 0x10000D24C, symSize: 0x64 }
  - { offsetInCU: 0x15FD5, offset: 0x26D7B, size: 0x8, addend: 0x0, symName: __ZNKSt3__112__hash_tableINS_17__hash_value_typeINS_12basic_stringIcNS_11char_traitsIcEENS_9allocatorIcEEEENS_6vectorIiNS5_IiEEEEEENS_22__unordered_map_hasherIS7_SB_NS_4hashIS7_EENS_8equal_toIS7_EELb1EEENS_21__unordered_map_equalIS7_SB_SG_SE_Lb1EEENS5_ISB_EEE4findIS7_EENS_21__hash_const_iteratorIPNS_11__hash_nodeISB_PvEEEERKT_, symObjAddr: 0x8CA0, symBinAddr: 0x10000D2E4, symSize: 0x1BC }
  - { offsetInCU: 0x1605E, offset: 0x26E04, size: 0x8, addend: 0x0, symName: __ZNKSt3__112__hash_tableINS_17__hash_value_typeINS_12basic_stringIcNS_11char_traitsIcEENS_9allocatorIcEEEENS_6vectorIiNS5_IiEEEEEENS_22__unordered_map_hasherIS7_SB_NS_4hashIS7_EENS_8equal_toIS7_EELb1EEENS_21__unordered_map_equalIS7_SB_SG_SE_Lb1EEENS5_ISB_EEE3endEv, symObjAddr: 0x8E5C, symBinAddr: 0x10000D4A0, symSize: 0x30 }
  - { offsetInCU: 0x16084, offset: 0x26E2A, size: 0x8, addend: 0x0, symName: __ZNKSt3__112__hash_tableINS_17__hash_value_typeINS_12basic_stringIcNS_11char_traitsIcEENS_9allocatorIcEEEENS_6vectorIiNS5_IiEEEEEENS_22__unordered_map_hasherIS7_SB_NS_4hashIS7_EENS_8equal_toIS7_EELb1EEENS_21__unordered_map_equalIS7_SB_SG_SE_Lb1EEENS5_ISB_EEE13hash_functionB7v160006Ev, symObjAddr: 0x8EBC, symBinAddr: 0x10000D500, symSize: 0x28 }
  - { offsetInCU: 0x160A8, offset: 0x26E4E, size: 0x8, addend: 0x0, symName: __ZNKSt3__112__hash_tableINS_17__hash_value_typeINS_12basic_stringIcNS_11char_traitsIcEENS_9allocatorIcEEEENS_6vectorIiNS5_IiEEEEEENS_22__unordered_map_hasherIS7_SB_NS_4hashIS7_EENS_8equal_toIS7_EELb1EEENS_21__unordered_map_equalIS7_SB_SG_SE_Lb1EEENS5_ISB_EEE6key_eqB7v160006Ev, symObjAddr: 0x8EE4, symBinAddr: 0x10000D528, symSize: 0x28 }
  - { offsetInCU: 0x160CC, offset: 0x26E72, size: 0x8, addend: 0x0, symName: __ZNSt3__121__hash_const_iteratorIPNS_11__hash_nodeINS_17__hash_value_typeINS_12basic_stringIcNS_11char_traitsIcEENS_9allocatorIcEEEENS_6vectorIiNS6_IiEEEEEEPvEEEC1B7v160006EPNS_16__hash_node_baseISF_EEPKv, symObjAddr: 0x8F0C, symBinAddr: 0x10000D550, symSize: 0x3C }
  - { offsetInCU: 0x16112, offset: 0x26EB8, size: 0x8, addend: 0x0, symName: __ZNKSt3__117__compressed_pairImNS_22__unordered_map_hasherINS_12basic_stringIcNS_11char_traitsIcEENS_9allocatorIcEEEENS_17__hash_value_typeIS7_NS_6vectorIiNS5_IiEEEEEENS_4hashIS7_EENS_8equal_toIS7_EELb1EEEE6secondB7v160006Ev, symObjAddr: 0x8F48, symBinAddr: 0x10000D58C, symSize: 0x24 }
  - { offsetInCU: 0x16136, offset: 0x26EDC, size: 0x8, addend: 0x0, symName: __ZNKSt3__122__compressed_pair_elemINS_22__unordered_map_hasherINS_12basic_stringIcNS_11char_traitsIcEENS_9allocatorIcEEEENS_17__hash_value_typeIS7_NS_6vectorIiNS5_IiEEEEEENS_4hashIS7_EENS_8equal_toIS7_EELb1EEELi1ELb1EE5__getB7v160006Ev, symObjAddr: 0x8F6C, symBinAddr: 0x10000D5B0, symSize: 0x14 }
  - { offsetInCU: 0x1615A, offset: 0x26F00, size: 0x8, addend: 0x0, symName: __ZNKSt3__117__compressed_pairIfNS_21__unordered_map_equalINS_12basic_stringIcNS_11char_traitsIcEENS_9allocatorIcEEEENS_17__hash_value_typeIS7_NS_6vectorIiNS5_IiEEEEEENS_8equal_toIS7_EENS_4hashIS7_EELb1EEEE6secondB7v160006Ev, symObjAddr: 0x8F80, symBinAddr: 0x10000D5C4, symSize: 0x24 }
  - { offsetInCU: 0x1617E, offset: 0x26F24, size: 0x8, addend: 0x0, symName: __ZNKSt3__122__compressed_pair_elemINS_21__unordered_map_equalINS_12basic_stringIcNS_11char_traitsIcEENS_9allocatorIcEEEENS_17__hash_value_typeIS7_NS_6vectorIiNS5_IiEEEEEENS_8equal_toIS7_EENS_4hashIS7_EELb1EEELi1ELb1EE5__getB7v160006Ev, symObjAddr: 0x8FA4, symBinAddr: 0x10000D5E8, symSize: 0x14 }
  - { offsetInCU: 0x161A2, offset: 0x26F48, size: 0x8, addend: 0x0, symName: __ZNSt3__121__hash_const_iteratorIPNS_11__hash_nodeINS_17__hash_value_typeINS_12basic_stringIcNS_11char_traitsIcEENS_9allocatorIcEEEENS_6vectorIiNS6_IiEEEEEEPvEEEC2B7v160006EPNS_16__hash_node_baseISF_EEPKv, symObjAddr: 0x8FB8, symBinAddr: 0x10000D5FC, symSize: 0x24 }
  - { offsetInCU: 0x161FC, offset: 0x26FA2, size: 0x8, addend: 0x0, symName: __ZNSt3__112__hash_tableINS_17__hash_value_typeINS_12basic_stringIcNS_11char_traitsIcEENS_9allocatorIcEEEENS_6vectorIiNS5_IiEEEEEENS_22__unordered_map_hasherIS7_SB_NS_4hashIS7_EENS_8equal_toIS7_EELb1EEENS_21__unordered_map_equalIS7_SB_SG_SE_Lb1EEENS5_ISB_EEE25__emplace_unique_key_argsIS7_JRKNS_21piecewise_construct_tENS_5tupleIJRKS7_EEENSQ_IJEEEEEENS_4pairINS_15__hash_iteratorIPNS_11__hash_nodeISB_PvEEEEbEERKT_DpOT0_, symObjAddr: 0x8FDC, symBinAddr: 0x10000D620, symSize: 0x498 }
  - { offsetInCU: 0x16305, offset: 0x270AB, size: 0x8, addend: 0x0, symName: __ZNSt3__112__hash_tableINS_17__hash_value_typeINS_12basic_stringIcNS_11char_traitsIcEENS_9allocatorIcEEEENS_6vectorIiNS5_IiEEEEEENS_22__unordered_map_hasherIS7_SB_NS_4hashIS7_EENS_8equal_toIS7_EELb1EEENS_21__unordered_map_equalIS7_SB_SG_SE_Lb1EEENS5_ISB_EEE21__construct_node_hashIRKNS_21piecewise_construct_tEJNS_5tupleIJRKS7_EEENSQ_IJEEEEEENS_10unique_ptrINS_11__hash_nodeISB_PvEENS_22__hash_node_destructorINS5_ISY_EEEEEEmOT_DpOT0_, symObjAddr: 0x94A4, symBinAddr: 0x10000DAE8, symSize: 0x150 }
  - { offsetInCU: 0x1639F, offset: 0x27145, size: 0x8, addend: 0x0, symName: __ZNSt3__116allocator_traitsINS_9allocatorINS_11__hash_nodeINS_17__hash_value_typeINS_12basic_stringIcNS_11char_traitsIcEENS1_IcEEEENS_6vectorIiNS1_IiEEEEEEPvEEEEE9constructB7v160006INS_4pairIKS8_SB_EEJRKNS_21piecewise_construct_tENS_5tupleIJRSJ_EEENSO_IJEEEEvEEvRSF_PT_DpOT0_, symObjAddr: 0x95F4, symBinAddr: 0x10000DC38, symSize: 0x44 }
  - { offsetInCU: 0x1641D, offset: 0x271C3, size: 0x8, addend: 0x0, symName: __ZNSt3__19allocatorINS_11__hash_nodeINS_17__hash_value_typeINS_12basic_stringIcNS_11char_traitsIcEENS0_IcEEEENS_6vectorIiNS0_IiEEEEEEPvEEE9constructB7v160006INS_4pairIKS7_SA_EEJRKNS_21piecewise_construct_tENS_5tupleIJRSH_EEENSM_IJEEEEEEvPT_DpOT0_, symObjAddr: 0x9638, symBinAddr: 0x10000DC7C, symSize: 0x44 }
  - { offsetInCU: 0x16497, offset: 0x2723D, size: 0x8, addend: 0x0, symName: __ZNSt3__14pairIKNS_12basic_stringIcNS_11char_traitsIcEENS_9allocatorIcEEEENS_6vectorIiNS4_IiEEEEEC1B7v160006IJRS7_EJEEENS_21piecewise_construct_tENS_5tupleIJDpT_EEENSF_IJDpT0_EEE, symObjAddr: 0x967C, symBinAddr: 0x10000DCC0, symSize: 0x3C }
  - { offsetInCU: 0x164FC, offset: 0x272A2, size: 0x8, addend: 0x0, symName: __ZNSt3__14pairIKNS_12basic_stringIcNS_11char_traitsIcEENS_9allocatorIcEEEENS_6vectorIiNS4_IiEEEEEC1B7v160006IJRS7_EJEJLm0EEJEEENS_21piecewise_construct_tERNS_5tupleIJDpT_EEERNSF_IJDpT0_EEENS_15__tuple_indicesIJXspT1_EEEENSO_IJXspT2_EEEE, symObjAddr: 0x96B8, symBinAddr: 0x10000DCFC, symSize: 0x3C }
  - { offsetInCU: 0x16589, offset: 0x2732F, size: 0x8, addend: 0x0, symName: __ZNSt3__14pairIKNS_12basic_stringIcNS_11char_traitsIcEENS_9allocatorIcEEEENS_6vectorIiNS4_IiEEEEEC2B7v160006IJRS7_EJEJLm0EEJEEENS_21piecewise_construct_tERNS_5tupleIJDpT_EEERNSF_IJDpT0_EEENS_15__tuple_indicesIJXspT1_EEEENSO_IJXspT2_EEEE, symObjAddr: 0x96F4, symBinAddr: 0x10000DD38, symSize: 0x50 }
  - { offsetInCU: 0x16616, offset: 0x273BC, size: 0x8, addend: 0x0, symName: __ZNSt3__16vectorIiNS_9allocatorIiEEEC1B7v160006Ev, symObjAddr: 0x9768, symBinAddr: 0x10000DDAC, symSize: 0x2C }
  - { offsetInCU: 0x1663E, offset: 0x273E4, size: 0x8, addend: 0x0, symName: __ZNSt3__112__tuple_leafILm0ERKNS_12basic_stringIcNS_11char_traitsIcEENS_9allocatorIcEEEELb0EE3getB7v160006Ev, symObjAddr: 0x9794, symBinAddr: 0x10000DDD8, symSize: 0x18 }
  - { offsetInCU: 0x16662, offset: 0x27408, size: 0x8, addend: 0x0, symName: __ZNSt3__16vectorIiNS_9allocatorIiEEEC2B7v160006Ev, symObjAddr: 0x97AC, symBinAddr: 0x10000DDF0, symSize: 0x54 }
  - { offsetInCU: 0x1668A, offset: 0x27430, size: 0x8, addend: 0x0, symName: __ZNSt3__15tupleIJRKNS_12basic_stringIcNS_11char_traitsIcEENS_9allocatorIcEEEEEEC1B7v160006INS_4_AndELi0EEES8_, symObjAddr: 0x9800, symBinAddr: 0x10000DE44, symSize: 0x34 }
  - { offsetInCU: 0x166D2, offset: 0x27478, size: 0x8, addend: 0x0, symName: __ZNSt3__15tupleIJRKNS_12basic_stringIcNS_11char_traitsIcEENS_9allocatorIcEEEEEEC2B7v160006INS_4_AndELi0EEES8_, symObjAddr: 0x9834, symBinAddr: 0x10000DE78, symSize: 0x34 }
  - { offsetInCU: 0x1671A, offset: 0x274C0, size: 0x8, addend: 0x0, symName: __ZNSt3__112__tuple_implINS_15__tuple_indicesIJLm0EEEEJRKNS_12basic_stringIcNS_11char_traitsIcEENS_9allocatorIcEEEEEEC1B7v160006IJLm0EEJSA_EJEJEJSA_EEENS1_IJXspT_EEEENS_13__tuple_typesIJDpT0_EEENS1_IJXspT1_EEEENSE_IJDpT2_EEEDpOT3_, symObjAddr: 0x9868, symBinAddr: 0x10000DEAC, symSize: 0x34 }
  - { offsetInCU: 0x167AA, offset: 0x27550, size: 0x8, addend: 0x0, symName: __ZNSt3__112__tuple_implINS_15__tuple_indicesIJLm0EEEEJRKNS_12basic_stringIcNS_11char_traitsIcEENS_9allocatorIcEEEEEEC2B7v160006IJLm0EEJSA_EJEJEJSA_EEENS1_IJXspT_EEEENS_13__tuple_typesIJDpT0_EEENS1_IJXspT1_EEEENSE_IJDpT2_EEEDpOT3_, symObjAddr: 0x989C, symBinAddr: 0x10000DEE0, symSize: 0x34 }
  - { offsetInCU: 0x1683A, offset: 0x275E0, size: 0x8, addend: 0x0, symName: __ZNSt3__112__tuple_leafILm0ERKNS_12basic_stringIcNS_11char_traitsIcEENS_9allocatorIcEEEELb0EEC2B7v160006IS8_vEEOT_, symObjAddr: 0x98D0, symBinAddr: 0x10000DF14, symSize: 0x20 }
  - { offsetInCU: 0x1687B, offset: 0x27621, size: 0x8, addend: 0x0, symName: __ZNSt3__16vectorIiNS_9allocatorIiEEEC2ERKS3_, symObjAddr: 0x98F0, symBinAddr: 0x10000DF34, symSize: 0x110 }
  - { offsetInCU: 0x168DA, offset: 0x27680, size: 0x8, addend: 0x0, symName: __ZNSt3__116allocator_traitsINS_9allocatorIiEEE37select_on_container_copy_constructionB7v160006IS2_vvEES2_RKS2_, symObjAddr: 0x9A00, symBinAddr: 0x10000E044, symSize: 0x10 }
  - { offsetInCU: 0x16909, offset: 0x276AF, size: 0x8, addend: 0x0, symName: __ZNSt3__16vectorIiNS_9allocatorIiEEE18__construct_at_endIPiLi0EEEvT_S6_m, symObjAddr: 0x9A10, symBinAddr: 0x10000E054, symSize: 0x8C }
  - { offsetInCU: 0x1697B, offset: 0x27721, size: 0x8, addend: 0x0, symName: __ZNSt3__129_AllocatorDestroyRangeReverseINS_9allocatorIiEEPiEC1B7v160006ERS2_RS3_S6_, symObjAddr: 0x9BDC, symBinAddr: 0x10000E220, symSize: 0x44 }
  - { offsetInCU: 0x169D0, offset: 0x27776, size: 0x8, addend: 0x0, symName: __ZNSt3__116allocator_traitsINS_9allocatorIiEEE9constructB7v160006IiJRiEvEEvRS2_PT_DpOT0_, symObjAddr: 0x9C20, symBinAddr: 0x10000E264, symSize: 0x34 }
  - { offsetInCU: 0x16A26, offset: 0x277CC, size: 0x8, addend: 0x0, symName: __ZNSt3__128__exception_guard_exceptionsINS_29_AllocatorDestroyRangeReverseINS_9allocatorIiEEPiEEE10__completeB7v160006Ev, symObjAddr: 0x9C54, symBinAddr: 0x10000E298, symSize: 0x1C }
  - { offsetInCU: 0x16A4A, offset: 0x277F0, size: 0x8, addend: 0x0, symName: __ZNSt3__128__exception_guard_exceptionsINS_29_AllocatorDestroyRangeReverseINS_9allocatorIiEEPiEEED1B7v160006Ev, symObjAddr: 0x9C70, symBinAddr: 0x10000E2B4, symSize: 0x2C }
  - { offsetInCU: 0x16A72, offset: 0x27818, size: 0x8, addend: 0x0, symName: __ZNSt3__128__exception_guard_exceptionsINS_29_AllocatorDestroyRangeReverseINS_9allocatorIiEEPiEEEC1B7v160006ES5_, symObjAddr: 0x9C9C, symBinAddr: 0x10000E2E0, symSize: 0x34 }
  - { offsetInCU: 0x16AA9, offset: 0x2784F, size: 0x8, addend: 0x0, symName: __ZNSt3__128__exception_guard_exceptionsINS_29_AllocatorDestroyRangeReverseINS_9allocatorIiEEPiEEEC2B7v160006ES5_, symObjAddr: 0x9CD0, symBinAddr: 0x10000E314, symSize: 0x30 }
  - { offsetInCU: 0x16AE0, offset: 0x27886, size: 0x8, addend: 0x0, symName: __ZNSt3__129_AllocatorDestroyRangeReverseINS_9allocatorIiEEPiEC2B7v160006ERS2_RS3_S6_, symObjAddr: 0x9D00, symBinAddr: 0x10000E344, symSize: 0x38 }
  - { offsetInCU: 0x16B35, offset: 0x278DB, size: 0x8, addend: 0x0, symName: __ZNSt3__19allocatorIiE9constructB7v160006IiJRiEEEvPT_DpOT0_, symObjAddr: 0x9D38, symBinAddr: 0x10000E37C, symSize: 0x28 }
  - { offsetInCU: 0x16B89, offset: 0x2792F, size: 0x8, addend: 0x0, symName: __ZNSt3__128__exception_guard_exceptionsINS_29_AllocatorDestroyRangeReverseINS_9allocatorIiEEPiEEED2B7v160006Ev, symObjAddr: 0x9D60, symBinAddr: 0x10000E3A4, symSize: 0x50 }
  - { offsetInCU: 0x16BB1, offset: 0x27957, size: 0x8, addend: 0x0, symName: __ZNKSt3__129_AllocatorDestroyRangeReverseINS_9allocatorIiEEPiEclB7v160006Ev, symObjAddr: 0x9DB0, symBinAddr: 0x10000E3F4, symSize: 0x68 }
  - { offsetInCU: 0x16BD5, offset: 0x2797B, size: 0x8, addend: 0x0, symName: __ZNSt3__116reverse_iteratorIPiEC1B7v160006ES1_, symObjAddr: 0x9E88, symBinAddr: 0x10000E4CC, symSize: 0x34 }
  - { offsetInCU: 0x16C0B, offset: 0x279B1, size: 0x8, addend: 0x0, symName: __ZNSt3__116reverse_iteratorIPiEppB7v160006Ev, symObjAddr: 0x9F28, symBinAddr: 0x10000E56C, symSize: 0x20 }
  - { offsetInCU: 0x16C2F, offset: 0x279D5, size: 0x8, addend: 0x0, symName: __ZNKSt3__116reverse_iteratorIPiE4baseB7v160006Ev, symObjAddr: 0x9F48, symBinAddr: 0x10000E58C, symSize: 0x18 }
  - { offsetInCU: 0x16C58, offset: 0x279FE, size: 0x8, addend: 0x0, symName: __ZNSt3__119__to_address_helperINS_16reverse_iteratorIPiEEvE6__callB7v160006ERKS3_, symObjAddr: 0x9F60, symBinAddr: 0x10000E5A4, symSize: 0x38 }
  - { offsetInCU: 0x16C7A, offset: 0x27A20, size: 0x8, addend: 0x0, symName: __ZNKSt3__116reverse_iteratorIPiEptB7v160006Ev, symObjAddr: 0x9F98, symBinAddr: 0x10000E5DC, symSize: 0x24 }
  - { offsetInCU: 0x16C9E, offset: 0x27A44, size: 0x8, addend: 0x0, symName: __ZNKSt3__116reverse_iteratorIPiEdeB7v160006Ev, symObjAddr: 0x9FBC, symBinAddr: 0x10000E600, symSize: 0x28 }
  - { offsetInCU: 0x16CD0, offset: 0x27A76, size: 0x8, addend: 0x0, symName: __ZNSt3__116reverse_iteratorIPiEC2B7v160006ES1_, symObjAddr: 0x9FE4, symBinAddr: 0x10000E628, symSize: 0x28 }
  - { offsetInCU: 0x16D06, offset: 0x27AAC, size: 0x8, addend: 0x0, symName: __ZNSt3__112__hash_tableINS_17__hash_value_typeINS_12basic_stringIcNS_11char_traitsIcEENS_9allocatorIcEEEENS_6vectorIiNS5_IiEEEEEENS_22__unordered_map_hasherIS7_SB_NS_4hashIS7_EENS_8equal_toIS7_EELb1EEENS_21__unordered_map_equalIS7_SB_SG_SE_Lb1EEENS5_ISB_EEE14__erase_uniqueIS7_EEmRKT_, symObjAddr: 0xA00C, symBinAddr: 0x10000E650, symSize: 0x98 }
  - { offsetInCU: 0x16D53, offset: 0x27AF9, size: 0x8, addend: 0x0, symName: __ZNSt3__112__hash_tableINS_17__hash_value_typeINS_12basic_stringIcNS_11char_traitsIcEENS_9allocatorIcEEEENS_6vectorIiNS5_IiEEEEEENS_22__unordered_map_hasherIS7_SB_NS_4hashIS7_EENS_8equal_toIS7_EELb1EEENS_21__unordered_map_equalIS7_SB_SG_SE_Lb1EEENS5_ISB_EEE4findIS7_EENS_15__hash_iteratorIPNS_11__hash_nodeISB_PvEEEERKT_, symObjAddr: 0xA0A4, symBinAddr: 0x10000E6E8, symSize: 0x1B4 }
  - { offsetInCU: 0x16DDC, offset: 0x27B82, size: 0x8, addend: 0x0, symName: __ZNSt3__112__hash_tableINS_17__hash_value_typeINS_12basic_stringIcNS_11char_traitsIcEENS_9allocatorIcEEEENS_6vectorIiNS5_IiEEEEEENS_22__unordered_map_hasherIS7_SB_NS_4hashIS7_EENS_8equal_toIS7_EELb1EEENS_21__unordered_map_equalIS7_SB_SG_SE_Lb1EEENS5_ISB_EEE5eraseENS_21__hash_const_iteratorIPNS_11__hash_nodeISB_PvEEEE, symObjAddr: 0xA258, symBinAddr: 0x10000E89C, symSize: 0x70 }
  - { offsetInCU: 0x16E2F, offset: 0x27BD5, size: 0x8, addend: 0x0, symName: __ZNSt3__121__hash_const_iteratorIPNS_11__hash_nodeINS_17__hash_value_typeINS_12basic_stringIcNS_11char_traitsIcEENS_9allocatorIcEEEENS_6vectorIiNS6_IiEEEEEEPvEEEC1B7v160006ERKNS_15__hash_iteratorISF_EE, symObjAddr: 0xA2C8, symBinAddr: 0x10000E90C, symSize: 0x34 }
  - { offsetInCU: 0x16E66, offset: 0x27C0C, size: 0x8, addend: 0x0, symName: __ZNSt3__112__hash_tableINS_17__hash_value_typeINS_12basic_stringIcNS_11char_traitsIcEENS_9allocatorIcEEEENS_6vectorIiNS5_IiEEEEEENS_22__unordered_map_hasherIS7_SB_NS_4hashIS7_EENS_8equal_toIS7_EELb1EEENS_21__unordered_map_equalIS7_SB_SG_SE_Lb1EEENS5_ISB_EEE6removeENS_21__hash_const_iteratorIPNS_11__hash_nodeISB_PvEEEE, symObjAddr: 0xA2FC, symBinAddr: 0x10000E940, symSize: 0x220 }
  - { offsetInCU: 0x16EF6, offset: 0x27C9C, size: 0x8, addend: 0x0, symName: __ZNSt3__121__hash_const_iteratorIPNS_11__hash_nodeINS_17__hash_value_typeINS_12basic_stringIcNS_11char_traitsIcEENS_9allocatorIcEEEENS_6vectorIiNS6_IiEEEEEEPvEEEC2B7v160006ERKNS_15__hash_iteratorISF_EE, symObjAddr: 0xA51C, symBinAddr: 0x10000EB60, symSize: 0x24 }
  - { offsetInCU: 0x16F2D, offset: 0x27CD3, size: 0x8, addend: 0x0, symName: __ZNSt3__16vectorIP6SectorNS_9allocatorIS2_EEEC2B7v160006Ev, symObjAddr: 0xA540, symBinAddr: 0x10000EB84, symSize: 0x58 }
  - { offsetInCU: 0x16F55, offset: 0x27CFB, size: 0x8, addend: 0x0, symName: __ZNSt3__117__compressed_pairIPP6SectorNS_9allocatorIS2_EEEC1B7v160006IDnNS_18__default_init_tagEEEOT_OT0_, symObjAddr: 0xA598, symBinAddr: 0x10000EBDC, symSize: 0x3C }
  - { offsetInCU: 0x16FAB, offset: 0x27D51, size: 0x8, addend: 0x0, symName: __ZNSt3__117__compressed_pairIPP6SectorNS_9allocatorIS2_EEEC2B7v160006IDnNS_18__default_init_tagEEEOT_OT0_, symObjAddr: 0xA5E4, symBinAddr: 0x10000EC28, symSize: 0x40 }
  - { offsetInCU: 0x17001, offset: 0x27DA7, size: 0x8, addend: 0x0, symName: __ZNSt3__122__compressed_pair_elemIPP6SectorLi0ELb0EEC2B7v160006IDnvEEOT_, symObjAddr: 0xA624, symBinAddr: 0x10000EC68, symSize: 0x1C }
  - { offsetInCU: 0x17041, offset: 0x27DE7, size: 0x8, addend: 0x0, symName: __ZNSt3__122__compressed_pair_elemINS_9allocatorIP6SectorEELi1ELb1EEC2B7v160006ENS_18__default_init_tagE, symObjAddr: 0xA640, symBinAddr: 0x10000EC84, symSize: 0x2C }
  - { offsetInCU: 0x17073, offset: 0x27E19, size: 0x8, addend: 0x0, symName: __ZNSt3__19allocatorIP6SectorEC2B7v160006Ev, symObjAddr: 0xA66C, symBinAddr: 0x10000ECB0, symSize: 0x2C }
  - { offsetInCU: 0x1709B, offset: 0x27E41, size: 0x8, addend: 0x0, symName: __ZNSt3__116__non_trivial_ifILb1ENS_9allocatorIP6SectorEEEC2B7v160006Ev, symObjAddr: 0xA698, symBinAddr: 0x10000ECDC, symSize: 0x14 }
  - { offsetInCU: 0x170C3, offset: 0x27E69, size: 0x8, addend: 0x0, symName: __ZNSt3__16vectorIP6SectorNS_9allocatorIS2_EEE22__construct_one_at_endB7v160006IJRKS2_EEEvDpOT_, symObjAddr: 0xAB94, symBinAddr: 0x10000ECF0, symSize: 0x90 }
  - { offsetInCU: 0x17110, offset: 0x27EB6, size: 0x8, addend: 0x0, symName: __ZNSt3__16vectorIP6SectorNS_9allocatorIS2_EEE21__push_back_slow_pathIRKS2_EEvOT_, symObjAddr: 0xAC24, symBinAddr: 0x10000ED80, symSize: 0xD8 }
  - { offsetInCU: 0x17185, offset: 0x27F2B, size: 0x8, addend: 0x0, symName: __ZNSt3__16vectorIP6SectorNS_9allocatorIS2_EEE21_ConstructTransactionC1B7v160006ERS5_m, symObjAddr: 0xAD34, symBinAddr: 0x10000EE58, symSize: 0x3C }
  - { offsetInCU: 0x171CB, offset: 0x27F71, size: 0x8, addend: 0x0, symName: __ZNSt3__116allocator_traitsINS_9allocatorIP6SectorEEE9constructB7v160006IS3_JRKS3_EvEEvRS4_PT_DpOT0_, symObjAddr: 0xAD70, symBinAddr: 0x10000EE94, symSize: 0x34 }
  - { offsetInCU: 0x17221, offset: 0x27FC7, size: 0x8, addend: 0x0, symName: __ZNSt3__16vectorIP6SectorNS_9allocatorIS2_EEE21_ConstructTransactionD1B7v160006Ev, symObjAddr: 0xADA4, symBinAddr: 0x10000EEC8, symSize: 0x2C }
  - { offsetInCU: 0x17249, offset: 0x27FEF, size: 0x8, addend: 0x0, symName: __ZNSt3__16vectorIP6SectorNS_9allocatorIS2_EEE21_ConstructTransactionC2B7v160006ERS5_m, symObjAddr: 0xADD0, symBinAddr: 0x10000EEF4, symSize: 0x44 }
  - { offsetInCU: 0x1728F, offset: 0x28035, size: 0x8, addend: 0x0, symName: __ZNSt3__19allocatorIP6SectorE9constructB7v160006IS2_JRKS2_EEEvPT_DpOT0_, symObjAddr: 0xAE14, symBinAddr: 0x10000EF38, symSize: 0x28 }
  - { offsetInCU: 0x172E3, offset: 0x28089, size: 0x8, addend: 0x0, symName: __ZNSt3__16vectorIP6SectorNS_9allocatorIS2_EEE21_ConstructTransactionD2B7v160006Ev, symObjAddr: 0xAE3C, symBinAddr: 0x10000EF60, symSize: 0x20 }
  - { offsetInCU: 0x1730B, offset: 0x280B1, size: 0x8, addend: 0x0, symName: __ZNKSt3__16vectorIP6SectorNS_9allocatorIS2_EEE11__recommendB7v160006Em, symObjAddr: 0xAE5C, symBinAddr: 0x10000EF80, symSize: 0xB4 }
  - { offsetInCU: 0x1735E, offset: 0x28104, size: 0x8, addend: 0x0, symName: __ZNSt3__114__split_bufferIP6SectorRNS_9allocatorIS2_EEEC1EmmS5_, symObjAddr: 0xAF10, symBinAddr: 0x10000F034, symSize: 0x44 }
  - { offsetInCU: 0x173B3, offset: 0x28159, size: 0x8, addend: 0x0, symName: __ZNSt3__114__split_bufferIP6SectorRNS_9allocatorIS2_EEED1Ev, symObjAddr: 0xB06C, symBinAddr: 0x10000F190, symSize: 0x2C }
  - { offsetInCU: 0x173DE, offset: 0x28184, size: 0x8, addend: 0x0, symName: __ZNKSt3__16vectorIP6SectorNS_9allocatorIS2_EEE8max_sizeEv, symObjAddr: 0xB098, symBinAddr: 0x10000F1BC, symSize: 0x60 }
  - { offsetInCU: 0x17404, offset: 0x281AA, size: 0x8, addend: 0x0, symName: __ZNKSt3__16vectorIP6SectorNS_9allocatorIS2_EEE20__throw_length_errorB7v160006Ev, symObjAddr: 0xB0F8, symBinAddr: 0x10000F21C, symSize: 0x1C }
  - { offsetInCU: 0x17432, offset: 0x281D8, size: 0x8, addend: 0x0, symName: __ZNSt3__116allocator_traitsINS_9allocatorIP6SectorEEE8max_sizeB7v160006IS4_vEEmRKS4_, symObjAddr: 0xB114, symBinAddr: 0x10000F238, symSize: 0x24 }
  - { offsetInCU: 0x1745F, offset: 0x28205, size: 0x8, addend: 0x0, symName: __ZNKSt3__16vectorIP6SectorNS_9allocatorIS2_EEE7__allocB7v160006Ev, symObjAddr: 0xB138, symBinAddr: 0x10000F25C, symSize: 0x28 }
  - { offsetInCU: 0x17483, offset: 0x28229, size: 0x8, addend: 0x0, symName: __ZNKSt3__19allocatorIP6SectorE8max_sizeB7v160006Ev, symObjAddr: 0xB160, symBinAddr: 0x10000F284, symSize: 0x14 }
  - { offsetInCU: 0x174A7, offset: 0x2824D, size: 0x8, addend: 0x0, symName: __ZNKSt3__117__compressed_pairIPP6SectorNS_9allocatorIS2_EEE6secondB7v160006Ev, symObjAddr: 0xB174, symBinAddr: 0x10000F298, symSize: 0x24 }
  - { offsetInCU: 0x174CB, offset: 0x28271, size: 0x8, addend: 0x0, symName: __ZNKSt3__122__compressed_pair_elemINS_9allocatorIP6SectorEELi1ELb1EE5__getB7v160006Ev, symObjAddr: 0xB198, symBinAddr: 0x10000F2BC, symSize: 0x14 }
  - { offsetInCU: 0x174EF, offset: 0x28295, size: 0x8, addend: 0x0, symName: __ZNSt3__114__split_bufferIP6SectorRNS_9allocatorIS2_EEEC2EmmS5_, symObjAddr: 0xB1AC, symBinAddr: 0x10000F2D0, symSize: 0xD4 }
  - { offsetInCU: 0x17562, offset: 0x28308, size: 0x8, addend: 0x0, symName: __ZNSt3__117__compressed_pairIPP6SectorRNS_9allocatorIS2_EEEC1B7v160006IDnS6_EEOT_OT0_, symObjAddr: 0xB280, symBinAddr: 0x10000F3A4, symSize: 0x3C }
  - { offsetInCU: 0x175B8, offset: 0x2835E, size: 0x8, addend: 0x0, symName: __ZNSt3__114__split_bufferIP6SectorRNS_9allocatorIS2_EEE7__allocB7v160006Ev, symObjAddr: 0xB2FC, symBinAddr: 0x10000F420, symSize: 0x28 }
  - { offsetInCU: 0x175DC, offset: 0x28382, size: 0x8, addend: 0x0, symName: __ZNSt3__114__split_bufferIP6SectorRNS_9allocatorIS2_EEE9__end_capB7v160006Ev, symObjAddr: 0xB324, symBinAddr: 0x10000F448, symSize: 0x28 }
  - { offsetInCU: 0x17600, offset: 0x283A6, size: 0x8, addend: 0x0, symName: __ZNSt3__117__compressed_pairIPP6SectorRNS_9allocatorIS2_EEEC2B7v160006IDnS6_EEOT_OT0_, symObjAddr: 0xB34C, symBinAddr: 0x10000F470, symSize: 0x48 }
  - { offsetInCU: 0x17656, offset: 0x283FC, size: 0x8, addend: 0x0, symName: __ZNSt3__122__compressed_pair_elemIRNS_9allocatorIP6SectorEELi1ELb0EEC2B7v160006IS5_vEEOT_, symObjAddr: 0xB394, symBinAddr: 0x10000F4B8, symSize: 0x20 }
  - { offsetInCU: 0x17696, offset: 0x2843C, size: 0x8, addend: 0x0, symName: __ZNSt3__19allocatorIP6SectorE8allocateB7v160006Em, symObjAddr: 0xB3B4, symBinAddr: 0x10000F4D8, symSize: 0x58 }
  - { offsetInCU: 0x176C8, offset: 0x2846E, size: 0x8, addend: 0x0, symName: __ZNSt3__117__compressed_pairIPP6SectorRNS_9allocatorIS2_EEE6secondB7v160006Ev, symObjAddr: 0xB40C, symBinAddr: 0x10000F530, symSize: 0x28 }
  - { offsetInCU: 0x176EC, offset: 0x28492, size: 0x8, addend: 0x0, symName: __ZNSt3__122__compressed_pair_elemIRNS_9allocatorIP6SectorEELi1ELb0EE5__getB7v160006Ev, symObjAddr: 0xB434, symBinAddr: 0x10000F558, symSize: 0x18 }
  - { offsetInCU: 0x17710, offset: 0x284B6, size: 0x8, addend: 0x0, symName: __ZNSt3__117__compressed_pairIPP6SectorRNS_9allocatorIS2_EEE5firstB7v160006Ev, symObjAddr: 0xB44C, symBinAddr: 0x10000F570, symSize: 0x24 }
  - { offsetInCU: 0x17734, offset: 0x284DA, size: 0x8, addend: 0x0, symName: __ZNSt3__116reverse_iteratorIPP6SectorEC1B7v160006ES3_, symObjAddr: 0xB4E8, symBinAddr: 0x10000F60C, symSize: 0x34 }
  - { offsetInCU: 0x1776A, offset: 0x28510, size: 0x8, addend: 0x0, symName: __ZNKSt3__116reverse_iteratorIPP6SectorE4baseB7v160006Ev, symObjAddr: 0xB51C, symBinAddr: 0x10000F640, symSize: 0x18 }
  - { offsetInCU: 0x1778E, offset: 0x28534, size: 0x8, addend: 0x0, symName: __ZNKSt3__16vectorIP6SectorNS_9allocatorIS2_EEE14__annotate_newB7v160006Em, symObjAddr: 0xB570, symBinAddr: 0x10000F694, symSize: 0xAC }
  - { offsetInCU: 0x177E4, offset: 0x2858A, size: 0x8, addend: 0x0, symName: __ZNKSt3__111__move_loopINS_17_ClassicAlgPolicyEEclB7v160006INS_16reverse_iteratorIPP6SectorEES8_S8_EENS_4pairIT_T1_EESA_T0_SB_, symObjAddr: 0xB91C, symBinAddr: 0x10000FA30, symSize: 0xA0 }
  - { offsetInCU: 0x17852, offset: 0x285F8, size: 0x8, addend: 0x0, symName: __ZNSt3__18_IterOpsINS_17_ClassicAlgPolicyEE11__iter_moveB7v160006IRNS_16reverse_iteratorIPP6SectorEEEENS_9enable_ifIXsr12is_referenceIDTdeclsr3stdE7declvalIRT_EEEEE5valueEDTclsr3stdE4movedeclsr3stdE7declvalISC_EEEEE4typeEOSB_, symObjAddr: 0xBB50, symBinAddr: 0x10000FC64, symSize: 0x28 }
  - { offsetInCU: 0x1787D, offset: 0x28623, size: 0x8, addend: 0x0, symName: __ZNKSt3__116reverse_iteratorIPP6SectorEdeB7v160006Ev, symObjAddr: 0xBB78, symBinAddr: 0x10000FC8C, symSize: 0x28 }
  - { offsetInCU: 0x178AF, offset: 0x28655, size: 0x8, addend: 0x0, symName: __ZNSt3__116reverse_iteratorIPP6SectorEppB7v160006Ev, symObjAddr: 0xBBA0, symBinAddr: 0x10000FCB4, symSize: 0x20 }
  - { offsetInCU: 0x178D3, offset: 0x28679, size: 0x8, addend: 0x0, symName: __ZNSt3__18_IterOpsINS_17_ClassicAlgPolicyEE25__validate_iter_referenceB7v160006IRNS_16reverse_iteratorIPP6SectorEEEEvv, symObjAddr: 0xBBC0, symBinAddr: 0x10000FCD4, symSize: 0x4 }
  - { offsetInCU: 0x178F1, offset: 0x28697, size: 0x8, addend: 0x0, symName: __ZNSt3__118__unwrap_iter_implINS_16reverse_iteratorIPP6SectorEELb0EE8__unwrapB7v160006ES5_, symObjAddr: 0xBBC4, symBinAddr: 0x10000FCD8, symSize: 0x24 }
  - { offsetInCU: 0x17919, offset: 0x286BF, size: 0x8, addend: 0x0, symName: __ZNSt3__14pairINS_16reverse_iteratorIPP6SectorEES5_EC1B7v160006IS5_S5_LPv0EEEOT_OT0_, symObjAddr: 0xBBE8, symBinAddr: 0x10000FCFC, symSize: 0x3C }
  - { offsetInCU: 0x17976, offset: 0x2871C, size: 0x8, addend: 0x0, symName: __ZNSt3__14pairINS_16reverse_iteratorIPP6SectorEES5_EC2B7v160006IS5_S5_LPv0EEEOT_OT0_, symObjAddr: 0xBC24, symBinAddr: 0x10000FD38, symSize: 0x34 }
  - { offsetInCU: 0x179D3, offset: 0x28779, size: 0x8, addend: 0x0, symName: __ZNSt3__118__unwrap_iter_implINS_16reverse_iteratorIPP6SectorEELb0EE8__rewrapB7v160006ES5_S5_, symObjAddr: 0xBC58, symBinAddr: 0x10000FD6C, symSize: 0x2C }
  - { offsetInCU: 0x17A00, offset: 0x287A6, size: 0x8, addend: 0x0, symName: __ZNSt3__116reverse_iteratorIPP6SectorEC2B7v160006ES3_, symObjAddr: 0xBC84, symBinAddr: 0x10000FD98, symSize: 0x28 }
  - { offsetInCU: 0x17A36, offset: 0x287DC, size: 0x8, addend: 0x0, symName: __ZNSt3__114__split_bufferIP6SectorRNS_9allocatorIS2_EEED2Ev, symObjAddr: 0xBCAC, symBinAddr: 0x10000FDC0, symSize: 0x8C }
  - { offsetInCU: 0x17A61, offset: 0x28807, size: 0x8, addend: 0x0, symName: __ZNSt3__114__split_bufferIP6SectorRNS_9allocatorIS2_EEE5clearB7v160006Ev, symObjAddr: 0xBD38, symBinAddr: 0x10000FE4C, symSize: 0x28 }
  - { offsetInCU: 0x17A85, offset: 0x2882B, size: 0x8, addend: 0x0, symName: __ZNKSt3__114__split_bufferIP6SectorRNS_9allocatorIS2_EEE8capacityB7v160006Ev, symObjAddr: 0xBD60, symBinAddr: 0x10000FE74, symSize: 0x40 }
  - { offsetInCU: 0x17AA9, offset: 0x2884F, size: 0x8, addend: 0x0, symName: __ZNSt3__114__split_bufferIP6SectorRNS_9allocatorIS2_EEE17__destruct_at_endB7v160006EPS2_, symObjAddr: 0xBDA0, symBinAddr: 0x10000FEB4, symSize: 0x2C }
  - { offsetInCU: 0x17ADB, offset: 0x28881, size: 0x8, addend: 0x0, symName: __ZNSt3__114__split_bufferIP6SectorRNS_9allocatorIS2_EEE17__destruct_at_endB7v160006EPS2_NS_17integral_constantIbLb0EEE, symObjAddr: 0xBDCC, symBinAddr: 0x10000FEE0, symSize: 0x80 }
  - { offsetInCU: 0x17B19, offset: 0x288BF, size: 0x8, addend: 0x0, symName: __ZNKSt3__114__split_bufferIP6SectorRNS_9allocatorIS2_EEE9__end_capB7v160006Ev, symObjAddr: 0xBE4C, symBinAddr: 0x10000FF60, symSize: 0x28 }
  - { offsetInCU: 0x17B3D, offset: 0x288E3, size: 0x8, addend: 0x0, symName: __ZNKSt3__117__compressed_pairIPP6SectorRNS_9allocatorIS2_EEE5firstB7v160006Ev, symObjAddr: 0xBE74, symBinAddr: 0x10000FF88, symSize: 0x24 }
  - { offsetInCU: 0x17B61, offset: 0x28907, size: 0x8, addend: 0x0, symName: __ZNSt3__113basic_ostreamIcNS_11char_traitsIcEEEC2B7v160006EPNS_15basic_streambufIcS2_EE, symObjAddr: 0xBE98, symBinAddr: 0x10000FFAC, symSize: 0x60 }
  - { offsetInCU: 0x82, offset: 0x28C09, size: 0x8, addend: 0x0, symName: __ZNSt3__1L19piecewise_constructE, symObjAddr: 0xC916, symBinAddr: 0x100013611, symSize: 0x0 }
  - { offsetInCU: 0x8CCB, offset: 0x31852, size: 0x8, addend: 0x0, symName: __ZNSt3__122__make_exception_guardB7v160006INS_6vectorIP6SectorNS_9allocatorIS3_EEE16__destroy_vectorEEENS_28__exception_guard_exceptionsIT_EES9_, symObjAddr: 0xBC18, symBinAddr: 0x100011BEC, symSize: 0x40 }
  - { offsetInCU: 0x8D00, offset: 0x31887, size: 0x8, addend: 0x0, symName: __ZNSt3__130__uninitialized_allocator_copyB7v160006INS_9allocatorIP6SectorEEPS3_S5_S5_EET2_RT_T0_T1_S6_, symObjAddr: 0xBE30, symBinAddr: 0x100011E04, symSize: 0xF4 }
  - { offsetInCU: 0x8D9E, offset: 0x31925, size: 0x8, addend: 0x0, symName: __ZNSt3__122__make_exception_guardB7v160006INS_29_AllocatorDestroyRangeReverseINS_9allocatorIP6SectorEEPS4_EEEENS_28__exception_guard_exceptionsIT_EES9_, symObjAddr: 0xBF24, symBinAddr: 0x100011EF8, symSize: 0x4C }
  - { offsetInCU: 0x8DD4, offset: 0x3195B, size: 0x8, addend: 0x0, symName: __ZNSt3__119__allocator_destroyB7v160006INS_9allocatorIP6SectorEENS_16reverse_iteratorIPS3_EES7_EEvRT_T0_T1_, symObjAddr: 0xC1AC, symBinAddr: 0x100012180, symSize: 0x70 }
  - { offsetInCU: 0x8E37, offset: 0x319BE, size: 0x8, addend: 0x0, symName: __ZNSt3__112__to_addressB7v160006INS_16reverse_iteratorIPP6SectorEEvEENS_5decayIDTclsr19__to_address_helperIT_EE6__callclsr3stdE7declvalIRKS7_EEEEE4typeES9_, symObjAddr: 0xC21C, symBinAddr: 0x1000121F0, symSize: 0x24 }
  - { offsetInCU: 0xB66B, offset: 0x341F2, size: 0x8, addend: 0x0, symName: __ZN16SpaceSectorLLRBTC2Ev, symObjAddr: 0x0, symBinAddr: 0x10001000C, symSize: 0x34 }
  - { offsetInCU: 0xB696, offset: 0x3421D, size: 0x8, addend: 0x0, symName: __ZN16SpaceSectorLLRBTC1Ev, symObjAddr: 0x60, symBinAddr: 0x100010040, symSize: 0x2C }
  - { offsetInCU: 0xB6C1, offset: 0x34248, size: 0x8, addend: 0x0, symName: __ZN16SpaceSectorLLRBT19readSectorsFromFileERKNSt3__112basic_stringIcNS0_11char_traitsIcEENS0_9allocatorIcEEEE, symObjAddr: 0x8C, symBinAddr: 0x10001006C, symSize: 0x238 }
  - { offsetInCU: 0xB898, offset: 0x3441F, size: 0x8, addend: 0x0, symName: __ZN16SpaceSectorLLRBT25insertSectorByCoordinatesEiii, symObjAddr: 0x7E0, symBinAddr: 0x1000102A4, symSize: 0x54 }
  - { offsetInCU: 0xB8F3, offset: 0x3447A, size: 0x8, addend: 0x0, symName: __ZN16SpaceSectorLLRBTD2Ev, symObjAddr: 0x8B4, symBinAddr: 0x1000102F8, symSize: 0x44 }
  - { offsetInCU: 0xB91E, offset: 0x344A5, size: 0x8, addend: 0x0, symName: __ZN16SpaceSectorLLRBT10deleteTreeEP6Sector, symObjAddr: 0x8F8, symBinAddr: 0x10001033C, symSize: 0x8C }
  - { offsetInCU: 0xB953, offset: 0x344DA, size: 0x8, addend: 0x0, symName: __ZN16SpaceSectorLLRBTD1Ev, symObjAddr: 0x9BC, symBinAddr: 0x1000103C8, symSize: 0x2C }
  - { offsetInCU: 0xB97E, offset: 0x34505, size: 0x8, addend: 0x0, symName: __ZN16SpaceSectorLLRBT12insertSectorEP6Sectoriii, symObjAddr: 0x9E8, symBinAddr: 0x1000103F4, symSize: 0x3A8 }
  - { offsetInCU: 0xBA0A, offset: 0x34591, size: 0x8, addend: 0x0, symName: __ZN16SpaceSectorLLRBT18compareCoordinatesEiiiPK6Sector, symObjAddr: 0xEAC, symBinAddr: 0x10001079C, symSize: 0x11C }
  - { offsetInCU: 0xBA69, offset: 0x345F0, size: 0x8, addend: 0x0, symName: __ZN16SpaceSectorLLRBT5isRedEP6Sector, symObjAddr: 0xFC8, symBinAddr: 0x1000108B8, symSize: 0x54 }
  - { offsetInCU: 0xBA9E, offset: 0x34625, size: 0x8, addend: 0x0, symName: __ZN16SpaceSectorLLRBT10rotateLeftEP6Sector, symObjAddr: 0x101C, symBinAddr: 0x10001090C, symSize: 0x124 }
  - { offsetInCU: 0xBAE1, offset: 0x34668, size: 0x8, addend: 0x0, symName: __ZN16SpaceSectorLLRBT11rotateRightEP6Sector, symObjAddr: 0x1140, symBinAddr: 0x100010A30, symSize: 0x124 }
  - { offsetInCU: 0xBB24, offset: 0x346AB, size: 0x8, addend: 0x0, symName: __ZN16SpaceSectorLLRBT10flipColorsEP6Sector, symObjAddr: 0x1264, symBinAddr: 0x100010B54, symSize: 0x38 }
  - { offsetInCU: 0xBB59, offset: 0x346E0, size: 0x8, addend: 0x0, symName: __ZN16SpaceSectorLLRBT21displaySectorsInOrderEv, symObjAddr: 0x129C, symBinAddr: 0x100010B8C, symSize: 0x64 }
  - { offsetInCU: 0xBB80, offset: 0x34707, size: 0x8, addend: 0x0, symName: __ZN16SpaceSectorLLRBT15traverseInorderEP6Sector, symObjAddr: 0x1384, symBinAddr: 0x100010BF0, symSize: 0xBC }
  - { offsetInCU: 0xBBB5, offset: 0x3473C, size: 0x8, addend: 0x0, symName: __ZN16SpaceSectorLLRBT22displaySectorsPreOrderEv, symObjAddr: 0x148C, symBinAddr: 0x100010CAC, symSize: 0x64 }
  - { offsetInCU: 0xBBDC, offset: 0x34763, size: 0x8, addend: 0x0, symName: __ZN16SpaceSectorLLRBT16traversePreorderEP6Sector, symObjAddr: 0x14F0, symBinAddr: 0x100010D10, symSize: 0xBC }
  - { offsetInCU: 0xBC11, offset: 0x34798, size: 0x8, addend: 0x0, symName: __ZN16SpaceSectorLLRBT23displaySectorsPostOrderEv, symObjAddr: 0x15AC, symBinAddr: 0x100010DCC, symSize: 0x64 }
  - { offsetInCU: 0xBC38, offset: 0x347BF, size: 0x8, addend: 0x0, symName: __ZN16SpaceSectorLLRBT17traversePostorderEP6Sector, symObjAddr: 0x1610, symBinAddr: 0x100010E30, symSize: 0xBC }
  - { offsetInCU: 0xBC6D, offset: 0x347F4, size: 0x8, addend: 0x0, symName: __ZN16SpaceSectorLLRBT14getStellarPathERKNSt3__112basic_stringIcNS0_11char_traitsIcEENS0_9allocatorIcEEEE, symObjAddr: 0x16CC, symBinAddr: 0x100010EEC, symSize: 0x6BC }
  - { offsetInCU: 0xBE04, offset: 0x3498B, size: 0x8, addend: 0x0, symName: __ZNSt3__16vectorIP6SectorNS_9allocatorIS2_EEEC1B7v160006EOS5_, symObjAddr: 0x1DE0, symBinAddr: 0x1000115A8, symSize: 0x34 }
  - { offsetInCU: 0xBE3E, offset: 0x349C5, size: 0x8, addend: 0x0, symName: __ZN16SpaceSectorLLRBT15deepFirstSearchEP6SectorS1_NSt3__16vectorIS1_NS2_9allocatorIS1_EEEE, symObjAddr: 0x1F20, symBinAddr: 0x1000115DC, symSize: 0x210 }
  - { offsetInCU: 0xBEB4, offset: 0x34A3B, size: 0x8, addend: 0x0, symName: __ZNSt3__16vectorIP6SectorNS_9allocatorIS2_EEEixB7v160006Em, symObjAddr: 0x21D8, symBinAddr: 0x1000117EC, symSize: 0x24 }
  - { offsetInCU: 0xBEEA, offset: 0x34A71, size: 0x8, addend: 0x0, symName: __ZNSt3__16vectorIP6SectorNS_9allocatorIS2_EEEC1ERKS5_, symObjAddr: 0x2268, symBinAddr: 0x100011810, symSize: 0x34 }
  - { offsetInCU: 0xBF24, offset: 0x34AAB, size: 0x8, addend: 0x0, symName: __ZN16SpaceSectorLLRBT16printStellarPathERKNSt3__16vectorIP6SectorNS0_9allocatorIS3_EEEE, symObjAddr: 0x229C, symBinAddr: 0x100011844, symSize: 0x114 }
  - { offsetInCU: 0xBFCE, offset: 0x34B55, size: 0x8, addend: 0x0, symName: __ZNSt3__16vectorIP6SectorNS_9allocatorIS2_EEEC2B7v160006EOS5_, symObjAddr: 0x957C, symBinAddr: 0x100011958, symSize: 0xDC }
  - { offsetInCU: 0xC00D, offset: 0x34B94, size: 0x8, addend: 0x0, symName: __ZNSt3__117__compressed_pairIPP6SectorNS_9allocatorIS2_EEEC1B7v160006IDnS5_EEOT_OT0_, symObjAddr: 0x9658, symBinAddr: 0x100011A34, symSize: 0x3C }
  - { offsetInCU: 0xC063, offset: 0x34BEA, size: 0x8, addend: 0x0, symName: __ZNSt3__117__compressed_pairIPP6SectorNS_9allocatorIS2_EEEC2B7v160006IDnS5_EEOT_OT0_, symObjAddr: 0x96D0, symBinAddr: 0x100011A70, symSize: 0x44 }
  - { offsetInCU: 0xC0B9, offset: 0x34C40, size: 0x8, addend: 0x0, symName: __ZNSt3__122__compressed_pair_elemINS_9allocatorIP6SectorEELi1ELb1EEC2B7v160006IS4_vEEOT_, symObjAddr: 0x9714, symBinAddr: 0x100011AB4, symSize: 0x18 }
  - { offsetInCU: 0xC12B, offset: 0x34CB2, size: 0x8, addend: 0x0, symName: __ZNSt3__16vectorIP6SectorNS_9allocatorIS2_EEEC2ERKS5_, symObjAddr: 0xBAF8, symBinAddr: 0x100011ACC, symSize: 0x110 }
  - { offsetInCU: 0xC18A, offset: 0x34D11, size: 0x8, addend: 0x0, symName: __ZNSt3__116allocator_traitsINS_9allocatorIP6SectorEEE37select_on_container_copy_constructionB7v160006IS4_vvEES4_RKS4_, symObjAddr: 0xBC08, symBinAddr: 0x100011BDC, symSize: 0x10 }
  - { offsetInCU: 0xC1B9, offset: 0x34D40, size: 0x8, addend: 0x0, symName: __ZNSt3__16vectorIP6SectorNS_9allocatorIS2_EEE11__vallocateB7v160006Em, symObjAddr: 0xBC58, symBinAddr: 0x100011C2C, symSize: 0xAC }
  - { offsetInCU: 0xC1FB, offset: 0x34D82, size: 0x8, addend: 0x0, symName: __ZNSt3__16vectorIP6SectorNS_9allocatorIS2_EEE18__construct_at_endIPS2_Li0EEEvT_S8_m, symObjAddr: 0xBD04, symBinAddr: 0x100011CD8, symSize: 0x8C }
  - { offsetInCU: 0xC26D, offset: 0x34DF4, size: 0x8, addend: 0x0, symName: __ZNSt3__128__exception_guard_exceptionsINS_6vectorIP6SectorNS_9allocatorIS3_EEE16__destroy_vectorEE10__completeB7v160006Ev, symObjAddr: 0xBD90, symBinAddr: 0x100011D64, symSize: 0x1C }
  - { offsetInCU: 0xC291, offset: 0x34E18, size: 0x8, addend: 0x0, symName: __ZNSt3__128__exception_guard_exceptionsINS_6vectorIP6SectorNS_9allocatorIS3_EEE16__destroy_vectorEED1B7v160006Ev, symObjAddr: 0xBDAC, symBinAddr: 0x100011D80, symSize: 0x2C }
  - { offsetInCU: 0xC2B9, offset: 0x34E40, size: 0x8, addend: 0x0, symName: __ZNSt3__128__exception_guard_exceptionsINS_6vectorIP6SectorNS_9allocatorIS3_EEE16__destroy_vectorEEC1B7v160006ES7_, symObjAddr: 0xBDD8, symBinAddr: 0x100011DAC, symSize: 0x34 }
  - { offsetInCU: 0xC2EF, offset: 0x34E76, size: 0x8, addend: 0x0, symName: __ZNSt3__128__exception_guard_exceptionsINS_6vectorIP6SectorNS_9allocatorIS3_EEE16__destroy_vectorEEC2B7v160006ES7_, symObjAddr: 0xBE0C, symBinAddr: 0x100011DE0, symSize: 0x24 }
  - { offsetInCU: 0xC325, offset: 0x34EAC, size: 0x8, addend: 0x0, symName: __ZNSt3__129_AllocatorDestroyRangeReverseINS_9allocatorIP6SectorEEPS3_EC1B7v160006ERS4_RS5_S8_, symObjAddr: 0xBF70, symBinAddr: 0x100011F44, symSize: 0x44 }
  - { offsetInCU: 0xC37A, offset: 0x34F01, size: 0x8, addend: 0x0, symName: __ZNSt3__116allocator_traitsINS_9allocatorIP6SectorEEE9constructB7v160006IS3_JRS3_EvEEvRS4_PT_DpOT0_, symObjAddr: 0xBFB4, symBinAddr: 0x100011F88, symSize: 0x34 }
  - { offsetInCU: 0xC3D0, offset: 0x34F57, size: 0x8, addend: 0x0, symName: __ZNSt3__128__exception_guard_exceptionsINS_29_AllocatorDestroyRangeReverseINS_9allocatorIP6SectorEEPS4_EEE10__completeB7v160006Ev, symObjAddr: 0xBFE8, symBinAddr: 0x100011FBC, symSize: 0x1C }
  - { offsetInCU: 0xC3F4, offset: 0x34F7B, size: 0x8, addend: 0x0, symName: __ZNSt3__128__exception_guard_exceptionsINS_29_AllocatorDestroyRangeReverseINS_9allocatorIP6SectorEEPS4_EEED1B7v160006Ev, symObjAddr: 0xC004, symBinAddr: 0x100011FD8, symSize: 0x2C }
  - { offsetInCU: 0xC41C, offset: 0x34FA3, size: 0x8, addend: 0x0, symName: __ZNSt3__128__exception_guard_exceptionsINS_29_AllocatorDestroyRangeReverseINS_9allocatorIP6SectorEEPS4_EEEC1B7v160006ES7_, symObjAddr: 0xC030, symBinAddr: 0x100012004, symSize: 0x34 }
  - { offsetInCU: 0xC453, offset: 0x34FDA, size: 0x8, addend: 0x0, symName: __ZNSt3__128__exception_guard_exceptionsINS_29_AllocatorDestroyRangeReverseINS_9allocatorIP6SectorEEPS4_EEEC2B7v160006ES7_, symObjAddr: 0xC064, symBinAddr: 0x100012038, symSize: 0x30 }
  - { offsetInCU: 0xC48A, offset: 0x35011, size: 0x8, addend: 0x0, symName: __ZNSt3__129_AllocatorDestroyRangeReverseINS_9allocatorIP6SectorEEPS3_EC2B7v160006ERS4_RS5_S8_, symObjAddr: 0xC094, symBinAddr: 0x100012068, symSize: 0x38 }
  - { offsetInCU: 0xC4DF, offset: 0x35066, size: 0x8, addend: 0x0, symName: __ZNSt3__19allocatorIP6SectorE9constructB7v160006IS2_JRS2_EEEvPT_DpOT0_, symObjAddr: 0xC0CC, symBinAddr: 0x1000120A0, symSize: 0x28 }
  - { offsetInCU: 0xC533, offset: 0x350BA, size: 0x8, addend: 0x0, symName: __ZNSt3__128__exception_guard_exceptionsINS_29_AllocatorDestroyRangeReverseINS_9allocatorIP6SectorEEPS4_EEED2B7v160006Ev, symObjAddr: 0xC0F4, symBinAddr: 0x1000120C8, symSize: 0x50 }
  - { offsetInCU: 0xC55B, offset: 0x350E2, size: 0x8, addend: 0x0, symName: __ZNKSt3__129_AllocatorDestroyRangeReverseINS_9allocatorIP6SectorEEPS3_EclB7v160006Ev, symObjAddr: 0xC144, symBinAddr: 0x100012118, symSize: 0x68 }
  - { offsetInCU: 0xC584, offset: 0x3510B, size: 0x8, addend: 0x0, symName: __ZNSt3__119__to_address_helperINS_16reverse_iteratorIPP6SectorEEvE6__callB7v160006ERKS5_, symObjAddr: 0xC240, symBinAddr: 0x100012214, symSize: 0x38 }
  - { offsetInCU: 0xC5A6, offset: 0x3512D, size: 0x8, addend: 0x0, symName: __ZNKSt3__116reverse_iteratorIPP6SectorEptB7v160006Ev, symObjAddr: 0xC278, symBinAddr: 0x10001224C, symSize: 0x24 }
  - { offsetInCU: 0xC5CA, offset: 0x35151, size: 0x8, addend: 0x0, symName: __ZNSt3__128__exception_guard_exceptionsINS_6vectorIP6SectorNS_9allocatorIS3_EEE16__destroy_vectorEED2B7v160006Ev, symObjAddr: 0xC29C, symBinAddr: 0x100012270, symSize: 0x50 }
  - { offsetInCU: 0x26, offset: 0x351C6, size: 0x8, addend: 0x0, symName: __ZN7KD_TreeC2Ev, symObjAddr: 0x0, symBinAddr: 0x1000122C0, symSize: 0x24 }
  - { offsetInCU: 0x7635, offset: 0x3C7D5, size: 0x8, addend: 0x0, symName: __ZN7KD_TreeC2Ev, symObjAddr: 0x0, symBinAddr: 0x1000122C0, symSize: 0x24 }
  - { offsetInCU: 0x7660, offset: 0x3C800, size: 0x8, addend: 0x0, symName: __ZN7KD_TreeC1Ev, symObjAddr: 0x24, symBinAddr: 0x1000122E4, symSize: 0x2C }
  - { offsetInCU: 0x768B, offset: 0x3C82B, size: 0x8, addend: 0x0, symName: __ZN7KD_TreeC2Ed, symObjAddr: 0x50, symBinAddr: 0x100012310, symSize: 0x24 }
  - { offsetInCU: 0x76C4, offset: 0x3C864, size: 0x8, addend: 0x0, symName: __ZN7KD_TreeC1Ed, symObjAddr: 0x74, symBinAddr: 0x100012334, symSize: 0x34 }
  - { offsetInCU: 0x76FD, offset: 0x3C89D, size: 0x8, addend: 0x0, symName: __ZN7KD_TreeD2Ev, symObjAddr: 0xA8, symBinAddr: 0x100012368, symSize: 0x14 }
  - { offsetInCU: 0x7728, offset: 0x3C8C8, size: 0x8, addend: 0x0, symName: __ZN7KD_TreeD1Ev, symObjAddr: 0xBC, symBinAddr: 0x10001237C, symSize: 0x2C }
  - { offsetInCU: 0x7753, offset: 0x3C8F3, size: 0x8, addend: 0x0, symName: __ZN7KD_Tree5buildER7Dataset, symObjAddr: 0xE8, symBinAddr: 0x1000123A8, symSize: 0x14 }
  - { offsetInCU: 0x7788, offset: 0x3C928, size: 0x8, addend: 0x0, symName: __ZN7KD_Tree7getRootEv, symObjAddr: 0xFC, symBinAddr: 0x1000123BC, symSize: 0x14 }
  - { offsetInCU: 0x26, offset: 0x3C97A, size: 0x8, addend: 0x0, symName: __ZN3KNNC2Eid, symObjAddr: 0x0, symBinAddr: 0x1000123D0, symSize: 0x44 }
  - { offsetInCU: 0x6A6F, offset: 0x433C3, size: 0x8, addend: 0x0, symName: __ZN3KNNC2Eid, symObjAddr: 0x0, symBinAddr: 0x1000123D0, symSize: 0x44 }
  - { offsetInCU: 0x6AB6, offset: 0x4340A, size: 0x8, addend: 0x0, symName: __ZN3KNNC1Eid, symObjAddr: 0x44, symBinAddr: 0x100012414, symSize: 0x3C }
  - { offsetInCU: 0x6AFD, offset: 0x43451, size: 0x8, addend: 0x0, symName: __ZN3KNN5trainER7Dataset, symObjAddr: 0x80, symBinAddr: 0x100012450, symSize: 0x14 }
  - { offsetInCU: 0x6B32, offset: 0x43486, size: 0x8, addend: 0x0, symName: __ZN3KNN7predictERK5Point, symObjAddr: 0x94, symBinAddr: 0x100012464, symSize: 0x18 }
...
