---
triple:          'arm64-apple-darwin'
binary-path:     Test
relocations:
  - { offsetInCU: 0x26, offset: 0x26, size: 0x8, addend: 0x0, symName: __ZN7KD_TreeC2Ev, symObjAddr: 0x0, symBinAddr: 0x1000040A0, symSize: 0x24 }
  - { offsetInCU: 0x8149, offset: 0x8149, size: 0x8, addend: 0x0, symName: __ZN7KD_TreeC2Ev, symObjAddr: 0x0, symBinAddr: 0x1000040A0, symSize: 0x24 }
  - { offsetInCU: 0x8173, offset: 0x8173, size: 0x8, addend: 0x0, symName: __ZN7KD_TreeC1Ev, symObjAddr: 0x24, symBinAddr: 0x1000040C4, symSize: 0x2C }
  - { offsetInCU: 0x819D, offset: 0x819D, size: 0x8, addend: 0x0, symName: __ZN7KD_TreeC2Ed, symObjAddr: 0x50, symBinAddr: 0x1000040F0, symSize: 0x24 }
  - { offsetInCU: 0x81D5, offset: 0x81D5, size: 0x8, addend: 0x0, symName: __ZN7KD_TreeC1Ed, symObjAddr: 0x74, symBinAddr: 0x100004114, symSize: 0x34 }
  - { offsetInCU: 0x820D, offset: 0x820D, size: 0x8, addend: 0x0, symName: __ZN7KD_TreeD2Ev, symObjAddr: 0xA8, symBinAddr: 0x100004148, symSize: 0x14 }
  - { offsetInCU: 0x8237, offset: 0x8237, size: 0x8, addend: 0x0, symName: __ZN7KD_TreeD1Ev, symObjAddr: 0xBC, symBinAddr: 0x10000415C, symSize: 0x2C }
  - { offsetInCU: 0x8261, offset: 0x8261, size: 0x8, addend: 0x0, symName: __ZN7KD_Tree5buildER7Dataset, symObjAddr: 0xE8, symBinAddr: 0x100004188, symSize: 0x14 }
  - { offsetInCU: 0x8295, offset: 0x8295, size: 0x8, addend: 0x0, symName: __ZN7KD_Tree7getRootEv, symObjAddr: 0xFC, symBinAddr: 0x10000419C, symSize: 0x14 }
  - { offsetInCU: 0x2999, offset: 0xAC59, size: 0x8, addend: 0x0, symName: __ZNSt3__1plB7v160006IcNS_11char_traitsIcEENS_9allocatorIcEEEENS_12basic_stringIT_T0_T1_EEOS9_RKS9_, symObjAddr: 0x64C, symBinAddr: 0x1000047FC, symSize: 0x40 }
  - { offsetInCU: 0x29F1, offset: 0xACB1, size: 0x8, addend: 0x0, symName: __ZNSt3__119__debug_db_insert_cB7v160006INS_12basic_stringIcNS_11char_traitsIcEENS_9allocatorIcEEEEEEvPT_, symObjAddr: 0x908, symBinAddr: 0x100004AB8, symSize: 0x10 }
  - { offsetInCU: 0x2A22, offset: 0xACE2, size: 0x8, addend: 0x0, symName: __ZNSt3__119__libcpp_deallocateB7v160006EPvmm, symObjAddr: 0xD64, symBinAddr: 0x100004F14, symSize: 0x30 }
  - { offsetInCU: 0x2A6A, offset: 0xAD2A, size: 0x8, addend: 0x0, symName: __ZNSt3__127__do_deallocate_handle_sizeB7v160006IJEEEvPvmDpT_, symObjAddr: 0xD94, symBinAddr: 0x100004F44, symSize: 0x28 }
  - { offsetInCU: 0x2AA8, offset: 0xAD68, size: 0x8, addend: 0x0, symName: __ZNSt3__124__libcpp_operator_deleteB7v160006IJPvEEEvDpT_, symObjAddr: 0xDBC, symBinAddr: 0x100004F6C, symSize: 0x24 }
  - { offsetInCU: 0x2B10, offset: 0xADD0, size: 0x8, addend: 0x0, symName: __ZNSt3__118__constexpr_strlenB7v160006EPKc, symObjAddr: 0xEF8, symBinAddr: 0x1000050A8, symSize: 0x24 }
  - { offsetInCU: 0x2B3C, offset: 0xADFC, size: 0x8, addend: 0x0, symName: __ZNSt3__112__to_addressB7v160006IKcEEPT_S3_, symObjAddr: 0x1018, symBinAddr: 0x1000051C8, symSize: 0x14 }
  - { offsetInCU: 0x2BA4, offset: 0xAE64, size: 0x8, addend: 0x0, symName: __ZNSt3__115__debug_db_swapB7v160006INS_12basic_stringIcNS_11char_traitsIcEENS_9allocatorIcEEEEEEvPT_S8_, symObjAddr: 0x11C0, symBinAddr: 0x100005370, symSize: 0x14 }
  - { offsetInCU: 0x4BE7, offset: 0xCEA7, size: 0x8, addend: 0x0, symName: __ZN6SectorC2Eiii, symObjAddr: 0x0, symBinAddr: 0x1000041B0, symSize: 0x100 }
  - { offsetInCU: 0x4C3B, offset: 0xCEFB, size: 0x8, addend: 0x0, symName: __ZNSt3__112basic_stringIcNS_11char_traitsIcEENS_9allocatorIcEEEC1B7v160006Ev, symObjAddr: 0x100, symBinAddr: 0x1000042B0, symSize: 0x2C }
  - { offsetInCU: 0x4C63, offset: 0xCF23, size: 0x8, addend: 0x0, symName: __Z4sqrtB7v160006IiENSt3__19enable_ifIXsr3std11is_integralIT_EE5valueEdE4typeES2_, symObjAddr: 0x12C, symBinAddr: 0x1000042DC, symSize: 0x24 }
  - { offsetInCU: 0x4C9A, offset: 0xCF5A, size: 0x8, addend: 0x0, symName: __ZN6Sector18generateSectorCodeEiii, symObjAddr: 0x150, symBinAddr: 0x100004300, symSize: 0x2E8 }
  - { offsetInCU: 0x4D17, offset: 0xCFD7, size: 0x8, addend: 0x0, symName: __ZNSt3__112basic_stringIcNS_11char_traitsIcEENS_9allocatorIcEEEaSB7v160006EOS5_, symObjAddr: 0x438, symBinAddr: 0x1000045E8, symSize: 0x34 }
  - { offsetInCU: 0x4D4A, offset: 0xD00A, size: 0x8, addend: 0x0, symName: __ZN6SectorC1Eiii, symObjAddr: 0x46C, symBinAddr: 0x10000461C, symSize: 0x44 }
  - { offsetInCU: 0x4D9E, offset: 0xD05E, size: 0x8, addend: 0x0, symName: __ZN6SectorC2Eiiib, symObjAddr: 0x4B0, symBinAddr: 0x100004660, symSize: 0x110 }
  - { offsetInCU: 0x4E00, offset: 0xD0C0, size: 0x8, addend: 0x0, symName: __ZN6SectorC1Eiiib, symObjAddr: 0x5C0, symBinAddr: 0x100004770, symSize: 0x58 }
  - { offsetInCU: 0x4E67, offset: 0xD127, size: 0x8, addend: 0x0, symName: __ZNSt3__112basic_stringIcNS_11char_traitsIcEENS_9allocatorIcEEEC1B7v160006IDnEEPKc, symObjAddr: 0x618, symBinAddr: 0x1000047C8, symSize: 0x34 }
  - { offsetInCU: 0x4EA3, offset: 0xD163, size: 0x8, addend: 0x0, symName: __ZN6SectorD2Ev, symObjAddr: 0x68C, symBinAddr: 0x10000483C, symSize: 0x30 }
  - { offsetInCU: 0x4ECD, offset: 0xD18D, size: 0x8, addend: 0x0, symName: __ZN6SectorD1Ev, symObjAddr: 0x6BC, symBinAddr: 0x10000486C, symSize: 0x2C }
  - { offsetInCU: 0x4EF7, offset: 0xD1B7, size: 0x8, addend: 0x0, symName: __ZN6SectoraSERKS_, symObjAddr: 0x6E8, symBinAddr: 0x100004898, symSize: 0xC0 }
  - { offsetInCU: 0x4F2B, offset: 0xD1EB, size: 0x8, addend: 0x0, symName: __ZNK6SectoreqERKS_, symObjAddr: 0x7A8, symBinAddr: 0x100004958, symSize: 0x90 }
  - { offsetInCU: 0x4F5F, offset: 0xD21F, size: 0x8, addend: 0x0, symName: __ZNK6SectorneERKS_, symObjAddr: 0x838, symBinAddr: 0x1000049E8, symSize: 0x34 }
  - { offsetInCU: 0x4F93, offset: 0xD253, size: 0x8, addend: 0x0, symName: __ZNSt3__112basic_stringIcNS_11char_traitsIcEENS_9allocatorIcEEEC2B7v160006Ev, symObjAddr: 0x86C, symBinAddr: 0x100004A1C, symSize: 0x54 }
  - { offsetInCU: 0x4FC0, offset: 0xD280, size: 0x8, addend: 0x0, symName: __ZNSt3__117__compressed_pairINS_12basic_stringIcNS_11char_traitsIcEENS_9allocatorIcEEE5__repES5_EC1B7v160006INS_18__default_init_tagESA_EEOT_OT0_, symObjAddr: 0x8C0, symBinAddr: 0x100004A70, symSize: 0x3C }
  - { offsetInCU: 0x5016, offset: 0xD2D6, size: 0x8, addend: 0x0, symName: __ZNSt3__112basic_stringIcNS_11char_traitsIcEENS_9allocatorIcEEE14__default_initB7v160006Ev, symObjAddr: 0x918, symBinAddr: 0x100004AC8, symSize: 0x40 }
  - { offsetInCU: 0x503A, offset: 0xD2FA, size: 0x8, addend: 0x0, symName: __ZNSt3__117__compressed_pairINS_12basic_stringIcNS_11char_traitsIcEENS_9allocatorIcEEE5__repES5_EC2B7v160006INS_18__default_init_tagESA_EEOT_OT0_, symObjAddr: 0x958, symBinAddr: 0x100004B08, symSize: 0x3C }
  - { offsetInCU: 0x5090, offset: 0xD350, size: 0x8, addend: 0x0, symName: __ZNSt3__122__compressed_pair_elemINS_12basic_stringIcNS_11char_traitsIcEENS_9allocatorIcEEE5__repELi0ELb0EEC2B7v160006ENS_18__default_init_tagE, symObjAddr: 0x994, symBinAddr: 0x100004B44, symSize: 0x14 }
  - { offsetInCU: 0x50C2, offset: 0xD382, size: 0x8, addend: 0x0, symName: __ZNSt3__122__compressed_pair_elemINS_9allocatorIcEELi1ELb1EEC2B7v160006ENS_18__default_init_tagE, symObjAddr: 0x9A8, symBinAddr: 0x100004B58, symSize: 0x2C }
  - { offsetInCU: 0x50F4, offset: 0xD3B4, size: 0x8, addend: 0x0, symName: __ZNSt3__19allocatorIcEC2B7v160006Ev, symObjAddr: 0x9D4, symBinAddr: 0x100004B84, symSize: 0x2C }
  - { offsetInCU: 0x511C, offset: 0xD3DC, size: 0x8, addend: 0x0, symName: __ZNSt3__116__non_trivial_ifILb1ENS_9allocatorIcEEEC2B7v160006Ev, symObjAddr: 0xA00, symBinAddr: 0x100004BB0, symSize: 0x14 }
  - { offsetInCU: 0x5144, offset: 0xD404, size: 0x8, addend: 0x0, symName: __ZNSt3__117__compressed_pairINS_12basic_stringIcNS_11char_traitsIcEENS_9allocatorIcEEE5__repES5_E5firstB7v160006Ev, symObjAddr: 0xA14, symBinAddr: 0x100004BC4, symSize: 0x24 }
  - { offsetInCU: 0x5168, offset: 0xD428, size: 0x8, addend: 0x0, symName: __ZNSt3__122__compressed_pair_elemINS_12basic_stringIcNS_11char_traitsIcEENS_9allocatorIcEEE5__repELi0ELb0EE5__getB7v160006Ev, symObjAddr: 0xA38, symBinAddr: 0x100004BE8, symSize: 0x14 }
  - { offsetInCU: 0x518C, offset: 0xD44C, size: 0x8, addend: 0x0, symName: __ZNSt3__112basic_stringIcNS_11char_traitsIcEENS_9allocatorIcEEE13__move_assignB7v160006ERS5_NS_17integral_constantIbLb1EEE, symObjAddr: 0xA4C, symBinAddr: 0x100004BFC, symSize: 0xC8 }
  - { offsetInCU: 0x51CC, offset: 0xD48C, size: 0x8, addend: 0x0, symName: __ZNKSt3__112basic_stringIcNS_11char_traitsIcEENS_9allocatorIcEEE9__is_longB7v160006Ev, symObjAddr: 0xB14, symBinAddr: 0x100004CC4, symSize: 0x38 }
  - { offsetInCU: 0x51F0, offset: 0xD4B0, size: 0x8, addend: 0x0, symName: __ZNSt3__116allocator_traitsINS_9allocatorIcEEE10deallocateB7v160006ERS2_Pcm, symObjAddr: 0xB4C, symBinAddr: 0x100004CFC, symSize: 0x34 }
  - { offsetInCU: 0x5231, offset: 0xD4F1, size: 0x8, addend: 0x0, symName: __ZNSt3__112basic_stringIcNS_11char_traitsIcEENS_9allocatorIcEEE7__allocB7v160006Ev, symObjAddr: 0xB80, symBinAddr: 0x100004D30, symSize: 0x24 }
  - { offsetInCU: 0x5255, offset: 0xD515, size: 0x8, addend: 0x0, symName: __ZNSt3__112basic_stringIcNS_11char_traitsIcEENS_9allocatorIcEEE18__get_long_pointerB7v160006Ev, symObjAddr: 0xBA4, symBinAddr: 0x100004D54, symSize: 0x28 }
  - { offsetInCU: 0x5279, offset: 0xD539, size: 0x8, addend: 0x0, symName: __ZNKSt3__112basic_stringIcNS_11char_traitsIcEENS_9allocatorIcEEE14__get_long_capB7v160006Ev, symObjAddr: 0xBCC, symBinAddr: 0x100004D7C, symSize: 0x30 }
  - { offsetInCU: 0x529D, offset: 0xD55D, size: 0x8, addend: 0x0, symName: __ZNSt3__112basic_stringIcNS_11char_traitsIcEENS_9allocatorIcEEE19__move_assign_allocB7v160006ERS5_, symObjAddr: 0xBFC, symBinAddr: 0x100004DAC, symSize: 0x2C }
  - { offsetInCU: 0x52D0, offset: 0xD590, size: 0x8, addend: 0x0, symName: __ZNSt3__112basic_stringIcNS_11char_traitsIcEENS_9allocatorIcEEE16__set_short_sizeB7v160006Em, symObjAddr: 0xC28, symBinAddr: 0x100004DD8, symSize: 0x78 }
  - { offsetInCU: 0x5303, offset: 0xD5C3, size: 0x8, addend: 0x0, symName: __ZNSt3__111char_traitsIcE6assignERcRKc, symObjAddr: 0xCA0, symBinAddr: 0x100004E50, symSize: 0x24 }
  - { offsetInCU: 0x5333, offset: 0xD5F3, size: 0x8, addend: 0x0, symName: __ZNSt3__112basic_stringIcNS_11char_traitsIcEENS_9allocatorIcEEE19__get_short_pointerB7v160006Ev, symObjAddr: 0xCC4, symBinAddr: 0x100004E74, symSize: 0x28 }
  - { offsetInCU: 0x5357, offset: 0xD617, size: 0x8, addend: 0x0, symName: __ZNKSt3__117__compressed_pairINS_12basic_stringIcNS_11char_traitsIcEENS_9allocatorIcEEE5__repES5_E5firstB7v160006Ev, symObjAddr: 0xCEC, symBinAddr: 0x100004E9C, symSize: 0x24 }
  - { offsetInCU: 0x537B, offset: 0xD63B, size: 0x8, addend: 0x0, symName: __ZNKSt3__122__compressed_pair_elemINS_12basic_stringIcNS_11char_traitsIcEENS_9allocatorIcEEE5__repELi0ELb0EE5__getB7v160006Ev, symObjAddr: 0xD10, symBinAddr: 0x100004EC0, symSize: 0x14 }
  - { offsetInCU: 0x539F, offset: 0xD65F, size: 0x8, addend: 0x0, symName: __ZNSt3__19allocatorIcE10deallocateB7v160006EPcm, symObjAddr: 0xD24, symBinAddr: 0x100004ED4, symSize: 0x40 }
  - { offsetInCU: 0x53DF, offset: 0xD69F, size: 0x8, addend: 0x0, symName: __ZNSt3__117__compressed_pairINS_12basic_stringIcNS_11char_traitsIcEENS_9allocatorIcEEE5__repES5_E6secondB7v160006Ev, symObjAddr: 0xDE0, symBinAddr: 0x100004F90, symSize: 0x24 }
  - { offsetInCU: 0x5403, offset: 0xD6C3, size: 0x8, addend: 0x0, symName: __ZNSt3__122__compressed_pair_elemINS_9allocatorIcEELi1ELb1EE5__getB7v160006Ev, symObjAddr: 0xE04, symBinAddr: 0x100004FB4, symSize: 0x14 }
  - { offsetInCU: 0x5427, offset: 0xD6E7, size: 0x8, addend: 0x0, symName: __ZNSt3__112basic_stringIcNS_11char_traitsIcEENS_9allocatorIcEEE19__move_assign_allocB7v160006ERS5_NS_17integral_constantIbLb1EEE, symObjAddr: 0xE18, symBinAddr: 0x100004FC8, symSize: 0x38 }
  - { offsetInCU: 0x5465, offset: 0xD725, size: 0x8, addend: 0x0, symName: __ZNSt3__114pointer_traitsIPcE10pointer_toB7v160006ERc, symObjAddr: 0xE50, symBinAddr: 0x100005000, symSize: 0x14 }
  - { offsetInCU: 0x5487, offset: 0xD747, size: 0x8, addend: 0x0, symName: __ZNSt3__112basic_stringIcNS_11char_traitsIcEENS_9allocatorIcEEEC2B7v160006IDnEEPKc, symObjAddr: 0xE64, symBinAddr: 0x100005014, symSize: 0x60 }
  - { offsetInCU: 0x54C3, offset: 0xD783, size: 0x8, addend: 0x0, symName: __ZNSt3__111char_traitsIcE6lengthEPKc, symObjAddr: 0xEC4, symBinAddr: 0x100005074, symSize: 0x34 }
  - { offsetInCU: 0x54E5, offset: 0xD7A5, size: 0x8, addend: 0x0, symName: __ZNSt3__112basic_stringIcNS_11char_traitsIcEENS_9allocatorIcEEE6appendB7v160006ERKS5_, symObjAddr: 0xF1C, symBinAddr: 0x1000050CC, symSize: 0x4C }
  - { offsetInCU: 0x5518, offset: 0xD7D8, size: 0x8, addend: 0x0, symName: __ZNSt3__112basic_stringIcNS_11char_traitsIcEENS_9allocatorIcEEEC1B7v160006EOS5_, symObjAddr: 0xF68, symBinAddr: 0x100005118, symSize: 0x34 }
  - { offsetInCU: 0x554F, offset: 0xD80F, size: 0x8, addend: 0x0, symName: __ZNKSt3__112basic_stringIcNS_11char_traitsIcEENS_9allocatorIcEEE4dataB7v160006Ev, symObjAddr: 0xF9C, symBinAddr: 0x10000514C, symSize: 0x28 }
  - { offsetInCU: 0x5573, offset: 0xD833, size: 0x8, addend: 0x0, symName: __ZNKSt3__112basic_stringIcNS_11char_traitsIcEENS_9allocatorIcEEE4sizeB7v160006Ev, symObjAddr: 0xFC4, symBinAddr: 0x100005174, symSize: 0x54 }
  - { offsetInCU: 0x5597, offset: 0xD857, size: 0x8, addend: 0x0, symName: __ZNKSt3__112basic_stringIcNS_11char_traitsIcEENS_9allocatorIcEEE13__get_pointerB7v160006Ev, symObjAddr: 0x102C, symBinAddr: 0x1000051DC, symSize: 0x54 }
  - { offsetInCU: 0x55BB, offset: 0xD87B, size: 0x8, addend: 0x0, symName: __ZNKSt3__112basic_stringIcNS_11char_traitsIcEENS_9allocatorIcEEE18__get_long_pointerB7v160006Ev, symObjAddr: 0x1080, symBinAddr: 0x100005230, symSize: 0x28 }
  - { offsetInCU: 0x55DF, offset: 0xD89F, size: 0x8, addend: 0x0, symName: __ZNKSt3__112basic_stringIcNS_11char_traitsIcEENS_9allocatorIcEEE19__get_short_pointerB7v160006Ev, symObjAddr: 0x10A8, symBinAddr: 0x100005258, symSize: 0x28 }
  - { offsetInCU: 0x5603, offset: 0xD8C3, size: 0x8, addend: 0x0, symName: __ZNSt3__114pointer_traitsIPKcE10pointer_toB7v160006ERS1_, symObjAddr: 0x10D0, symBinAddr: 0x100005280, symSize: 0x14 }
  - { offsetInCU: 0x5625, offset: 0xD8E5, size: 0x8, addend: 0x0, symName: __ZNKSt3__112basic_stringIcNS_11char_traitsIcEENS_9allocatorIcEEE15__get_long_sizeB7v160006Ev, symObjAddr: 0x10E4, symBinAddr: 0x100005294, symSize: 0x28 }
  - { offsetInCU: 0x5649, offset: 0xD909, size: 0x8, addend: 0x0, symName: __ZNKSt3__112basic_stringIcNS_11char_traitsIcEENS_9allocatorIcEEE16__get_short_sizeB7v160006Ev, symObjAddr: 0x110C, symBinAddr: 0x1000052BC, symSize: 0x34 }
  - { offsetInCU: 0x566D, offset: 0xD92D, size: 0x8, addend: 0x0, symName: __ZNSt3__112basic_stringIcNS_11char_traitsIcEENS_9allocatorIcEEEC2B7v160006EOS5_, symObjAddr: 0x1140, symBinAddr: 0x1000052F0, symSize: 0x80 }
  - { offsetInCU: 0x5C, offset: 0xD9E8, size: 0x8, addend: 0x0, symName: __ZNSt3__1L19piecewise_constructE, symObjAddr: 0xC4CF, symBinAddr: 0x100057990, symSize: 0x0 }
  - { offsetInCU: 0x4338, offset: 0x11CC4, size: 0x8, addend: 0x0, symName: __ZNSt3__124__put_character_sequenceB7v160006IcNS_11char_traitsIcEEEERNS_13basic_ostreamIT_T0_EES7_PKS4_m, symObjAddr: 0x3678, symBinAddr: 0x100008610, symSize: 0x1EC }
  - { offsetInCU: 0xC64A, offset: 0x19FD6, size: 0x8, addend: 0x0, symName: __ZNSt3__1lsB7v160006INS_11char_traitsIcEEEERNS_13basic_ostreamIcT_EES6_PKc, symObjAddr: 0x590, symBinAddr: 0x100005908, symSize: 0x48 }
  - { offsetInCU: 0xC690, offset: 0x1A01C, size: 0x8, addend: 0x0, symName: __ZNSt3__17getlineB7v160006IcNS_11char_traitsIcEENS_9allocatorIcEEEERNS_13basic_istreamIT_T0_EES9_RNS_12basic_stringIS6_S7_T1_EE, symObjAddr: 0x604, symBinAddr: 0x100005950, symSize: 0x5C }
  - { offsetInCU: 0xCA34, offset: 0x1A3C0, size: 0x8, addend: 0x0, symName: __ZNSt3__1rsB7v160006IcNS_11char_traitsIcEEEERNS_13basic_istreamIT_T0_EES7_RS4_, symObjAddr: 0x788, symBinAddr: 0x100005AD4, symSize: 0x18C }
  - { offsetInCU: 0xCAD0, offset: 0x1A45C, size: 0x8, addend: 0x0, symName: __ZNSt3__1neB7v160006ERKNS_19__hash_map_iteratorINS_15__hash_iteratorIPNS_11__hash_nodeINS_17__hash_value_typeINS_12basic_stringIcNS_11char_traitsIcEENS_9allocatorIcEEEENS_6vectorIiNS7_IiEEEEEEPvEEEEEESK_, symObjAddr: 0x1468, symBinAddr: 0x1000067B4, symSize: 0x30 }
  - { offsetInCU: 0xCB0D, offset: 0x1A499, size: 0x8, addend: 0x0, symName: __ZNSt3__14endlB7v160006IcNS_11char_traitsIcEEEERNS_13basic_ostreamIT_T0_EES7_, symObjAddr: 0x1724, symBinAddr: 0x100006A70, symSize: 0x58 }
  - { offsetInCU: 0xCB4D, offset: 0x1A4D9, size: 0x8, addend: 0x0, symName: __ZNSt3__1lsB7v160006IcNS_11char_traitsIcEENS_9allocatorIcEEEERNS_13basic_ostreamIT_T0_EES9_RKNS_12basic_stringIS6_S7_T1_EE, symObjAddr: 0x17FC, symBinAddr: 0x100006B48, symSize: 0x4C }
  - { offsetInCU: 0xCBA5, offset: 0x1A531, size: 0x8, addend: 0x0, symName: __ZNSt3__1neB7v160006IcNS_11char_traitsIcEENS_9allocatorIcEEEEbRKNS_12basic_stringIT_T0_T1_EESB_, symObjAddr: 0x1CEC, symBinAddr: 0x100007038, symSize: 0x34 }
  - { offsetInCU: 0xCD75, offset: 0x1A701, size: 0x8, addend: 0x0, symName: __ZNSt3__119__debug_db_insert_cB7v160006INS_13unordered_mapINS_12basic_stringIcNS_11char_traitsIcEENS_9allocatorIcEEEENS_6vectorIiNS5_IiEEEENS_4hashIS7_EENS_8equal_toIS7_EENS5_INS_4pairIKS7_SA_EEEEEEEEvPT_, symObjAddr: 0x26C4, symBinAddr: 0x10000783C, symSize: 0x10 }
  - { offsetInCU: 0xCDA6, offset: 0x1A732, size: 0x8, addend: 0x0, symName: __ZNSt3__118__debug_db_erase_cB7v160006INS_12__hash_tableINS_17__hash_value_typeINS_12basic_stringIcNS_11char_traitsIcEENS_9allocatorIcEEEENS_6vectorIiNS6_IiEEEEEENS_22__unordered_map_hasherIS8_SC_NS_4hashIS8_EENS_8equal_toIS8_EELb1EEENS_21__unordered_map_equalIS8_SC_SH_SF_Lb1EEENS6_ISC_EEEEEEvPT_, symObjAddr: 0x2E44, symBinAddr: 0x100007FBC, symSize: 0x10 }
  - { offsetInCU: 0xCE0A, offset: 0x1A796, size: 0x8, addend: 0x0, symName: __ZNSt3__116__pad_and_outputB7v160006IcNS_11char_traitsIcEEEENS_19ostreambuf_iteratorIT_T0_EES6_PKS4_S8_S8_RNS_8ios_baseES4_, symObjAddr: 0x38B4, symBinAddr: 0x100008818, symSize: 0x240 }
  - { offsetInCU: 0xCEDE, offset: 0x1A86A, size: 0x8, addend: 0x0, symName: __ZNSt3__19use_facetB7v160006INS_5ctypeIcEEEERKT_RKNS_6localeE, symObjAddr: 0x3E14, symBinAddr: 0x100008D78, symSize: 0x2C }
  - { offsetInCU: 0xD3B7, offset: 0x1AD43, size: 0x8, addend: 0x0, symName: __ZNSt3__17getlineB7v160006IcNS_11char_traitsIcEENS_9allocatorIcEEEERNS_13basic_istreamIT_T0_EES9_RNS_12basic_stringIS6_S7_T1_EES6_, symObjAddr: 0x3E9C, symBinAddr: 0x100008DDC, symSize: 0x238 }
  - { offsetInCU: 0xD47C, offset: 0x1AE08, size: 0x8, addend: 0x0, symName: __ZNSt3__125__debug_db_invalidate_allB7v160006INS_12basic_stringIcNS_11char_traitsIcEENS_9allocatorIcEEEEEEvPT_, symObjAddr: 0x43B8, symBinAddr: 0x1000092A4, symSize: 0x10 }
  - { offsetInCU: 0xD4AD, offset: 0x1AE39, size: 0x8, addend: 0x0, symName: __ZNSt3__122__make_exception_guardB7v160006INS_6vectorIiNS_9allocatorIiEEE16__destroy_vectorEEENS_28__exception_guard_exceptionsIT_EES7_, symObjAddr: 0x4A14, symBinAddr: 0x1000097A4, symSize: 0x40 }
  - { offsetInCU: 0xD4E2, offset: 0x1AE6E, size: 0x8, addend: 0x0, symName: __ZNSt3__119__debug_db_insert_cB7v160006INS_6vectorIiNS_9allocatorIiEEEEEEvPT_, symObjAddr: 0x4A88, symBinAddr: 0x100009818, symSize: 0x10 }
  - { offsetInCU: 0xD513, offset: 0x1AE9F, size: 0x8, addend: 0x0, symName: __ZNSt3__119__allocate_at_leastB7v160006INS_9allocatorIiEEEENS_19__allocation_resultINS_16allocator_traitsIT_E7pointerEEERS5_m, symObjAddr: 0x4E24, symBinAddr: 0x100009BB4, symSize: 0x40 }
  - { offsetInCU: 0xD556, offset: 0x1AEE2, size: 0x8, addend: 0x0, symName: __ZNSt3__13minB7v160006ImEERKT_S3_S3_, symObjAddr: 0x4F60, symBinAddr: 0x100009CF0, symSize: 0x2C }
  - { offsetInCU: 0xD7A4, offset: 0x1B130, size: 0x8, addend: 0x0, symName: __ZNSt3__13minB7v160006ImNS_6__lessImmEEEERKT_S5_S5_T0_, symObjAddr: 0x4FEC, symBinAddr: 0x100009D7C, symSize: 0x54 }
  - { offsetInCU: 0xD839, offset: 0x1B1C5, size: 0x8, addend: 0x0, symName: __ZNSt3__120__throw_length_errorB7v160006EPKc, symObjAddr: 0x50C8, symBinAddr: 0x100009E58, symSize: 0x64 }
  - { offsetInCU: 0xD862, offset: 0x1B1EE, size: 0x8, addend: 0x0, symName: __ZNSt3__117__libcpp_allocateB7v160006Emm, symObjAddr: 0x5238, symBinAddr: 0x100009FC8, symSize: 0x28 }
  - { offsetInCU: 0xD89F, offset: 0x1B22B, size: 0x8, addend: 0x0, symName: __ZNSt3__121__libcpp_operator_newB7v160006IJmEEEPvDpT_, symObjAddr: 0x5260, symBinAddr: 0x100009FF0, symSize: 0x24 }
  - { offsetInCU: 0xD8D8, offset: 0x1B264, size: 0x8, addend: 0x0, symName: __ZNSt3__112__to_addressB7v160006IiEEPT_S2_, symObjAddr: 0x537C, symBinAddr: 0x10000A10C, symSize: 0x14 }
  - { offsetInCU: 0xD90D, offset: 0x1B299, size: 0x8, addend: 0x0, symName: __ZNSt3__130__uninitialized_allocator_copyB7v160006INS_9allocatorIiEEiiLPv0EEEPT0_RT_PKS4_S9_S5_, symObjAddr: 0x542C, symBinAddr: 0x10000A1BC, symSize: 0x38 }
  - { offsetInCU: 0xD985, offset: 0x1B311, size: 0x8, addend: 0x0, symName: __ZNSt3__14copyB7v160006IPKiPiEET0_T_S5_S4_, symObjAddr: 0x54D4, symBinAddr: 0x10000A264, symSize: 0x40 }
  - { offsetInCU: 0xD9DF, offset: 0x1B36B, size: 0x8, addend: 0x0, symName: __ZNSt3__16__copyB7v160006INS_17_ClassicAlgPolicyEPKiS3_PiEENS_4pairIT0_T2_EES6_T1_S7_, symObjAddr: 0x5514, symBinAddr: 0x10000A2A4, symSize: 0x44 }
  - { offsetInCU: 0xDA4B, offset: 0x1B3D7, size: 0x8, addend: 0x0, symName: __ZNSt3__123__dispatch_copy_or_moveB7v160006INS_17_ClassicAlgPolicyENS_11__copy_loopIS1_EENS_14__copy_trivialEPKiS6_PiEENS_4pairIT2_T4_EES9_T3_SA_, symObjAddr: 0x5558, symBinAddr: 0x10000A2E8, symSize: 0x44 }
  - { offsetInCU: 0xDAC9, offset: 0x1B455, size: 0x8, addend: 0x0, symName: __ZNSt3__121__unwrap_and_dispatchB7v160006INS_10__overloadINS_11__copy_loopINS_17_ClassicAlgPolicyEEENS_14__copy_trivialEEEPKiS8_PiLi0EEENS_4pairIT0_T2_EESB_T1_SC_, symObjAddr: 0x559C, symBinAddr: 0x10000A32C, symSize: 0xB4 }
  - { offsetInCU: 0xDB58, offset: 0x1B4E4, size: 0x8, addend: 0x0, symName: __ZNSt3__114__unwrap_rangeB7v160006IPKiS2_EENS_4pairIT0_S4_EET_S6_, symObjAddr: 0x5650, symBinAddr: 0x10000A3E0, symSize: 0x60 }
  - { offsetInCU: 0xDCEE, offset: 0x1B67A, size: 0x8, addend: 0x0, symName: __ZNSt3__113__unwrap_iterB7v160006IPiNS_18__unwrap_iter_implIS1_Lb1EEELi0EEEDTclsrT0_8__unwrapclsr3stdE7declvalIT_EEEES5_, symObjAddr: 0x56F8, symBinAddr: 0x10000A488, symSize: 0x24 }
  - { offsetInCU: 0xDD33, offset: 0x1B6BF, size: 0x8, addend: 0x0, symName: __ZNSt3__19make_pairB7v160006IPKiPiEENS_4pairINS_18__unwrap_ref_decayIT_E4typeENS5_IT0_E4typeEEEOS6_OS9_, symObjAddr: 0x571C, symBinAddr: 0x10000A4AC, symSize: 0x38 }
  - { offsetInCU: 0xDD82, offset: 0x1B70E, size: 0x8, addend: 0x0, symName: __ZNSt3__114__rewrap_rangeB7v160006IPKiS2_EET_S3_T0_, symObjAddr: 0x5754, symBinAddr: 0x10000A4E4, symSize: 0x2C }
  - { offsetInCU: 0xDDCE, offset: 0x1B75A, size: 0x8, addend: 0x0, symName: __ZNSt3__113__rewrap_iterB7v160006IPiS1_NS_18__unwrap_iter_implIS1_Lb1EEEEET_S4_T0_, symObjAddr: 0x5780, symBinAddr: 0x10000A510, symSize: 0x3C }
  - { offsetInCU: 0xDE23, offset: 0x1B7AF, size: 0x8, addend: 0x0, symName: __ZNSt3__19make_pairB7v160006IPKiS2_EENS_4pairINS_18__unwrap_ref_decayIT_E4typeENS4_IT0_E4typeEEEOS5_OS8_, symObjAddr: 0x57BC, symBinAddr: 0x10000A54C, symSize: 0x38 }
  - { offsetInCU: 0xDE72, offset: 0x1B7FE, size: 0x8, addend: 0x0, symName: __ZNSt3__113__unwrap_iterB7v160006IPKiNS_18__unwrap_iter_implIS2_Lb1EEELi0EEEDTclsrT0_8__unwrapclsr3stdE7declvalIT_EEEES6_, symObjAddr: 0x57F4, symBinAddr: 0x10000A584, symSize: 0x24 }
  - { offsetInCU: 0xDFDF, offset: 0x1B96B, size: 0x8, addend: 0x0, symName: __ZNSt3__112__to_addressB7v160006IKiEEPT_S3_, symObjAddr: 0x58AC, symBinAddr: 0x10000A63C, symSize: 0x14 }
  - { offsetInCU: 0xE014, offset: 0x1B9A0, size: 0x8, addend: 0x0, symName: __ZNSt3__119__copy_trivial_implB7v160006IKiiEENS_4pairIPT_PT0_EES4_S4_S6_, symObjAddr: 0x58C0, symBinAddr: 0x10000A650, symSize: 0x84 }
  - { offsetInCU: 0xE07C, offset: 0x1BA08, size: 0x8, addend: 0x0, symName: __ZNSt3__19make_pairB7v160006IRPKiPiEENS_4pairINS_18__unwrap_ref_decayIT_E4typeENS6_IT0_E4typeEEEOS7_OSA_, symObjAddr: 0x5944, symBinAddr: 0x10000A6D4, symSize: 0x38 }
  - { offsetInCU: 0xE11F, offset: 0x1BAAB, size: 0x8, addend: 0x0, symName: __ZNSt3__113__rewrap_iterB7v160006IPKiS2_NS_18__unwrap_iter_implIS2_Lb1EEEEET_S5_T0_, symObjAddr: 0x5A80, symBinAddr: 0x10000A810, symSize: 0x3C }
  - { offsetInCU: 0xE174, offset: 0x1BB00, size: 0x8, addend: 0x0, symName: __ZNSt3__118__debug_db_erase_cB7v160006INS_6vectorIiNS_9allocatorIiEEEEEEvPT_, symObjAddr: 0x5D20, symBinAddr: 0x10000AAB0, symSize: 0x10 }
  - { offsetInCU: 0xE1A5, offset: 0x1BB31, size: 0x8, addend: 0x0, symName: __ZNSt3__116__constrain_hashB7v160006Emm, symObjAddr: 0x64D8, symBinAddr: 0x10000B268, symSize: 0x98 }
  - { offsetInCU: 0xE1DF, offset: 0x1BB6B, size: 0x8, addend: 0x0, symName: __ZNSt3__13maxB7v160006ImEERKT_S3_S3_, symObjAddr: 0x67E8, symBinAddr: 0x10000B578, symSize: 0x2C }
  - { offsetInCU: 0xE222, offset: 0x1BBAE, size: 0x8, addend: 0x0, symName: __ZNSt3__116__is_hash_power2B7v160006Em, symObjAddr: 0x6814, symBinAddr: 0x10000B5A4, symSize: 0x50 }
  - { offsetInCU: 0xE24E, offset: 0x1BBDA, size: 0x8, addend: 0x0, symName: __ZNSt3__116__do_string_hashB7v160006IPKcEEmT_S3_, symObjAddr: 0x6A74, symBinAddr: 0x10000B804, symSize: 0x3C }
  - { offsetInCU: 0xE294, offset: 0x1BC20, size: 0x8, addend: 0x0, symName: __ZNSt3__110__loadwordB7v160006ImEET_PKv, symObjAddr: 0x7468, symBinAddr: 0x10000C1F8, symSize: 0x20 }
  - { offsetInCU: 0xE2D7, offset: 0x1BC63, size: 0x8, addend: 0x0, symName: __ZNSt3__14swapB7v160006ImEENS_9enable_ifIXaasr21is_move_constructibleIT_EE5valuesr18is_move_assignableIS2_EE5valueEvE4typeERS2_S5_, symObjAddr: 0x7624, symBinAddr: 0x10000C3B4, symSize: 0x3C }
  - { offsetInCU: 0xE328, offset: 0x1BCB4, size: 0x8, addend: 0x0, symName: __ZNSt3__110__loadwordB7v160006IjEET_PKv, symObjAddr: 0x76B4, symBinAddr: 0x10000C444, symSize: 0x20 }
  - { offsetInCU: 0xE36B, offset: 0x1BCF7, size: 0x8, addend: 0x0, symName: __ZNSt3__1eqB7v160006INS_9allocatorIcEEEEbRKNS_12basic_stringIcNS_11char_traitsIcEET_EES9_, symObjAddr: 0x7994, symBinAddr: 0x10000C724, symSize: 0x148 }
  - { offsetInCU: 0xE3E1, offset: 0x1BD6D, size: 0x8, addend: 0x0, symName: __ZNSt3__118__constexpr_memcmpB7v160006IcEEiPKT_S3_m, symObjAddr: 0x7B48, symBinAddr: 0x10000C8D8, symSize: 0x34 }
  - { offsetInCU: 0xE450, offset: 0x1BDDC, size: 0x8, addend: 0x0, symName: __ZNSt3__115__debug_db_swapB7v160006INS_6vectorIiNS_9allocatorIiEEEEEEvPT_S6_, symObjAddr: 0x8058, symBinAddr: 0x10000CDE8, symSize: 0x14 }
  - { offsetInCU: 0xE48F, offset: 0x1BE1B, size: 0x8, addend: 0x0, symName: __ZNSt3__116__next_hash_pow2B7v160006Em, symObjAddr: 0x8598, symBinAddr: 0x10000D328, symSize: 0x6C }
  - { offsetInCU: 0xE4BB, offset: 0x1BE47, size: 0x8, addend: 0x0, symName: __ZNSt3__125__debug_db_invalidate_allB7v160006INS_12__hash_tableINS_17__hash_value_typeINS_12basic_stringIcNS_11char_traitsIcEENS_9allocatorIcEEEENS_6vectorIiNS6_IiEEEEEENS_22__unordered_map_hasherIS8_SC_NS_4hashIS8_EENS_8equal_toIS8_EELb1EEENS_21__unordered_map_equalIS8_SC_SH_SF_Lb1EEENS6_ISC_EEEEEEvPT_, symObjAddr: 0x8604, symBinAddr: 0x10000D394, symSize: 0x10 }
  - { offsetInCU: 0xE50A, offset: 0x1BE96, size: 0x8, addend: 0x0, symName: __ZNSt3__112__libcpp_clzB7v160006Em, symObjAddr: 0x876C, symBinAddr: 0x10000D4FC, symSize: 0x1C }
  - { offsetInCU: 0xE536, offset: 0x1BEC2, size: 0x8, addend: 0x0, symName: __ZNSt3__13maxB7v160006ImNS_6__lessImmEEEERKT_S5_S5_T0_, symObjAddr: 0x8788, symBinAddr: 0x10000D518, symSize: 0x54 }
  - { offsetInCU: 0xE590, offset: 0x1BF1C, size: 0x8, addend: 0x0, symName: __ZNSt3__1neB7v160006ERKNS_15__hash_iteratorIPNS_11__hash_nodeINS_17__hash_value_typeINS_12basic_stringIcNS_11char_traitsIcEENS_9allocatorIcEEEENS_6vectorIiNS6_IiEEEEEEPvEEEESI_, symObjAddr: 0x8B40, symBinAddr: 0x10000D8D0, symSize: 0x34 }
  - { offsetInCU: 0xE5CD, offset: 0x1BF59, size: 0x8, addend: 0x0, symName: __ZNSt3__1eqB7v160006ERKNS_15__hash_iteratorIPNS_11__hash_nodeINS_17__hash_value_typeINS_12basic_stringIcNS_11char_traitsIcEENS_9allocatorIcEEEENS_6vectorIiNS6_IiEEEEEEPvEEEESI_, symObjAddr: 0x8B74, symBinAddr: 0x10000D904, symSize: 0x30 }
  - { offsetInCU: 0xE63D, offset: 0x1BFC9, size: 0x8, addend: 0x0, symName: __ZNSt3__1neB7v160006ERKNS_21__hash_const_iteratorIPNS_11__hash_nodeINS_17__hash_value_typeINS_12basic_stringIcNS_11char_traitsIcEENS_9allocatorIcEEEENS_6vectorIiNS6_IiEEEEEEPvEEEESI_, symObjAddr: 0x8C6C, symBinAddr: 0x10000D9FC, symSize: 0x34 }
  - { offsetInCU: 0xE67A, offset: 0x1C006, size: 0x8, addend: 0x0, symName: __ZNSt3__1eqB7v160006ERKNS_21__hash_const_iteratorIPNS_11__hash_nodeINS_17__hash_value_typeINS_12basic_stringIcNS_11char_traitsIcEENS_9allocatorIcEEEENS_6vectorIiNS6_IiEEEEEEPvEEEESI_, symObjAddr: 0x8E8C, symBinAddr: 0x10000DC1C, symSize: 0x30 }
  - { offsetInCU: 0xE6EE, offset: 0x1C07A, size: 0x8, addend: 0x0, symName: __ZNSt3__116forward_as_tupleB7v160006IJRKNS_12basic_stringIcNS_11char_traitsIcEENS_9allocatorIcEEEEEEENS_5tupleIJDpOT_EEESC_, symObjAddr: 0x9474, symBinAddr: 0x10000E204, symSize: 0x2C }
  - { offsetInCU: 0xE727, offset: 0x1C0B3, size: 0x8, addend: 0x0, symName: __ZNSt3__116forward_as_tupleB7v160006IJEEENS_5tupleIJDpOT_EEES4_, symObjAddr: 0x94A0, symBinAddr: 0x10000E230, symSize: 0x4 }
  - { offsetInCU: 0xE757, offset: 0x1C0E3, size: 0x8, addend: 0x0, symName: __ZNSt3__13getB7v160006ILm0EJRKNS_12basic_stringIcNS_11char_traitsIcEENS_9allocatorIcEEEEEEERNS_13tuple_elementIXT_ENS_5tupleIJDpT0_EEEE4typeERSD_, symObjAddr: 0x9744, symBinAddr: 0x10000E4D4, symSize: 0x24 }
  - { offsetInCU: 0xE7BE, offset: 0x1C14A, size: 0x8, addend: 0x0, symName: __ZNSt3__130__uninitialized_allocator_copyB7v160006INS_9allocatorIiEEPiS3_S3_EET2_RT_T0_T1_S4_, symObjAddr: 0x9A9C, symBinAddr: 0x10000E82C, symSize: 0xF4 }
  - { offsetInCU: 0xE85E, offset: 0x1C1EA, size: 0x8, addend: 0x0, symName: __ZNSt3__122__make_exception_guardB7v160006INS_29_AllocatorDestroyRangeReverseINS_9allocatorIiEEPiEEEENS_28__exception_guard_exceptionsIT_EES7_, symObjAddr: 0x9B90, symBinAddr: 0x10000E920, symSize: 0x4C }
  - { offsetInCU: 0xE894, offset: 0x1C220, size: 0x8, addend: 0x0, symName: __ZNSt3__119__allocator_destroyB7v160006INS_9allocatorIiEENS_16reverse_iteratorIPiEES5_EEvRT_T0_T1_, symObjAddr: 0x9E18, symBinAddr: 0x10000EBA8, symSize: 0x70 }
  - { offsetInCU: 0xE8F7, offset: 0x1C283, size: 0x8, addend: 0x0, symName: __ZNSt3__1neB7v160006IPiS1_EEbRKNS_16reverse_iteratorIT_EERKNS2_IT0_EE, symObjAddr: 0x9EBC, symBinAddr: 0x10000EC4C, symSize: 0x48 }
  - { offsetInCU: 0xE943, offset: 0x1C2CF, size: 0x8, addend: 0x0, symName: __ZNSt3__112__to_addressB7v160006INS_16reverse_iteratorIPiEEvEENS_5decayIDTclsr19__to_address_helperIT_EE6__callclsr3stdE7declvalIRKS5_EEEEE4typeES7_, symObjAddr: 0x9F04, symBinAddr: 0x10000EC94, symSize: 0x24 }
  - { offsetInCU: 0xE9A3, offset: 0x1C32F, size: 0x8, addend: 0x0, symName: __ZNSt3__119__debug_db_insert_cB7v160006INS_6vectorIP6SectorNS_9allocatorIS3_EEEEEEvPT_, symObjAddr: 0xA5D4, symBinAddr: 0x10000F364, symSize: 0x10 }
  - { offsetInCU: 0xE9D4, offset: 0x1C360, size: 0x8, addend: 0x0, symName: __ZNSt3__118__debug_db_erase_cB7v160006INS_6vectorIP6SectorNS_9allocatorIS3_EEEEEEvPT_, symObjAddr: 0xA898, symBinAddr: 0x10000F628, symSize: 0x10 }
  - { offsetInCU: 0xEA05, offset: 0x1C391, size: 0x8, addend: 0x0, symName: __ZNSt3__112__to_addressB7v160006IP6SectorEEPT_S4_, symObjAddr: 0xA9B4, symBinAddr: 0x10000F744, symSize: 0x14 }
  - { offsetInCU: 0xEA3A, offset: 0x1C3C6, size: 0x8, addend: 0x0, symName: __ZNSt3__119__allocate_at_leastB7v160006INS_9allocatorIP6SectorEEEENS_19__allocation_resultINS_16allocator_traitsIT_E7pointerEEERS7_m, symObjAddr: 0xB2BC, symBinAddr: 0x10001004C, symSize: 0x40 }
  - { offsetInCU: 0xEA7D, offset: 0x1C409, size: 0x8, addend: 0x0, symName: __ZNSt3__142__uninitialized_allocator_move_if_noexceptB7v160006INS_9allocatorIP6SectorEENS_16reverse_iteratorIPS3_EES7_S3_vEET1_RT_T0_SB_S8_, symObjAddr: 0xB470, symBinAddr: 0x100010200, symSize: 0x78 }
  - { offsetInCU: 0xEAFA, offset: 0x1C486, size: 0x8, addend: 0x0, symName: __ZNSt3__14swapB7v160006IPP6SectorEENS_9enable_ifIXaasr21is_move_constructibleIT_EE5valuesr18is_move_assignableIS5_EE5valueEvE4typeERS5_S8_, symObjAddr: 0xB534, symBinAddr: 0x1000102C4, symSize: 0x3C }
  - { offsetInCU: 0xEB4B, offset: 0x1C4D7, size: 0x8, addend: 0x0, symName: __ZNSt3__125__debug_db_invalidate_allB7v160006INS_6vectorIP6SectorNS_9allocatorIS3_EEEEEEvPT_, symObjAddr: 0xB61C, symBinAddr: 0x1000103AC, symSize: 0x10 }
  - { offsetInCU: 0xEB7C, offset: 0x1C508, size: 0x8, addend: 0x0, symName: __ZNSt3__14moveB7v160006INS_16reverse_iteratorIPP6SectorEES5_EET0_T_S7_S6_, symObjAddr: 0xB62C, symBinAddr: 0x1000103BC, symSize: 0x78 }
  - { offsetInCU: 0xEBD6, offset: 0x1C562, size: 0x8, addend: 0x0, symName: __ZNSt3__16__moveB7v160006INS_17_ClassicAlgPolicyENS_16reverse_iteratorIPP6SectorEES6_S6_EENS_4pairIT0_T2_EES8_T1_S9_, symObjAddr: 0xB6A4, symBinAddr: 0x100010434, symSize: 0x64 }
  - { offsetInCU: 0xEC42, offset: 0x1C5CE, size: 0x8, addend: 0x0, symName: __ZNSt3__123__dispatch_copy_or_moveB7v160006INS_17_ClassicAlgPolicyENS_11__move_loopIS1_EENS_14__move_trivialENS_16reverse_iteratorIPP6SectorEES9_S9_EENS_4pairIT2_T4_EESB_T3_SC_, symObjAddr: 0xB708, symBinAddr: 0x100010498, symSize: 0x64 }
  - { offsetInCU: 0xECC0, offset: 0x1C64C, size: 0x8, addend: 0x0, symName: __ZNSt3__121__unwrap_and_dispatchB7v160006INS_10__overloadINS_11__move_loopINS_17_ClassicAlgPolicyEEENS_14__move_trivialEEENS_16reverse_iteratorIPP6SectorEESB_SB_Li0EEENS_4pairIT0_T2_EESD_T1_SE_, symObjAddr: 0xB76C, symBinAddr: 0x1000104FC, symSize: 0x12C }
  - { offsetInCU: 0xED51, offset: 0x1C6DD, size: 0x8, addend: 0x0, symName: __ZNSt3__114__unwrap_rangeB7v160006INS_16reverse_iteratorIPP6SectorEES5_EENS_4pairIT0_S7_EET_S9_, symObjAddr: 0xB898, symBinAddr: 0x100010628, symSize: 0x84 }
  - { offsetInCU: 0xEECC, offset: 0x1C858, size: 0x8, addend: 0x0, symName: __ZNSt3__113__unwrap_iterB7v160006INS_16reverse_iteratorIPP6SectorEENS_18__unwrap_iter_implIS5_Lb0EEELi0EEEDTclsrT0_8__unwrapclsr3stdE7declvalIT_EEEES9_, symObjAddr: 0xB9BC, symBinAddr: 0x10001074C, symSize: 0x44 }
  - { offsetInCU: 0xEF11, offset: 0x1C89D, size: 0x8, addend: 0x0, symName: __ZNSt3__19make_pairB7v160006INS_16reverse_iteratorIPP6SectorEES5_EENS_4pairINS_18__unwrap_ref_decayIT_E4typeENS7_IT0_E4typeEEEOS8_OSB_, symObjAddr: 0xBA00, symBinAddr: 0x100010790, symSize: 0x38 }
  - { offsetInCU: 0xEF60, offset: 0x1C8EC, size: 0x8, addend: 0x0, symName: __ZNSt3__114__rewrap_rangeB7v160006INS_16reverse_iteratorIPP6SectorEES5_EET_S6_T0_, symObjAddr: 0xBA38, symBinAddr: 0x1000107C8, symSize: 0x5C }
  - { offsetInCU: 0xEFAC, offset: 0x1C938, size: 0x8, addend: 0x0, symName: __ZNSt3__113__rewrap_iterB7v160006INS_16reverse_iteratorIPP6SectorEES5_NS_18__unwrap_iter_implIS5_Lb0EEEEET_S8_T0_, symObjAddr: 0xBA94, symBinAddr: 0x100010824, symSize: 0x74 }
  - { offsetInCU: 0xF001, offset: 0x1C98D, size: 0x8, addend: 0x0, symName: __ZNSt3__1neB7v160006IPP6SectorS3_EEbRKNS_16reverse_iteratorIT_EERKNS4_IT0_EE, symObjAddr: 0xBB08, symBinAddr: 0x100010898, symSize: 0x48 }
  - { offsetInCU: 0xF535, offset: 0x1CEC1, size: 0x8, addend: 0x0, symName: __ZSt28__throw_bad_array_new_lengthB7v160006v, symObjAddr: 0x5204, symBinAddr: 0x100009F94, symSize: 0x34 }
  - { offsetInCU: 0x10245, offset: 0x1DBD1, size: 0x8, addend: 0x0, symName: __ZNSt3__16vectorIP6SectorNS_9allocatorIS2_EEE26__swap_out_circular_bufferERNS_14__split_bufferIS2_RS4_EE, symObjAddr: 0xAF54, symBinAddr: 0x10000FCE4, symSize: 0x118 }
  - { offsetInCU: 0x1230A, offset: 0x1FC96, size: 0x8, addend: 0x0, symName: __ZN14SpaceSectorBSTC2Ev, symObjAddr: 0x0, symBinAddr: 0x100005384, symSize: 0x34 }
  - { offsetInCU: 0x12334, offset: 0x1FCC0, size: 0x8, addend: 0x0, symName: __ZNSt3__113unordered_mapINS_12basic_stringIcNS_11char_traitsIcEENS_9allocatorIcEEEENS_6vectorIiNS4_IiEEEENS_4hashIS6_EENS_8equal_toIS6_EENS4_INS_4pairIKS6_S9_EEEEEC1B7v160006Ev, symObjAddr: 0x34, symBinAddr: 0x1000053B8, symSize: 0x2C }
  - { offsetInCU: 0x1235C, offset: 0x1FCE8, size: 0x8, addend: 0x0, symName: __ZN14SpaceSectorBSTC1Ev, symObjAddr: 0x60, symBinAddr: 0x1000053E4, symSize: 0x2C }
  - { offsetInCU: 0x12386, offset: 0x1FD12, size: 0x8, addend: 0x0, symName: __ZN14SpaceSectorBSTD2Ev, symObjAddr: 0x8C, symBinAddr: 0x100005410, symSize: 0x44 }
  - { offsetInCU: 0x123B0, offset: 0x1FD3C, size: 0x8, addend: 0x0, symName: __ZN14SpaceSectorBST10deleteTreeEP6Sector, symObjAddr: 0xD0, symBinAddr: 0x100005454, symSize: 0x8C }
  - { offsetInCU: 0x123E4, offset: 0x1FD70, size: 0x8, addend: 0x0, symName: __ZNSt3__113unordered_mapINS_12basic_stringIcNS_11char_traitsIcEENS_9allocatorIcEEEENS_6vectorIiNS4_IiEEEENS_4hashIS6_EENS_8equal_toIS6_EENS4_INS_4pairIKS6_S9_EEEEED1B7v160006Ev, symObjAddr: 0x168, symBinAddr: 0x1000054E0, symSize: 0x2C }
  - { offsetInCU: 0x1240C, offset: 0x1FD98, size: 0x8, addend: 0x0, symName: __ZN14SpaceSectorBSTD1Ev, symObjAddr: 0x194, symBinAddr: 0x10000550C, symSize: 0x2C }
  - { offsetInCU: 0x12436, offset: 0x1FDC2, size: 0x8, addend: 0x0, symName: __ZN14SpaceSectorBST19readSectorsFromFileERKNSt3__112basic_stringIcNS0_11char_traitsIcEENS0_9allocatorIcEEEE, symObjAddr: 0x1C0, symBinAddr: 0x100005538, symSize: 0x238 }
  - { offsetInCU: 0x125FD, offset: 0x1FF89, size: 0x8, addend: 0x0, symName: __ZNSt3__114basic_ifstreamIcNS_11char_traitsIcEEEC1ERKNS_12basic_stringIcS2_NS_9allocatorIcEEEEj, symObjAddr: 0x3F8, symBinAddr: 0x100005770, symSize: 0x16C }
  - { offsetInCU: 0x12646, offset: 0x1FFD2, size: 0x8, addend: 0x0, symName: __ZNKSt3__114basic_ifstreamIcNS_11char_traitsIcEEE7is_openEv, symObjAddr: 0x564, symBinAddr: 0x1000058DC, symSize: 0x2C }
  - { offsetInCU: 0x1266C, offset: 0x1FFF8, size: 0x8, addend: 0x0, symName: __ZNKSt3__19basic_iosIcNS_11char_traitsIcEEEcvbB7v160006Ev, symObjAddr: 0x660, symBinAddr: 0x1000059AC, symSize: 0x2C }
  - { offsetInCU: 0x126E0, offset: 0x2006C, size: 0x8, addend: 0x0, symName: __ZNSt3__119basic_istringstreamIcNS_11char_traitsIcEENS_9allocatorIcEEEC1B7v160006ERKNS_12basic_stringIcS2_S4_EEj, symObjAddr: 0x68C, symBinAddr: 0x1000059D8, symSize: 0xFC }
  - { offsetInCU: 0x12726, offset: 0x200B2, size: 0x8, addend: 0x0, symName: __ZN14SpaceSectorBST25insertSectorByCoordinatesEiii, symObjAddr: 0x914, symBinAddr: 0x100005C60, symSize: 0x4C }
  - { offsetInCU: 0x1277B, offset: 0x20107, size: 0x8, addend: 0x0, symName: __ZNSt3__119basic_istringstreamIcNS_11char_traitsIcEENS_9allocatorIcEEED1Ev, symObjAddr: 0x960, symBinAddr: 0x100005CAC, symSize: 0x40 }
  - { offsetInCU: 0x127AC, offset: 0x20138, size: 0x8, addend: 0x0, symName: __ZNSt3__114basic_ifstreamIcNS_11char_traitsIcEEED1Ev, symObjAddr: 0x9A0, symBinAddr: 0x100005CEC, symSize: 0x40 }
  - { offsetInCU: 0x127D8, offset: 0x20164, size: 0x8, addend: 0x0, symName: __ZN14SpaceSectorBST12insertSectorEP6Sectoriii, symObjAddr: 0x9E0, symBinAddr: 0x100005D2C, symSize: 0x288 }
  - { offsetInCU: 0x1285E, offset: 0x201EA, size: 0x8, addend: 0x0, symName: __ZNSt3__113unordered_mapINS_12basic_stringIcNS_11char_traitsIcEENS_9allocatorIcEEEENS_6vectorIiNS4_IiEEEENS_4hashIS6_EENS_8equal_toIS6_EENS4_INS_4pairIKS6_S9_EEEEE6insertB7v160006EOSG_, symObjAddr: 0xC68, symBinAddr: 0x100005FB4, symSize: 0x4C }
  - { offsetInCU: 0x12891, offset: 0x2021D, size: 0x8, addend: 0x0, symName: __ZNSt3__16vectorIiNS_9allocatorIiEEEC1B7v160006ESt16initializer_listIiE, symObjAddr: 0xCB4, symBinAddr: 0x100006000, symSize: 0x3C }
  - { offsetInCU: 0x128D0, offset: 0x2025C, size: 0x8, addend: 0x0, symName: __ZNSt3__14pairIKNS_12basic_stringIcNS_11char_traitsIcEENS_9allocatorIcEEEENS_6vectorIiNS4_IiEEEEEC1B7v160006IRS6_SA_LPv0EEEOT_OT0_, symObjAddr: 0xCF0, symBinAddr: 0x10000603C, symSize: 0x3C }
  - { offsetInCU: 0x1292C, offset: 0x202B8, size: 0x8, addend: 0x0, symName: __ZNSt3__14pairIKNS_12basic_stringIcNS_11char_traitsIcEENS_9allocatorIcEEEENS_6vectorIiNS4_IiEEEEED1Ev, symObjAddr: 0xD2C, symBinAddr: 0x100006078, symSize: 0x2C }
  - { offsetInCU: 0x12956, offset: 0x202E2, size: 0x8, addend: 0x0, symName: __ZNSt3__16vectorIiNS_9allocatorIiEEED1B7v160006Ev, symObjAddr: 0xD58, symBinAddr: 0x1000060A4, symSize: 0x2C }
  - { offsetInCU: 0x1297E, offset: 0x2030A, size: 0x8, addend: 0x0, symName: __ZN14SpaceSectorBST18compareCoordinatesEiiiPK6Sector, symObjAddr: 0xD84, symBinAddr: 0x1000060D0, symSize: 0x11C }
  - { offsetInCU: 0x129DC, offset: 0x20368, size: 0x8, addend: 0x0, symName: __ZN14SpaceSectorBST12deleteSectorERKNSt3__112basic_stringIcNS0_11char_traitsIcEENS0_9allocatorIcEEEE, symObjAddr: 0xEA0, symBinAddr: 0x1000061EC, symSize: 0x3C }
  - { offsetInCU: 0x12A10, offset: 0x2039C, size: 0x8, addend: 0x0, symName: __ZN14SpaceSectorBST21deleteSectorRecursiveEP6SectorRKNSt3__112basic_stringIcNS2_11char_traitsIcEENS2_9allocatorIcEEEE, symObjAddr: 0xEDC, symBinAddr: 0x100006228, symSize: 0x51C }
  - { offsetInCU: 0x12B78, offset: 0x20504, size: 0x8, addend: 0x0, symName: __ZNSt3__113unordered_mapINS_12basic_stringIcNS_11char_traitsIcEENS_9allocatorIcEEEENS_6vectorIiNS4_IiEEEENS_4hashIS6_EENS_8equal_toIS6_EENS4_INS_4pairIKS6_S9_EEEEE5beginB7v160006Ev, symObjAddr: 0x13F8, symBinAddr: 0x100006744, symSize: 0x38 }
  - { offsetInCU: 0x12B9C, offset: 0x20528, size: 0x8, addend: 0x0, symName: __ZNSt3__113unordered_mapINS_12basic_stringIcNS_11char_traitsIcEENS_9allocatorIcEEEENS_6vectorIiNS4_IiEEEENS_4hashIS6_EENS_8equal_toIS6_EENS4_INS_4pairIKS6_S9_EEEEE3endB7v160006Ev, symObjAddr: 0x1430, symBinAddr: 0x10000677C, symSize: 0x38 }
  - { offsetInCU: 0x12BC0, offset: 0x2054C, size: 0x8, addend: 0x0, symName: __ZNKSt3__119__hash_map_iteratorINS_15__hash_iteratorIPNS_11__hash_nodeINS_17__hash_value_typeINS_12basic_stringIcNS_11char_traitsIcEENS_9allocatorIcEEEENS_6vectorIiNS7_IiEEEEEEPvEEEEEdeB7v160006Ev, symObjAddr: 0x1498, symBinAddr: 0x1000067E4, symSize: 0x28 }
  - { offsetInCU: 0x12BE4, offset: 0x20570, size: 0x8, addend: 0x0, symName: __ZNSt3__119__hash_map_iteratorINS_15__hash_iteratorIPNS_11__hash_nodeINS_17__hash_value_typeINS_12basic_stringIcNS_11char_traitsIcEENS_9allocatorIcEEEENS_6vectorIiNS7_IiEEEEEEPvEEEEEppB7v160006Ev, symObjAddr: 0x14C0, symBinAddr: 0x10000680C, symSize: 0x2C }
  - { offsetInCU: 0x12C08, offset: 0x20594, size: 0x8, addend: 0x0, symName: __ZNKSt3__113unordered_mapINS_12basic_stringIcNS_11char_traitsIcEENS_9allocatorIcEEEENS_6vectorIiNS4_IiEEEENS_4hashIS6_EENS_8equal_toIS6_EENS4_INS_4pairIKS6_S9_EEEEE5countB7v160006ERSF_, symObjAddr: 0x14EC, symBinAddr: 0x100006838, symSize: 0x2C }
  - { offsetInCU: 0x12C3B, offset: 0x205C7, size: 0x8, addend: 0x0, symName: __ZNSt3__113unordered_mapINS_12basic_stringIcNS_11char_traitsIcEENS_9allocatorIcEEEENS_6vectorIiNS4_IiEEEENS_4hashIS6_EENS_8equal_toIS6_EENS4_INS_4pairIKS6_S9_EEEEEixERSF_, symObjAddr: 0x1518, symBinAddr: 0x100006864, symSize: 0x80 }
  - { offsetInCU: 0x12C70, offset: 0x205FC, size: 0x8, addend: 0x0, symName: __ZNSt3__16vectorIiNS_9allocatorIiEEEC1ERKS3_, symObjAddr: 0x1598, symBinAddr: 0x1000068E4, symSize: 0x34 }
  - { offsetInCU: 0x12CAA, offset: 0x20636, size: 0x8, addend: 0x0, symName: __ZNSt3__16vectorIiNS_9allocatorIiEEEixB7v160006Em, symObjAddr: 0x15CC, symBinAddr: 0x100006918, symSize: 0x24 }
  - { offsetInCU: 0x12CE0, offset: 0x2066C, size: 0x8, addend: 0x0, symName: __ZNSt3__113unordered_mapINS_12basic_stringIcNS_11char_traitsIcEENS_9allocatorIcEEEENS_6vectorIiNS4_IiEEEENS_4hashIS6_EENS_8equal_toIS6_EENS4_INS_4pairIKS6_S9_EEEEE5eraseB7v160006ERSF_, symObjAddr: 0x15F0, symBinAddr: 0x10000693C, symSize: 0x2C }
  - { offsetInCU: 0x12D13, offset: 0x2069F, size: 0x8, addend: 0x0, symName: __ZN14SpaceSectorBST13findMinSectorEP6Sector, symObjAddr: 0x161C, symBinAddr: 0x100006968, symSize: 0x44 }
  - { offsetInCU: 0x12D47, offset: 0x206D3, size: 0x8, addend: 0x0, symName: __ZN6SectorC1ERKS_, symObjAddr: 0x1660, symBinAddr: 0x1000069AC, symSize: 0x34 }
  - { offsetInCU: 0x12D7A, offset: 0x20706, size: 0x8, addend: 0x0, symName: __ZN14SpaceSectorBST21displaySectorsInOrderEv, symObjAddr: 0x1694, symBinAddr: 0x1000069E0, symSize: 0x64 }
  - { offsetInCU: 0x12DA0, offset: 0x2072C, size: 0x8, addend: 0x0, symName: __ZNSt3__113basic_ostreamIcNS_11char_traitsIcEEElsB7v160006EPFRS3_S4_E, symObjAddr: 0x16F8, symBinAddr: 0x100006A44, symSize: 0x2C }
  - { offsetInCU: 0x12DD2, offset: 0x2075E, size: 0x8, addend: 0x0, symName: __ZN14SpaceSectorBST15traverseInorderEP6Sector, symObjAddr: 0x177C, symBinAddr: 0x100006AC8, symSize: 0x80 }
  - { offsetInCU: 0x12E06, offset: 0x20792, size: 0x8, addend: 0x0, symName: __ZN14SpaceSectorBST22displaySectorsPreOrderEv, symObjAddr: 0x1848, symBinAddr: 0x100006B94, symSize: 0x64 }
  - { offsetInCU: 0x12E2C, offset: 0x207B8, size: 0x8, addend: 0x0, symName: __ZN14SpaceSectorBST16traversePreorderEP6Sector, symObjAddr: 0x18AC, symBinAddr: 0x100006BF8, symSize: 0x80 }
  - { offsetInCU: 0x12E60, offset: 0x207EC, size: 0x8, addend: 0x0, symName: __ZN14SpaceSectorBST23displaySectorsPostOrderEv, symObjAddr: 0x192C, symBinAddr: 0x100006C78, symSize: 0x64 }
  - { offsetInCU: 0x12E86, offset: 0x20812, size: 0x8, addend: 0x0, symName: __ZN14SpaceSectorBST17traversePostorderEP6Sector, symObjAddr: 0x1990, symBinAddr: 0x100006CDC, symSize: 0x80 }
  - { offsetInCU: 0x12EBA, offset: 0x20846, size: 0x8, addend: 0x0, symName: __ZN14SpaceSectorBST14getStellarPathERKNSt3__112basic_stringIcNS0_11char_traitsIcEENS0_9allocatorIcEEEE, symObjAddr: 0x1A10, symBinAddr: 0x100006D5C, symSize: 0x244 }
  - { offsetInCU: 0x12F5B, offset: 0x208E7, size: 0x8, addend: 0x0, symName: __ZNSt3__16vectorIP6SectorNS_9allocatorIS2_EEEC1B7v160006Ev, symObjAddr: 0x1C54, symBinAddr: 0x100006FA0, symSize: 0x2C }
  - { offsetInCU: 0x12F83, offset: 0x2090F, size: 0x8, addend: 0x0, symName: __ZNSt3__16vectorIP6SectorNS_9allocatorIS2_EEE9push_backB7v160006ERKS2_, symObjAddr: 0x1C80, symBinAddr: 0x100006FCC, symSize: 0x6C }
  - { offsetInCU: 0x12FB8, offset: 0x20944, size: 0x8, addend: 0x0, symName: __ZNSt3__16vectorIP6SectorNS_9allocatorIS2_EEED1B7v160006Ev, symObjAddr: 0x1D20, symBinAddr: 0x10000706C, symSize: 0x2C }
  - { offsetInCU: 0x12FE0, offset: 0x2096C, size: 0x8, addend: 0x0, symName: __ZN14SpaceSectorBST16printStellarPathERKNSt3__16vectorIP6SectorNS0_9allocatorIS3_EEEE, symObjAddr: 0x1D4C, symBinAddr: 0x100007098, symSize: 0x108 }
  - { offsetInCU: 0x13031, offset: 0x209BD, size: 0x8, addend: 0x0, symName: __ZNKSt3__16vectorIP6SectorNS_9allocatorIS2_EEE5emptyB7v160006Ev, symObjAddr: 0x1E54, symBinAddr: 0x1000071A0, symSize: 0x28 }
  - { offsetInCU: 0x13055, offset: 0x209E1, size: 0x8, addend: 0x0, symName: __ZNKSt3__16vectorIP6SectorNS_9allocatorIS2_EEE4sizeB7v160006Ev, symObjAddr: 0x1E7C, symBinAddr: 0x1000071C8, symSize: 0x28 }
  - { offsetInCU: 0x13079, offset: 0x20A05, size: 0x8, addend: 0x0, symName: __ZNKSt3__16vectorIP6SectorNS_9allocatorIS2_EEEixB7v160006Em, symObjAddr: 0x1EA4, symBinAddr: 0x1000071F0, symSize: 0x24 }
  - { offsetInCU: 0x130AF, offset: 0x20A3B, size: 0x8, addend: 0x0, symName: __ZNKSt3__16vectorIP6SectorNS_9allocatorIS2_EEE4backB7v160006Ev, symObjAddr: 0x1EC8, symBinAddr: 0x100007214, symSize: 0x1C }
  - { offsetInCU: 0x130D3, offset: 0x20A5F, size: 0x8, addend: 0x0, symName: __ZN14SpaceSectorBST13print_to_fileERKNSt3__112basic_stringIcNS0_11char_traitsIcEENS0_9allocatorIcEEEES8_, symObjAddr: 0x1EE4, symBinAddr: 0x100007230, symSize: 0x118 }
  - { offsetInCU: 0x1312E, offset: 0x20ABA, size: 0x8, addend: 0x0, symName: __ZNSt3__114basic_ofstreamIcNS_11char_traitsIcEEEC1ERKNS_12basic_stringIcS2_NS_9allocatorIcEEEEj, symObjAddr: 0x1FFC, symBinAddr: 0x100007348, symSize: 0x16C }
  - { offsetInCU: 0x13177, offset: 0x20B03, size: 0x8, addend: 0x0, symName: __ZNKSt3__114basic_ofstreamIcNS_11char_traitsIcEEE7is_openEv, symObjAddr: 0x2168, symBinAddr: 0x1000074B4, symSize: 0x2C }
  - { offsetInCU: 0x131A2, offset: 0x20B2E, size: 0x8, addend: 0x0, symName: __ZNSt3__114basic_ofstreamIcNS_11char_traitsIcEEED1Ev, symObjAddr: 0x2194, symBinAddr: 0x1000074E0, symSize: 0x40 }
  - { offsetInCU: 0x131CE, offset: 0x20B5A, size: 0x8, addend: 0x0, symName: __ZNSt3__119basic_istringstreamIcNS_11char_traitsIcEENS_9allocatorIcEEED2Ev, symObjAddr: 0x21D4, symBinAddr: 0x100007520, symSize: 0x64 }
  - { offsetInCU: 0x13206, offset: 0x20B92, size: 0x8, addend: 0x0, symName: __ZTv0_n24_NSt3__119basic_istringstreamIcNS_11char_traitsIcEENS_9allocatorIcEEED1Ev, symObjAddr: 0x2238, symBinAddr: 0x100007584, symSize: 0x28 }
  - { offsetInCU: 0x13222, offset: 0x20BAE, size: 0x8, addend: 0x0, symName: __ZNSt3__115basic_stringbufIcNS_11char_traitsIcEENS_9allocatorIcEEED1Ev, symObjAddr: 0x2260, symBinAddr: 0x1000075AC, symSize: 0x2C }
  - { offsetInCU: 0x1324E, offset: 0x20BDA, size: 0x8, addend: 0x0, symName: __ZNSt3__115basic_stringbufIcNS_11char_traitsIcEENS_9allocatorIcEEED2Ev, symObjAddr: 0x228C, symBinAddr: 0x1000075D8, symSize: 0x48 }
  - { offsetInCU: 0x1327A, offset: 0x20C06, size: 0x8, addend: 0x0, symName: __ZNSt3__114basic_ifstreamIcNS_11char_traitsIcEEED2Ev, symObjAddr: 0x22D4, symBinAddr: 0x100007620, symSize: 0x64 }
  - { offsetInCU: 0x132B2, offset: 0x20C3E, size: 0x8, addend: 0x0, symName: __ZTv0_n24_NSt3__114basic_ifstreamIcNS_11char_traitsIcEEED1Ev, symObjAddr: 0x2338, symBinAddr: 0x100007684, symSize: 0x28 }
  - { offsetInCU: 0x132C9, offset: 0x20C55, size: 0x8, addend: 0x0, symName: __ZNSt3__14pairIKNS_12basic_stringIcNS_11char_traitsIcEENS_9allocatorIcEEEENS_6vectorIiNS4_IiEEEEED2Ev, symObjAddr: 0x2360, symBinAddr: 0x1000076AC, symSize: 0x38 }
  - { offsetInCU: 0x132F3, offset: 0x20C7F, size: 0x8, addend: 0x0, symName: __ZN6SectorC2ERKS_, symObjAddr: 0x2398, symBinAddr: 0x1000076E4, symSize: 0x64 }
  - { offsetInCU: 0x13326, offset: 0x20CB2, size: 0x8, addend: 0x0, symName: __ZNSt3__114basic_ofstreamIcNS_11char_traitsIcEEED2Ev, symObjAddr: 0x23FC, symBinAddr: 0x100007748, symSize: 0x64 }
  - { offsetInCU: 0x1335E, offset: 0x20CEA, size: 0x8, addend: 0x0, symName: __ZTv0_n24_NSt3__114basic_ofstreamIcNS_11char_traitsIcEEED1Ev, symObjAddr: 0x2460, symBinAddr: 0x1000077AC, symSize: 0x28 }
  - { offsetInCU: 0x1337A, offset: 0x20D06, size: 0x8, addend: 0x0, symName: __ZNSt3__113unordered_mapINS_12basic_stringIcNS_11char_traitsIcEENS_9allocatorIcEEEENS_6vectorIiNS4_IiEEEENS_4hashIS6_EENS_8equal_toIS6_EENS4_INS_4pairIKS6_S9_EEEEEC2B7v160006Ev, symObjAddr: 0x265C, symBinAddr: 0x1000077D4, symSize: 0x3C }
  - { offsetInCU: 0x133A2, offset: 0x20D2E, size: 0x8, addend: 0x0, symName: __ZNSt3__112__hash_tableINS_17__hash_value_typeINS_12basic_stringIcNS_11char_traitsIcEENS_9allocatorIcEEEENS_6vectorIiNS5_IiEEEEEENS_22__unordered_map_hasherIS7_SB_NS_4hashIS7_EENS_8equal_toIS7_EELb1EEENS_21__unordered_map_equalIS7_SB_SG_SE_Lb1EEENS5_ISB_EEEC1Ev, symObjAddr: 0x2698, symBinAddr: 0x100007810, symSize: 0x2C }
  - { offsetInCU: 0x133CD, offset: 0x20D59, size: 0x8, addend: 0x0, symName: __ZNSt3__112__hash_tableINS_17__hash_value_typeINS_12basic_stringIcNS_11char_traitsIcEENS_9allocatorIcEEEENS_6vectorIiNS5_IiEEEEEENS_22__unordered_map_hasherIS7_SB_NS_4hashIS7_EENS_8equal_toIS7_EELb1EEENS_21__unordered_map_equalIS7_SB_SG_SE_Lb1EEENS5_ISB_EEEC2Ev, symObjAddr: 0x26D4, symBinAddr: 0x10000784C, symSize: 0x7C }
  - { offsetInCU: 0x133F8, offset: 0x20D84, size: 0x8, addend: 0x0, symName: __ZNSt3__110unique_ptrIA_PNS_16__hash_node_baseIPNS_11__hash_nodeINS_17__hash_value_typeINS_12basic_stringIcNS_11char_traitsIcEENS_9allocatorIcEEEENS_6vectorIiNS7_IiEEEEEEPvEEEENS_25__bucket_list_deallocatorINS7_ISI_EEEEEC1B7v160006ILb1EvEEv, symObjAddr: 0x2750, symBinAddr: 0x1000078C8, symSize: 0x2C }
  - { offsetInCU: 0x1342B, offset: 0x20DB7, size: 0x8, addend: 0x0, symName: __ZNSt3__117__compressed_pairINS_16__hash_node_baseIPNS_11__hash_nodeINS_17__hash_value_typeINS_12basic_stringIcNS_11char_traitsIcEENS_9allocatorIcEEEENS_6vectorIiNS7_IiEEEEEEPvEEEENS7_ISF_EEEC1B7v160006ILb1EvEEv, symObjAddr: 0x277C, symBinAddr: 0x1000078F4, symSize: 0x2C }
  - { offsetInCU: 0x13463, offset: 0x20DEF, size: 0x8, addend: 0x0, symName: __ZNSt3__117__compressed_pairImNS_22__unordered_map_hasherINS_12basic_stringIcNS_11char_traitsIcEENS_9allocatorIcEEEENS_17__hash_value_typeIS7_NS_6vectorIiNS5_IiEEEEEENS_4hashIS7_EENS_8equal_toIS7_EELb1EEEEC1B7v160006IiNS_18__default_init_tagEEEOT_OT0_, symObjAddr: 0x27A8, symBinAddr: 0x100007920, symSize: 0x3C }
  - { offsetInCU: 0x134BE, offset: 0x20E4A, size: 0x8, addend: 0x0, symName: __ZNSt3__117__compressed_pairIfNS_21__unordered_map_equalINS_12basic_stringIcNS_11char_traitsIcEENS_9allocatorIcEEEENS_17__hash_value_typeIS7_NS_6vectorIiNS5_IiEEEEEENS_8equal_toIS7_EENS_4hashIS7_EELb1EEEEC1B7v160006IfNS_18__default_init_tagEEEOT_OT0_, symObjAddr: 0x27E4, symBinAddr: 0x10000795C, symSize: 0x3C }
  - { offsetInCU: 0x13514, offset: 0x20EA0, size: 0x8, addend: 0x0, symName: __ZNSt3__110unique_ptrIA_PNS_16__hash_node_baseIPNS_11__hash_nodeINS_17__hash_value_typeINS_12basic_stringIcNS_11char_traitsIcEENS_9allocatorIcEEEENS_6vectorIiNS7_IiEEEEEEPvEEEENS_25__bucket_list_deallocatorINS7_ISI_EEEEEC2B7v160006ILb1EvEEv, symObjAddr: 0x2820, symBinAddr: 0x100007998, symSize: 0x3C }
  - { offsetInCU: 0x1354C, offset: 0x20ED8, size: 0x8, addend: 0x0, symName: __ZNSt3__117__compressed_pairIPPNS_16__hash_node_baseIPNS_11__hash_nodeINS_17__hash_value_typeINS_12basic_stringIcNS_11char_traitsIcEENS_9allocatorIcEEEENS_6vectorIiNS7_IiEEEEEEPvEEEENS_25__bucket_list_deallocatorINS7_ISI_EEEEEC1B7v160006INS_16__value_init_tagESP_EEOT_OT0_, symObjAddr: 0x285C, symBinAddr: 0x1000079D4, symSize: 0x3C }
  - { offsetInCU: 0x135A2, offset: 0x20F2E, size: 0x8, addend: 0x0, symName: __ZNSt3__117__compressed_pairIPPNS_16__hash_node_baseIPNS_11__hash_nodeINS_17__hash_value_typeINS_12basic_stringIcNS_11char_traitsIcEENS_9allocatorIcEEEENS_6vectorIiNS7_IiEEEEEEPvEEEENS_25__bucket_list_deallocatorINS7_ISI_EEEEEC2B7v160006INS_16__value_init_tagESP_EEOT_OT0_, symObjAddr: 0x2898, symBinAddr: 0x100007A10, symSize: 0x40 }
  - { offsetInCU: 0x135F8, offset: 0x20F84, size: 0x8, addend: 0x0, symName: __ZNSt3__122__compressed_pair_elemIPPNS_16__hash_node_baseIPNS_11__hash_nodeINS_17__hash_value_typeINS_12basic_stringIcNS_11char_traitsIcEENS_9allocatorIcEEEENS_6vectorIiNS7_IiEEEEEEPvEEEELi0ELb0EEC2B7v160006ENS_16__value_init_tagE, symObjAddr: 0x28D8, symBinAddr: 0x100007A50, symSize: 0x18 }
  - { offsetInCU: 0x1362A, offset: 0x20FB6, size: 0x8, addend: 0x0, symName: __ZNSt3__122__compressed_pair_elemINS_25__bucket_list_deallocatorINS_9allocatorIPNS_16__hash_node_baseIPNS_11__hash_nodeINS_17__hash_value_typeINS_12basic_stringIcNS_11char_traitsIcEENS2_IcEEEENS_6vectorIiNS2_IiEEEEEEPvEEEEEEEELi1ELb0EEC2B7v160006ENS_16__value_init_tagE, symObjAddr: 0x28F0, symBinAddr: 0x100007A68, symSize: 0x2C }
  - { offsetInCU: 0x1365C, offset: 0x20FE8, size: 0x8, addend: 0x0, symName: __ZNSt3__125__bucket_list_deallocatorINS_9allocatorIPNS_16__hash_node_baseIPNS_11__hash_nodeINS_17__hash_value_typeINS_12basic_stringIcNS_11char_traitsIcEENS1_IcEEEENS_6vectorIiNS1_IiEEEEEEPvEEEEEEEC1B7v160006Ev, symObjAddr: 0x291C, symBinAddr: 0x100007A94, symSize: 0x2C }
  - { offsetInCU: 0x13684, offset: 0x21010, size: 0x8, addend: 0x0, symName: __ZNSt3__125__bucket_list_deallocatorINS_9allocatorIPNS_16__hash_node_baseIPNS_11__hash_nodeINS_17__hash_value_typeINS_12basic_stringIcNS_11char_traitsIcEENS1_IcEEEENS_6vectorIiNS1_IiEEEEEEPvEEEEEEEC2B7v160006Ev, symObjAddr: 0x2948, symBinAddr: 0x100007AC0, symSize: 0x40 }
  - { offsetInCU: 0x136AC, offset: 0x21038, size: 0x8, addend: 0x0, symName: __ZNSt3__117__compressed_pairImNS_9allocatorIPNS_16__hash_node_baseIPNS_11__hash_nodeINS_17__hash_value_typeINS_12basic_stringIcNS_11char_traitsIcEENS1_IcEEEENS_6vectorIiNS1_IiEEEEEEPvEEEEEEEC1B7v160006IiNS_18__default_init_tagEEEOT_OT0_, symObjAddr: 0x2988, symBinAddr: 0x100007B00, symSize: 0x3C }
  - { offsetInCU: 0x13702, offset: 0x2108E, size: 0x8, addend: 0x0, symName: __ZNSt3__117__compressed_pairImNS_9allocatorIPNS_16__hash_node_baseIPNS_11__hash_nodeINS_17__hash_value_typeINS_12basic_stringIcNS_11char_traitsIcEENS1_IcEEEENS_6vectorIiNS1_IiEEEEEEPvEEEEEEEC2B7v160006IiNS_18__default_init_tagEEEOT_OT0_, symObjAddr: 0x29C4, symBinAddr: 0x100007B3C, symSize: 0x40 }
  - { offsetInCU: 0x13758, offset: 0x210E4, size: 0x8, addend: 0x0, symName: __ZNSt3__122__compressed_pair_elemImLi0ELb0EEC2B7v160006IivEEOT_, symObjAddr: 0x2A04, symBinAddr: 0x100007B7C, symSize: 0x24 }
  - { offsetInCU: 0x13798, offset: 0x21124, size: 0x8, addend: 0x0, symName: __ZNSt3__122__compressed_pair_elemINS_9allocatorIPNS_16__hash_node_baseIPNS_11__hash_nodeINS_17__hash_value_typeINS_12basic_stringIcNS_11char_traitsIcEENS1_IcEEEENS_6vectorIiNS1_IiEEEEEEPvEEEEEELi1ELb1EEC2B7v160006ENS_18__default_init_tagE, symObjAddr: 0x2A28, symBinAddr: 0x100007BA0, symSize: 0x2C }
  - { offsetInCU: 0x137CA, offset: 0x21156, size: 0x8, addend: 0x0, symName: __ZNSt3__19allocatorIPNS_16__hash_node_baseIPNS_11__hash_nodeINS_17__hash_value_typeINS_12basic_stringIcNS_11char_traitsIcEENS0_IcEEEENS_6vectorIiNS0_IiEEEEEEPvEEEEEC2B7v160006Ev, symObjAddr: 0x2A54, symBinAddr: 0x100007BCC, symSize: 0x2C }
  - { offsetInCU: 0x137F2, offset: 0x2117E, size: 0x8, addend: 0x0, symName: __ZNSt3__116__non_trivial_ifILb1ENS_9allocatorIPNS_16__hash_node_baseIPNS_11__hash_nodeINS_17__hash_value_typeINS_12basic_stringIcNS_11char_traitsIcEENS1_IcEEEENS_6vectorIiNS1_IiEEEEEEPvEEEEEEEC2B7v160006Ev, symObjAddr: 0x2A80, symBinAddr: 0x100007BF8, symSize: 0x14 }
  - { offsetInCU: 0x1381A, offset: 0x211A6, size: 0x8, addend: 0x0, symName: __ZNSt3__117__compressed_pairINS_16__hash_node_baseIPNS_11__hash_nodeINS_17__hash_value_typeINS_12basic_stringIcNS_11char_traitsIcEENS_9allocatorIcEEEENS_6vectorIiNS7_IiEEEEEEPvEEEENS7_ISF_EEEC2B7v160006ILb1EvEEv, symObjAddr: 0x2A94, symBinAddr: 0x100007C0C, symSize: 0x34 }
  - { offsetInCU: 0x1384D, offset: 0x211D9, size: 0x8, addend: 0x0, symName: __ZNSt3__122__compressed_pair_elemINS_16__hash_node_baseIPNS_11__hash_nodeINS_17__hash_value_typeINS_12basic_stringIcNS_11char_traitsIcEENS_9allocatorIcEEEENS_6vectorIiNS7_IiEEEEEEPvEEEELi0ELb0EEC2B7v160006ENS_16__value_init_tagE, symObjAddr: 0x2AC8, symBinAddr: 0x100007C40, symSize: 0x2C }
  - { offsetInCU: 0x1387F, offset: 0x2120B, size: 0x8, addend: 0x0, symName: __ZNSt3__122__compressed_pair_elemINS_9allocatorINS_11__hash_nodeINS_17__hash_value_typeINS_12basic_stringIcNS_11char_traitsIcEENS1_IcEEEENS_6vectorIiNS1_IiEEEEEEPvEEEELi1ELb1EEC2B7v160006ENS_16__value_init_tagE, symObjAddr: 0x2AF4, symBinAddr: 0x100007C6C, symSize: 0x2C }
  - { offsetInCU: 0x138B1, offset: 0x2123D, size: 0x8, addend: 0x0, symName: __ZNSt3__116__hash_node_baseIPNS_11__hash_nodeINS_17__hash_value_typeINS_12basic_stringIcNS_11char_traitsIcEENS_9allocatorIcEEEENS_6vectorIiNS6_IiEEEEEEPvEEEC1B7v160006Ev, symObjAddr: 0x2B20, symBinAddr: 0x100007C98, symSize: 0x2C }
  - { offsetInCU: 0x138D9, offset: 0x21265, size: 0x8, addend: 0x0, symName: __ZNSt3__116__hash_node_baseIPNS_11__hash_nodeINS_17__hash_value_typeINS_12basic_stringIcNS_11char_traitsIcEENS_9allocatorIcEEEENS_6vectorIiNS6_IiEEEEEEPvEEEC2B7v160006Ev, symObjAddr: 0x2B4C, symBinAddr: 0x100007CC4, symSize: 0x18 }
  - { offsetInCU: 0x13901, offset: 0x2128D, size: 0x8, addend: 0x0, symName: __ZNSt3__19allocatorINS_11__hash_nodeINS_17__hash_value_typeINS_12basic_stringIcNS_11char_traitsIcEENS0_IcEEEENS_6vectorIiNS0_IiEEEEEEPvEEEC2B7v160006Ev, symObjAddr: 0x2B64, symBinAddr: 0x100007CDC, symSize: 0x2C }
  - { offsetInCU: 0x13929, offset: 0x212B5, size: 0x8, addend: 0x0, symName: __ZNSt3__116__non_trivial_ifILb1ENS_9allocatorINS_11__hash_nodeINS_17__hash_value_typeINS_12basic_stringIcNS_11char_traitsIcEENS1_IcEEEENS_6vectorIiNS1_IiEEEEEEPvEEEEEC2B7v160006Ev, symObjAddr: 0x2B90, symBinAddr: 0x100007D08, symSize: 0x14 }
  - { offsetInCU: 0x13951, offset: 0x212DD, size: 0x8, addend: 0x0, symName: __ZNSt3__117__compressed_pairImNS_22__unordered_map_hasherINS_12basic_stringIcNS_11char_traitsIcEENS_9allocatorIcEEEENS_17__hash_value_typeIS7_NS_6vectorIiNS5_IiEEEEEENS_4hashIS7_EENS_8equal_toIS7_EELb1EEEEC2B7v160006IiNS_18__default_init_tagEEEOT_OT0_, symObjAddr: 0x2BA4, symBinAddr: 0x100007D1C, symSize: 0x40 }
  - { offsetInCU: 0x139A7, offset: 0x21333, size: 0x8, addend: 0x0, symName: __ZNSt3__122__compressed_pair_elemINS_22__unordered_map_hasherINS_12basic_stringIcNS_11char_traitsIcEENS_9allocatorIcEEEENS_17__hash_value_typeIS7_NS_6vectorIiNS5_IiEEEEEENS_4hashIS7_EENS_8equal_toIS7_EELb1EEELi1ELb1EEC2B7v160006ENS_18__default_init_tagE, symObjAddr: 0x2BE4, symBinAddr: 0x100007D5C, symSize: 0x2C }
  - { offsetInCU: 0x139D9, offset: 0x21365, size: 0x8, addend: 0x0, symName: __ZNSt3__122__unordered_map_hasherINS_12basic_stringIcNS_11char_traitsIcEENS_9allocatorIcEEEENS_17__hash_value_typeIS6_NS_6vectorIiNS4_IiEEEEEENS_4hashIS6_EENS_8equal_toIS6_EELb1EEC2B7v160006Ev, symObjAddr: 0x2C10, symBinAddr: 0x100007D88, symSize: 0x14 }
  - { offsetInCU: 0x13A01, offset: 0x2138D, size: 0x8, addend: 0x0, symName: __ZNSt3__117__compressed_pairIfNS_21__unordered_map_equalINS_12basic_stringIcNS_11char_traitsIcEENS_9allocatorIcEEEENS_17__hash_value_typeIS7_NS_6vectorIiNS5_IiEEEEEENS_8equal_toIS7_EENS_4hashIS7_EELb1EEEEC2B7v160006IfNS_18__default_init_tagEEEOT_OT0_, symObjAddr: 0x2C24, symBinAddr: 0x100007D9C, symSize: 0x40 }
  - { offsetInCU: 0x13A57, offset: 0x213E3, size: 0x8, addend: 0x0, symName: __ZNSt3__122__compressed_pair_elemIfLi0ELb0EEC2B7v160006IfvEEOT_, symObjAddr: 0x2C64, symBinAddr: 0x100007DDC, symSize: 0x24 }
  - { offsetInCU: 0x13A97, offset: 0x21423, size: 0x8, addend: 0x0, symName: __ZNSt3__122__compressed_pair_elemINS_21__unordered_map_equalINS_12basic_stringIcNS_11char_traitsIcEENS_9allocatorIcEEEENS_17__hash_value_typeIS7_NS_6vectorIiNS5_IiEEEEEENS_8equal_toIS7_EENS_4hashIS7_EELb1EEELi1ELb1EEC2B7v160006ENS_18__default_init_tagE, symObjAddr: 0x2C88, symBinAddr: 0x100007E00, symSize: 0x2C }
  - { offsetInCU: 0x13AC9, offset: 0x21455, size: 0x8, addend: 0x0, symName: __ZNSt3__121__unordered_map_equalINS_12basic_stringIcNS_11char_traitsIcEENS_9allocatorIcEEEENS_17__hash_value_typeIS6_NS_6vectorIiNS4_IiEEEEEENS_8equal_toIS6_EENS_4hashIS6_EELb1EEC2B7v160006Ev, symObjAddr: 0x2CB4, symBinAddr: 0x100007E2C, symSize: 0x14 }
  - { offsetInCU: 0x13AF1, offset: 0x2147D, size: 0x8, addend: 0x0, symName: __ZNSt3__113unordered_mapINS_12basic_stringIcNS_11char_traitsIcEENS_9allocatorIcEEEENS_6vectorIiNS4_IiEEEENS_4hashIS6_EENS_8equal_toIS6_EENS4_INS_4pairIKS6_S9_EEEEED2B7v160006Ev, symObjAddr: 0x2CC8, symBinAddr: 0x100007E40, symSize: 0x2C }
  - { offsetInCU: 0x13B19, offset: 0x214A5, size: 0x8, addend: 0x0, symName: __ZNSt3__112__hash_tableINS_17__hash_value_typeINS_12basic_stringIcNS_11char_traitsIcEENS_9allocatorIcEEEENS_6vectorIiNS5_IiEEEEEENS_22__unordered_map_hasherIS7_SB_NS_4hashIS7_EENS_8equal_toIS7_EELb1EEENS_21__unordered_map_equalIS7_SB_SG_SE_Lb1EEENS5_ISB_EEED1Ev, symObjAddr: 0x2CF4, symBinAddr: 0x100007E6C, symSize: 0x2C }
  - { offsetInCU: 0x13B44, offset: 0x214D0, size: 0x8, addend: 0x0, symName: __ZNSt3__112__hash_tableINS_17__hash_value_typeINS_12basic_stringIcNS_11char_traitsIcEENS_9allocatorIcEEEENS_6vectorIiNS5_IiEEEEEENS_22__unordered_map_hasherIS7_SB_NS_4hashIS7_EENS_8equal_toIS7_EELb1EEENS_21__unordered_map_equalIS7_SB_SG_SE_Lb1EEENS5_ISB_EEED2Ev, symObjAddr: 0x2D20, symBinAddr: 0x100007E98, symSize: 0x58 }
  - { offsetInCU: 0x13B6F, offset: 0x214FB, size: 0x8, addend: 0x0, symName: __ZNSt3__112__hash_tableINS_17__hash_value_typeINS_12basic_stringIcNS_11char_traitsIcEENS_9allocatorIcEEEENS_6vectorIiNS5_IiEEEEEENS_22__unordered_map_hasherIS7_SB_NS_4hashIS7_EENS_8equal_toIS7_EELb1EEENS_21__unordered_map_equalIS7_SB_SG_SE_Lb1EEENS5_ISB_EEE17__deallocate_nodeEPNS_16__hash_node_baseIPNS_11__hash_nodeISB_PvEEEE, symObjAddr: 0x2D78, symBinAddr: 0x100007EF0, symSize: 0xA8 }
  - { offsetInCU: 0x13BDB, offset: 0x21567, size: 0x8, addend: 0x0, symName: __ZNSt3__117__compressed_pairINS_16__hash_node_baseIPNS_11__hash_nodeINS_17__hash_value_typeINS_12basic_stringIcNS_11char_traitsIcEENS_9allocatorIcEEEENS_6vectorIiNS7_IiEEEEEEPvEEEENS7_ISF_EEE5firstB7v160006Ev, symObjAddr: 0x2E20, symBinAddr: 0x100007F98, symSize: 0x24 }
  - { offsetInCU: 0x13BFF, offset: 0x2158B, size: 0x8, addend: 0x0, symName: __ZNSt3__110unique_ptrIA_PNS_16__hash_node_baseIPNS_11__hash_nodeINS_17__hash_value_typeINS_12basic_stringIcNS_11char_traitsIcEENS_9allocatorIcEEEENS_6vectorIiNS7_IiEEEEEEPvEEEENS_25__bucket_list_deallocatorINS7_ISI_EEEEED1B7v160006Ev, symObjAddr: 0x2E54, symBinAddr: 0x100007FCC, symSize: 0x2C }
  - { offsetInCU: 0x13C27, offset: 0x215B3, size: 0x8, addend: 0x0, symName: __ZNSt3__112__hash_tableINS_17__hash_value_typeINS_12basic_stringIcNS_11char_traitsIcEENS_9allocatorIcEEEENS_6vectorIiNS5_IiEEEEEENS_22__unordered_map_hasherIS7_SB_NS_4hashIS7_EENS_8equal_toIS7_EELb1EEENS_21__unordered_map_equalIS7_SB_SG_SE_Lb1EEENS5_ISB_EEE12__node_allocB7v160006Ev, symObjAddr: 0x2E80, symBinAddr: 0x100007FF8, symSize: 0x28 }
  - { offsetInCU: 0x13C4B, offset: 0x215D7, size: 0x8, addend: 0x0, symName: __ZNSt3__116__hash_node_baseIPNS_11__hash_nodeINS_17__hash_value_typeINS_12basic_stringIcNS_11char_traitsIcEENS_9allocatorIcEEEENS_6vectorIiNS6_IiEEEEEEPvEEE8__upcastB7v160006Ev, symObjAddr: 0x2EA8, symBinAddr: 0x100008020, symSize: 0x24 }
  - { offsetInCU: 0x13C6F, offset: 0x215FB, size: 0x8, addend: 0x0, symName: __ZNSt3__116allocator_traitsINS_9allocatorINS_11__hash_nodeINS_17__hash_value_typeINS_12basic_stringIcNS_11char_traitsIcEENS1_IcEEEENS_6vectorIiNS1_IiEEEEEEPvEEEEE7destroyB7v160006INS_4pairIKS8_SB_EEvvEEvRSF_PT_, symObjAddr: 0x2ECC, symBinAddr: 0x100008044, symSize: 0x28 }
  - { offsetInCU: 0x13CA8, offset: 0x21634, size: 0x8, addend: 0x0, symName: __ZNSt3__122__hash_key_value_typesINS_17__hash_value_typeINS_12basic_stringIcNS_11char_traitsIcEENS_9allocatorIcEEEENS_6vectorIiNS5_IiEEEEEEE9__get_ptrB7v160006ERSB_, symObjAddr: 0x2EF4, symBinAddr: 0x10000806C, symSize: 0x24 }
  - { offsetInCU: 0x13CCA, offset: 0x21656, size: 0x8, addend: 0x0, symName: __ZNSt3__116allocator_traitsINS_9allocatorINS_11__hash_nodeINS_17__hash_value_typeINS_12basic_stringIcNS_11char_traitsIcEENS1_IcEEEENS_6vectorIiNS1_IiEEEEEEPvEEEEE10deallocateB7v160006ERSF_PSE_m, symObjAddr: 0x2F18, symBinAddr: 0x100008090, symSize: 0x34 }
  - { offsetInCU: 0x13D0B, offset: 0x21697, size: 0x8, addend: 0x0, symName: __ZNSt3__117__compressed_pairINS_16__hash_node_baseIPNS_11__hash_nodeINS_17__hash_value_typeINS_12basic_stringIcNS_11char_traitsIcEENS_9allocatorIcEEEENS_6vectorIiNS7_IiEEEEEEPvEEEENS7_ISF_EEE6secondB7v160006Ev, symObjAddr: 0x2F4C, symBinAddr: 0x1000080C4, symSize: 0x24 }
  - { offsetInCU: 0x13D2F, offset: 0x216BB, size: 0x8, addend: 0x0, symName: __ZNSt3__122__compressed_pair_elemINS_9allocatorINS_11__hash_nodeINS_17__hash_value_typeINS_12basic_stringIcNS_11char_traitsIcEENS1_IcEEEENS_6vectorIiNS1_IiEEEEEEPvEEEELi1ELb1EE5__getB7v160006Ev, symObjAddr: 0x2F70, symBinAddr: 0x1000080E8, symSize: 0x14 }
  - { offsetInCU: 0x13D53, offset: 0x216DF, size: 0x8, addend: 0x0, symName: __ZNSt3__114pointer_traitsIPNS_16__hash_node_baseIPNS_11__hash_nodeINS_17__hash_value_typeINS_12basic_stringIcNS_11char_traitsIcEENS_9allocatorIcEEEENS_6vectorIiNS7_IiEEEEEEPvEEEEE10pointer_toB7v160006ERSH_, symObjAddr: 0x2F84, symBinAddr: 0x1000080FC, symSize: 0x14 }
  - { offsetInCU: 0x13D75, offset: 0x21701, size: 0x8, addend: 0x0, symName: __ZNSt3__117__hash_value_typeINS_12basic_stringIcNS_11char_traitsIcEENS_9allocatorIcEEEENS_6vectorIiNS4_IiEEEEE11__get_valueB7v160006Ev, symObjAddr: 0x2F98, symBinAddr: 0x100008110, symSize: 0x14 }
  - { offsetInCU: 0x13D99, offset: 0x21725, size: 0x8, addend: 0x0, symName: __ZNSt3__19allocatorINS_11__hash_nodeINS_17__hash_value_typeINS_12basic_stringIcNS_11char_traitsIcEENS0_IcEEEENS_6vectorIiNS0_IiEEEEEEPvEEE10deallocateB7v160006EPSD_m, symObjAddr: 0x2FAC, symBinAddr: 0x100008124, symSize: 0x40 }
  - { offsetInCU: 0x13DD9, offset: 0x21765, size: 0x8, addend: 0x0, symName: __ZNSt3__122__compressed_pair_elemINS_16__hash_node_baseIPNS_11__hash_nodeINS_17__hash_value_typeINS_12basic_stringIcNS_11char_traitsIcEENS_9allocatorIcEEEENS_6vectorIiNS7_IiEEEEEEPvEEEELi0ELb0EE5__getB7v160006Ev, symObjAddr: 0x3068, symBinAddr: 0x100008164, symSize: 0x14 }
  - { offsetInCU: 0x13DFD, offset: 0x21789, size: 0x8, addend: 0x0, symName: __ZNSt3__110unique_ptrIA_PNS_16__hash_node_baseIPNS_11__hash_nodeINS_17__hash_value_typeINS_12basic_stringIcNS_11char_traitsIcEENS_9allocatorIcEEEENS_6vectorIiNS7_IiEEEEEEPvEEEENS_25__bucket_list_deallocatorINS7_ISI_EEEEED2B7v160006Ev, symObjAddr: 0x307C, symBinAddr: 0x100008178, symSize: 0x30 }
  - { offsetInCU: 0x13E25, offset: 0x217B1, size: 0x8, addend: 0x0, symName: __ZNSt3__110unique_ptrIA_PNS_16__hash_node_baseIPNS_11__hash_nodeINS_17__hash_value_typeINS_12basic_stringIcNS_11char_traitsIcEENS_9allocatorIcEEEENS_6vectorIiNS7_IiEEEEEEPvEEEENS_25__bucket_list_deallocatorINS7_ISI_EEEEE5resetB7v160006EDn, symObjAddr: 0x30AC, symBinAddr: 0x1000081A8, symSize: 0x6C }
  - { offsetInCU: 0x13E64, offset: 0x217F0, size: 0x8, addend: 0x0, symName: __ZNSt3__117__compressed_pairIPPNS_16__hash_node_baseIPNS_11__hash_nodeINS_17__hash_value_typeINS_12basic_stringIcNS_11char_traitsIcEENS_9allocatorIcEEEENS_6vectorIiNS7_IiEEEEEEPvEEEENS_25__bucket_list_deallocatorINS7_ISI_EEEEE5firstB7v160006Ev, symObjAddr: 0x3118, symBinAddr: 0x100008214, symSize: 0x24 }
  - { offsetInCU: 0x13E88, offset: 0x21814, size: 0x8, addend: 0x0, symName: __ZNSt3__117__compressed_pairIPPNS_16__hash_node_baseIPNS_11__hash_nodeINS_17__hash_value_typeINS_12basic_stringIcNS_11char_traitsIcEENS_9allocatorIcEEEENS_6vectorIiNS7_IiEEEEEEPvEEEENS_25__bucket_list_deallocatorINS7_ISI_EEEEE6secondB7v160006Ev, symObjAddr: 0x313C, symBinAddr: 0x100008238, symSize: 0x28 }
  - { offsetInCU: 0x13EAC, offset: 0x21838, size: 0x8, addend: 0x0, symName: __ZNSt3__125__bucket_list_deallocatorINS_9allocatorIPNS_16__hash_node_baseIPNS_11__hash_nodeINS_17__hash_value_typeINS_12basic_stringIcNS_11char_traitsIcEENS1_IcEEEENS_6vectorIiNS1_IiEEEEEEPvEEEEEEEclB7v160006EPSI_, symObjAddr: 0x3164, symBinAddr: 0x100008260, symSize: 0x58 }
  - { offsetInCU: 0x13EDF, offset: 0x2186B, size: 0x8, addend: 0x0, symName: __ZNSt3__122__compressed_pair_elemIPPNS_16__hash_node_baseIPNS_11__hash_nodeINS_17__hash_value_typeINS_12basic_stringIcNS_11char_traitsIcEENS_9allocatorIcEEEENS_6vectorIiNS7_IiEEEEEEPvEEEELi0ELb0EE5__getB7v160006Ev, symObjAddr: 0x31BC, symBinAddr: 0x1000082B8, symSize: 0x14 }
  - { offsetInCU: 0x13F03, offset: 0x2188F, size: 0x8, addend: 0x0, symName: __ZNSt3__122__compressed_pair_elemINS_25__bucket_list_deallocatorINS_9allocatorIPNS_16__hash_node_baseIPNS_11__hash_nodeINS_17__hash_value_typeINS_12basic_stringIcNS_11char_traitsIcEENS2_IcEEEENS_6vectorIiNS2_IiEEEEEEPvEEEEEEEELi1ELb0EE5__getB7v160006Ev, symObjAddr: 0x31D0, symBinAddr: 0x1000082CC, symSize: 0x14 }
  - { offsetInCU: 0x13F27, offset: 0x218B3, size: 0x8, addend: 0x0, symName: __ZNSt3__116allocator_traitsINS_9allocatorIPNS_16__hash_node_baseIPNS_11__hash_nodeINS_17__hash_value_typeINS_12basic_stringIcNS_11char_traitsIcEENS1_IcEEEENS_6vectorIiNS1_IiEEEEEEPvEEEEEEE10deallocateB7v160006ERSJ_PSI_m, symObjAddr: 0x31E4, symBinAddr: 0x1000082E0, symSize: 0x34 }
  - { offsetInCU: 0x13F68, offset: 0x218F4, size: 0x8, addend: 0x0, symName: __ZNSt3__125__bucket_list_deallocatorINS_9allocatorIPNS_16__hash_node_baseIPNS_11__hash_nodeINS_17__hash_value_typeINS_12basic_stringIcNS_11char_traitsIcEENS1_IcEEEENS_6vectorIiNS1_IiEEEEEEPvEEEEEEE7__allocB7v160006Ev, symObjAddr: 0x3218, symBinAddr: 0x100008314, symSize: 0x24 }
  - { offsetInCU: 0x13F8C, offset: 0x21918, size: 0x8, addend: 0x0, symName: __ZNSt3__125__bucket_list_deallocatorINS_9allocatorIPNS_16__hash_node_baseIPNS_11__hash_nodeINS_17__hash_value_typeINS_12basic_stringIcNS_11char_traitsIcEENS1_IcEEEENS_6vectorIiNS1_IiEEEEEEPvEEEEEEE4sizeB7v160006Ev, symObjAddr: 0x323C, symBinAddr: 0x100008338, symSize: 0x24 }
  - { offsetInCU: 0x13FB0, offset: 0x2193C, size: 0x8, addend: 0x0, symName: __ZNSt3__19allocatorIPNS_16__hash_node_baseIPNS_11__hash_nodeINS_17__hash_value_typeINS_12basic_stringIcNS_11char_traitsIcEENS0_IcEEEENS_6vectorIiNS0_IiEEEEEEPvEEEEE10deallocateB7v160006EPSH_m, symObjAddr: 0x3260, symBinAddr: 0x10000835C, symSize: 0x40 }
  - { offsetInCU: 0x13FF0, offset: 0x2197C, size: 0x8, addend: 0x0, symName: __ZNSt3__117__compressed_pairImNS_9allocatorIPNS_16__hash_node_baseIPNS_11__hash_nodeINS_17__hash_value_typeINS_12basic_stringIcNS_11char_traitsIcEENS1_IcEEEENS_6vectorIiNS1_IiEEEEEEPvEEEEEEE6secondB7v160006Ev, symObjAddr: 0x32A0, symBinAddr: 0x10000839C, symSize: 0x24 }
  - { offsetInCU: 0x14014, offset: 0x219A0, size: 0x8, addend: 0x0, symName: __ZNSt3__122__compressed_pair_elemINS_9allocatorIPNS_16__hash_node_baseIPNS_11__hash_nodeINS_17__hash_value_typeINS_12basic_stringIcNS_11char_traitsIcEENS1_IcEEEENS_6vectorIiNS1_IiEEEEEEPvEEEEEELi1ELb1EE5__getB7v160006Ev, symObjAddr: 0x32C4, symBinAddr: 0x1000083C0, symSize: 0x14 }
  - { offsetInCU: 0x14038, offset: 0x219C4, size: 0x8, addend: 0x0, symName: __ZNSt3__117__compressed_pairImNS_9allocatorIPNS_16__hash_node_baseIPNS_11__hash_nodeINS_17__hash_value_typeINS_12basic_stringIcNS_11char_traitsIcEENS1_IcEEEENS_6vectorIiNS1_IiEEEEEEPvEEEEEEE5firstB7v160006Ev, symObjAddr: 0x32D8, symBinAddr: 0x1000083D4, symSize: 0x24 }
  - { offsetInCU: 0x1405C, offset: 0x219E8, size: 0x8, addend: 0x0, symName: __ZNSt3__122__compressed_pair_elemImLi0ELb0EE5__getB7v160006Ev, symObjAddr: 0x32FC, symBinAddr: 0x1000083F8, symSize: 0x14 }
  - { offsetInCU: 0x14080, offset: 0x21A0C, size: 0x8, addend: 0x0, symName: __ZNSt3__19basic_iosIcNS_11char_traitsIcEEEC2B7v160006Ev, symObjAddr: 0x3310, symBinAddr: 0x10000840C, symSize: 0x44 }
  - { offsetInCU: 0x140A8, offset: 0x21A34, size: 0x8, addend: 0x0, symName: __ZNSt3__113basic_istreamIcNS_11char_traitsIcEEEC2B7v160006EPNS_15basic_streambufIcS2_EE, symObjAddr: 0x3354, symBinAddr: 0x100008450, symSize: 0x64 }
  - { offsetInCU: 0x140EA, offset: 0x21A76, size: 0x8, addend: 0x0, symName: __ZNSt3__113basic_filebufIcNS_11char_traitsIcEEE4openERKNS_12basic_stringIcS2_NS_9allocatorIcEEEEj, symObjAddr: 0x33B8, symBinAddr: 0x1000084B4, symSize: 0x44 }
  - { offsetInCU: 0x1412C, offset: 0x21AB8, size: 0x8, addend: 0x0, symName: __ZNSt3__19basic_iosIcNS_11char_traitsIcEEE8setstateB7v160006Ej, symObjAddr: 0x33FC, symBinAddr: 0x1000084F8, symSize: 0x2C }
  - { offsetInCU: 0x1415F, offset: 0x21AEB, size: 0x8, addend: 0x0, symName: __ZNSt3__18ios_baseC2B7v160006Ev, symObjAddr: 0x3428, symBinAddr: 0x100008524, symSize: 0x24 }
  - { offsetInCU: 0x14187, offset: 0x21B13, size: 0x8, addend: 0x0, symName: __ZNSt3__19basic_iosIcNS_11char_traitsIcEEE4initB7v160006EPNS_15basic_streambufIcS2_EE, symObjAddr: 0x344C, symBinAddr: 0x100008548, symSize: 0x44 }
  - { offsetInCU: 0x141BC, offset: 0x21B48, size: 0x8, addend: 0x0, symName: __ZNSt3__111char_traitsIcE3eofEv, symObjAddr: 0x3490, symBinAddr: 0x10000858C, symSize: 0x8 }
  - { offsetInCU: 0x141D0, offset: 0x21B5C, size: 0x8, addend: 0x0, symName: __ZNKSt3__112basic_stringIcNS_11char_traitsIcEENS_9allocatorIcEEE5c_strB7v160006Ev, symObjAddr: 0x3498, symBinAddr: 0x100008594, symSize: 0x24 }
  - { offsetInCU: 0x141F4, offset: 0x21B80, size: 0x8, addend: 0x0, symName: __ZNSt3__18ios_base8setstateB7v160006Ej, symObjAddr: 0x3620, symBinAddr: 0x1000085B8, symSize: 0x34 }
  - { offsetInCU: 0x14229, offset: 0x21BB5, size: 0x8, addend: 0x0, symName: __ZNKSt3__113basic_filebufIcNS_11char_traitsIcEEE7is_openEv, symObjAddr: 0x3654, symBinAddr: 0x1000085EC, symSize: 0x24 }
  - { offsetInCU: 0x1426E, offset: 0x21BFA, size: 0x8, addend: 0x0, symName: __ZNKSt3__113basic_ostreamIcNS_11char_traitsIcEEE6sentrycvbB7v160006Ev, symObjAddr: 0x3898, symBinAddr: 0x1000087FC, symSize: 0x1C }
  - { offsetInCU: 0x14292, offset: 0x21C1E, size: 0x8, addend: 0x0, symName: __ZNSt3__119ostreambuf_iteratorIcNS_11char_traitsIcEEEC1B7v160006ERNS_13basic_ostreamIcS2_EE, symObjAddr: 0x3AF4, symBinAddr: 0x100008A58, symSize: 0x34 }
  - { offsetInCU: 0x142C8, offset: 0x21C54, size: 0x8, addend: 0x0, symName: __ZNKSt3__18ios_base5flagsB7v160006Ev, symObjAddr: 0x3B28, symBinAddr: 0x100008A8C, symSize: 0x18 }
  - { offsetInCU: 0x142EF, offset: 0x21C7B, size: 0x8, addend: 0x0, symName: __ZNKSt3__19basic_iosIcNS_11char_traitsIcEEE4fillB7v160006Ev, symObjAddr: 0x3B40, symBinAddr: 0x100008AA4, symSize: 0x64 }
  - { offsetInCU: 0x14315, offset: 0x21CA1, size: 0x8, addend: 0x0, symName: __ZNKSt3__119ostreambuf_iteratorIcNS_11char_traitsIcEEE6failedB7v160006Ev, symObjAddr: 0x3BA4, symBinAddr: 0x100008B08, symSize: 0x24 }
  - { offsetInCU: 0x14339, offset: 0x21CC5, size: 0x8, addend: 0x0, symName: __ZNKSt3__18ios_base5widthB7v160006Ev, symObjAddr: 0x3BC8, symBinAddr: 0x100008B2C, symSize: 0x18 }
  - { offsetInCU: 0x14360, offset: 0x21CEC, size: 0x8, addend: 0x0, symName: __ZNSt3__115basic_streambufIcNS_11char_traitsIcEEE5sputnB7v160006EPKcl, symObjAddr: 0x3BE0, symBinAddr: 0x100008B44, symSize: 0x3C }
  - { offsetInCU: 0x143A0, offset: 0x21D2C, size: 0x8, addend: 0x0, symName: __ZNSt3__112basic_stringIcNS_11char_traitsIcEENS_9allocatorIcEEEC1B7v160006Emc, symObjAddr: 0x3C1C, symBinAddr: 0x100008B80, symSize: 0x3C }
  - { offsetInCU: 0x143E6, offset: 0x21D72, size: 0x8, addend: 0x0, symName: __ZNSt3__18ios_base5widthB7v160006El, symObjAddr: 0x3C58, symBinAddr: 0x100008BBC, symSize: 0x2C }
  - { offsetInCU: 0x1442C, offset: 0x21DB8, size: 0x8, addend: 0x0, symName: __ZNSt3__112basic_stringIcNS_11char_traitsIcEENS_9allocatorIcEEEC2B7v160006Emc, symObjAddr: 0x3C84, symBinAddr: 0x100008BE8, symSize: 0x54 }
  - { offsetInCU: 0x14472, offset: 0x21DFE, size: 0x8, addend: 0x0, symName: __ZNSt3__119ostreambuf_iteratorIcNS_11char_traitsIcEEEC2B7v160006ERNS_13basic_ostreamIcS2_EE, symObjAddr: 0x3CD8, symBinAddr: 0x100008C3C, symSize: 0x54 }
  - { offsetInCU: 0x144A8, offset: 0x21E34, size: 0x8, addend: 0x0, symName: __ZNKSt3__19basic_iosIcNS_11char_traitsIcEEE5rdbufB7v160006Ev, symObjAddr: 0x3D2C, symBinAddr: 0x100008C90, symSize: 0x24 }
  - { offsetInCU: 0x144CE, offset: 0x21E5A, size: 0x8, addend: 0x0, symName: __ZNKSt3__18ios_base5rdbufB7v160006Ev, symObjAddr: 0x3D50, symBinAddr: 0x100008CB4, symSize: 0x18 }
  - { offsetInCU: 0x144F2, offset: 0x21E7E, size: 0x8, addend: 0x0, symName: __ZNSt3__111char_traitsIcE11eq_int_typeEii, symObjAddr: 0x3D68, symBinAddr: 0x100008CCC, symSize: 0x28 }
  - { offsetInCU: 0x14522, offset: 0x21EAE, size: 0x8, addend: 0x0, symName: __ZNKSt3__19basic_iosIcNS_11char_traitsIcEEE5widenB7v160006Ec, symObjAddr: 0x3D90, symBinAddr: 0x100008CF4, symSize: 0x84 }
  - { offsetInCU: 0x1458E, offset: 0x21F1A, size: 0x8, addend: 0x0, symName: __ZNKSt3__15ctypeIcE5widenB7v160006Ec, symObjAddr: 0x3E40, symBinAddr: 0x100008DA4, symSize: 0x38 }
  - { offsetInCU: 0x145DF, offset: 0x21F6B, size: 0x8, addend: 0x0, symName: __ZNKSt3__113basic_istreamIcNS_11char_traitsIcEEE6sentrycvbB7v160006Ev, symObjAddr: 0x40D4, symBinAddr: 0x100009014, symSize: 0x1C }
  - { offsetInCU: 0x14603, offset: 0x21F8F, size: 0x8, addend: 0x0, symName: __ZNSt3__112basic_stringIcNS_11char_traitsIcEENS_9allocatorIcEEE5clearB7v160006Ev, symObjAddr: 0x40F0, symBinAddr: 0x100009030, symSize: 0x88 }
  - { offsetInCU: 0x14629, offset: 0x21FB5, size: 0x8, addend: 0x0, symName: __ZNSt3__115basic_streambufIcNS_11char_traitsIcEEE6sbumpcB7v160006Ev, symObjAddr: 0x4178, symBinAddr: 0x1000090B8, symSize: 0x78 }
  - { offsetInCU: 0x1464D, offset: 0x21FD9, size: 0x8, addend: 0x0, symName: __ZNSt3__111char_traitsIcE12to_char_typeEi, symObjAddr: 0x41F0, symBinAddr: 0x100009130, symSize: 0x18 }
  - { offsetInCU: 0x1466F, offset: 0x21FFB, size: 0x8, addend: 0x0, symName: __ZNSt3__111char_traitsIcE2eqEcc, symObjAddr: 0x4208, symBinAddr: 0x100009148, symSize: 0x28 }
  - { offsetInCU: 0x1469F, offset: 0x2202B, size: 0x8, addend: 0x0, symName: __ZNKSt3__112basic_stringIcNS_11char_traitsIcEENS_9allocatorIcEEE8max_sizeB7v160006Ev, symObjAddr: 0x4284, symBinAddr: 0x100009170, symSize: 0xAC }
  - { offsetInCU: 0x146F2, offset: 0x2207E, size: 0x8, addend: 0x0, symName: __ZNSt3__18ios_base18__setstate_nothrowB7v160006Ej, symObjAddr: 0x4330, symBinAddr: 0x10000921C, symSize: 0x64 }
  - { offsetInCU: 0x14725, offset: 0x220B1, size: 0x8, addend: 0x0, symName: __ZNKSt3__19basic_iosIcNS_11char_traitsIcEEE10exceptionsB7v160006Ev, symObjAddr: 0x4394, symBinAddr: 0x100009280, symSize: 0x24 }
  - { offsetInCU: 0x14749, offset: 0x220D5, size: 0x8, addend: 0x0, symName: __ZNSt3__112basic_stringIcNS_11char_traitsIcEENS_9allocatorIcEEE15__set_long_sizeB7v160006Em, symObjAddr: 0x4414, symBinAddr: 0x1000092B4, symSize: 0x38 }
  - { offsetInCU: 0x1477C, offset: 0x22108, size: 0x8, addend: 0x0, symName: __ZNSt3__111char_traitsIcE11to_int_typeEc, symObjAddr: 0x4500, symBinAddr: 0x1000092EC, symSize: 0x14 }
  - { offsetInCU: 0x147A8, offset: 0x22134, size: 0x8, addend: 0x0, symName: __ZNSt3__116allocator_traitsINS_9allocatorIcEEE8max_sizeB7v160006IS2_vEEmRKS2_, symObjAddr: 0x4570, symBinAddr: 0x100009300, symSize: 0x24 }
  - { offsetInCU: 0x147D5, offset: 0x22161, size: 0x8, addend: 0x0, symName: __ZNKSt3__112basic_stringIcNS_11char_traitsIcEENS_9allocatorIcEEE7__allocB7v160006Ev, symObjAddr: 0x4594, symBinAddr: 0x100009324, symSize: 0x24 }
  - { offsetInCU: 0x147F9, offset: 0x22185, size: 0x8, addend: 0x0, symName: __ZNSt3__114numeric_limitsImE3maxB7v160006Ev, symObjAddr: 0x45B8, symBinAddr: 0x100009348, symSize: 0x14 }
  - { offsetInCU: 0x1480D, offset: 0x22199, size: 0x8, addend: 0x0, symName: __ZNKSt3__19allocatorIcE8max_sizeB7v160006Ev, symObjAddr: 0x45CC, symBinAddr: 0x10000935C, symSize: 0x14 }
  - { offsetInCU: 0x14831, offset: 0x221BD, size: 0x8, addend: 0x0, symName: __ZNKSt3__117__compressed_pairINS_12basic_stringIcNS_11char_traitsIcEENS_9allocatorIcEEE5__repES5_E6secondB7v160006Ev, symObjAddr: 0x45E0, symBinAddr: 0x100009370, symSize: 0x24 }
  - { offsetInCU: 0x14855, offset: 0x221E1, size: 0x8, addend: 0x0, symName: __ZNKSt3__122__compressed_pair_elemINS_9allocatorIcEELi1ELb1EE5__getB7v160006Ev, symObjAddr: 0x4604, symBinAddr: 0x100009394, symSize: 0x14 }
  - { offsetInCU: 0x14879, offset: 0x22205, size: 0x8, addend: 0x0, symName: __ZNSt3__123__libcpp_numeric_limitsImLb1EE3maxB7v160006Ev, symObjAddr: 0x4618, symBinAddr: 0x1000093A8, symSize: 0x8 }
  - { offsetInCU: 0x1488D, offset: 0x22219, size: 0x8, addend: 0x0, symName: __ZNKSt3__18ios_base10exceptionsB7v160006Ev, symObjAddr: 0x4620, symBinAddr: 0x1000093B0, symSize: 0x18 }
  - { offsetInCU: 0x148B4, offset: 0x22240, size: 0x8, addend: 0x0, symName: __ZNKSt3__19basic_iosIcNS_11char_traitsIcEEE4failB7v160006Ev, symObjAddr: 0x4638, symBinAddr: 0x1000093C8, symSize: 0x28 }
  - { offsetInCU: 0x148D8, offset: 0x22264, size: 0x8, addend: 0x0, symName: __ZNKSt3__18ios_base4failB7v160006Ev, symObjAddr: 0x4660, symBinAddr: 0x1000093F0, symSize: 0x28 }
  - { offsetInCU: 0x148FF, offset: 0x2228B, size: 0x8, addend: 0x0, symName: __ZNSt3__115basic_stringbufIcNS_11char_traitsIcEENS_9allocatorIcEEEC1B7v160006ERKNS_12basic_stringIcS2_S4_EEj, symObjAddr: 0x4688, symBinAddr: 0x100009418, symSize: 0x3C }
  - { offsetInCU: 0x14943, offset: 0x222CF, size: 0x8, addend: 0x0, symName: __ZNSt3__115basic_stringbufIcNS_11char_traitsIcEENS_9allocatorIcEEEC2B7v160006ERKNS_12basic_stringIcS2_S4_EEj, symObjAddr: 0x46C4, symBinAddr: 0x100009454, symSize: 0xB4 }
  - { offsetInCU: 0x14987, offset: 0x22313, size: 0x8, addend: 0x0, symName: __ZNKSt3__112basic_stringIcNS_11char_traitsIcEENS_9allocatorIcEEE13get_allocatorB7v160006Ev, symObjAddr: 0x4778, symBinAddr: 0x100009508, symSize: 0x24 }
  - { offsetInCU: 0x149AB, offset: 0x22337, size: 0x8, addend: 0x0, symName: __ZNSt3__112basic_stringIcNS_11char_traitsIcEENS_9allocatorIcEEEC1B7v160006ERKS4_, symObjAddr: 0x479C, symBinAddr: 0x10000952C, symSize: 0x34 }
  - { offsetInCU: 0x149E2, offset: 0x2236E, size: 0x8, addend: 0x0, symName: __ZNSt3__112basic_stringIcNS_11char_traitsIcEENS_9allocatorIcEEEC2B7v160006ERKS4_, symObjAddr: 0x47D0, symBinAddr: 0x100009560, symSize: 0x50 }
  - { offsetInCU: 0x14A19, offset: 0x223A5, size: 0x8, addend: 0x0, symName: __ZNSt3__117__compressed_pairINS_12basic_stringIcNS_11char_traitsIcEENS_9allocatorIcEEE5__repES5_EC1B7v160006INS_18__default_init_tagERKS5_EEOT_OT0_, symObjAddr: 0x4820, symBinAddr: 0x1000095B0, symSize: 0x3C }
  - { offsetInCU: 0x14A6F, offset: 0x223FB, size: 0x8, addend: 0x0, symName: __ZNSt3__117__compressed_pairINS_12basic_stringIcNS_11char_traitsIcEENS_9allocatorIcEEE5__repES5_EC2B7v160006INS_18__default_init_tagERKS5_EEOT_OT0_, symObjAddr: 0x485C, symBinAddr: 0x1000095EC, symSize: 0x40 }
  - { offsetInCU: 0x14AC5, offset: 0x22451, size: 0x8, addend: 0x0, symName: __ZNSt3__122__compressed_pair_elemINS_9allocatorIcEELi1ELb1EEC2B7v160006IRKS2_vEEOT_, symObjAddr: 0x489C, symBinAddr: 0x10000962C, symSize: 0x18 }
  - { offsetInCU: 0x14B05, offset: 0x22491, size: 0x8, addend: 0x0, symName: __ZNSt3__16vectorIiNS_9allocatorIiEEEC2B7v160006ESt16initializer_listIiE, symObjAddr: 0x48B4, symBinAddr: 0x100009644, symSize: 0x124 }
  - { offsetInCU: 0x14B5C, offset: 0x224E8, size: 0x8, addend: 0x0, symName: __ZNSt3__117__compressed_pairIPiNS_9allocatorIiEEEC1B7v160006IDnNS_18__default_init_tagEEEOT_OT0_, symObjAddr: 0x49D8, symBinAddr: 0x100009768, symSize: 0x3C }
  - { offsetInCU: 0x14BB2, offset: 0x2253E, size: 0x8, addend: 0x0, symName: __ZNSt3__16vectorIiNS_9allocatorIiEEE16__destroy_vectorC1ERS3_, symObjAddr: 0x4A54, symBinAddr: 0x1000097E4, symSize: 0x34 }
  - { offsetInCU: 0x14BE9, offset: 0x22575, size: 0x8, addend: 0x0, symName: __ZNKSt16initializer_listIiE4sizeB7v160006Ev, symObjAddr: 0x4A98, symBinAddr: 0x100009828, symSize: 0x18 }
  - { offsetInCU: 0x14C0D, offset: 0x22599, size: 0x8, addend: 0x0, symName: __ZNSt3__16vectorIiNS_9allocatorIiEEE11__vallocateB7v160006Em, symObjAddr: 0x4AB0, symBinAddr: 0x100009840, symSize: 0xAC }
  - { offsetInCU: 0x14C50, offset: 0x225DC, size: 0x8, addend: 0x0, symName: __ZNSt3__16vectorIiNS_9allocatorIiEEE18__construct_at_endIPKiLi0EEEvT_S7_m, symObjAddr: 0x4B5C, symBinAddr: 0x1000098EC, symSize: 0x8C }
  - { offsetInCU: 0x14CC3, offset: 0x2264F, size: 0x8, addend: 0x0, symName: __ZNKSt16initializer_listIiE5beginB7v160006Ev, symObjAddr: 0x4BE8, symBinAddr: 0x100009978, symSize: 0x18 }
  - { offsetInCU: 0x14CE7, offset: 0x22673, size: 0x8, addend: 0x0, symName: __ZNKSt16initializer_listIiE3endB7v160006Ev, symObjAddr: 0x4C00, symBinAddr: 0x100009990, symSize: 0x20 }
  - { offsetInCU: 0x14D0B, offset: 0x22697, size: 0x8, addend: 0x0, symName: __ZNSt3__128__exception_guard_exceptionsINS_6vectorIiNS_9allocatorIiEEE16__destroy_vectorEE10__completeB7v160006Ev, symObjAddr: 0x4C20, symBinAddr: 0x1000099B0, symSize: 0x1C }
  - { offsetInCU: 0x14D2F, offset: 0x226BB, size: 0x8, addend: 0x0, symName: __ZNSt3__128__exception_guard_exceptionsINS_6vectorIiNS_9allocatorIiEEE16__destroy_vectorEED1B7v160006Ev, symObjAddr: 0x4C3C, symBinAddr: 0x1000099CC, symSize: 0x2C }
  - { offsetInCU: 0x14D57, offset: 0x226E3, size: 0x8, addend: 0x0, symName: __ZNSt3__117__compressed_pairIPiNS_9allocatorIiEEEC2B7v160006IDnNS_18__default_init_tagEEEOT_OT0_, symObjAddr: 0x4C68, symBinAddr: 0x1000099F8, symSize: 0x40 }
  - { offsetInCU: 0x14DAD, offset: 0x22739, size: 0x8, addend: 0x0, symName: __ZNSt3__122__compressed_pair_elemIPiLi0ELb0EEC2B7v160006IDnvEEOT_, symObjAddr: 0x4CA8, symBinAddr: 0x100009A38, symSize: 0x1C }
  - { offsetInCU: 0x14DED, offset: 0x22779, size: 0x8, addend: 0x0, symName: __ZNSt3__122__compressed_pair_elemINS_9allocatorIiEELi1ELb1EEC2B7v160006ENS_18__default_init_tagE, symObjAddr: 0x4CC4, symBinAddr: 0x100009A54, symSize: 0x2C }
  - { offsetInCU: 0x14E1F, offset: 0x227AB, size: 0x8, addend: 0x0, symName: __ZNSt3__19allocatorIiEC2B7v160006Ev, symObjAddr: 0x4CF0, symBinAddr: 0x100009A80, symSize: 0x2C }
  - { offsetInCU: 0x14E47, offset: 0x227D3, size: 0x8, addend: 0x0, symName: __ZNSt3__116__non_trivial_ifILb1ENS_9allocatorIiEEEC2B7v160006Ev, symObjAddr: 0x4D1C, symBinAddr: 0x100009AAC, symSize: 0x14 }
  - { offsetInCU: 0x14E6F, offset: 0x227FB, size: 0x8, addend: 0x0, symName: __ZNSt3__128__exception_guard_exceptionsINS_6vectorIiNS_9allocatorIiEEE16__destroy_vectorEEC1B7v160006ES5_, symObjAddr: 0x4D30, symBinAddr: 0x100009AC0, symSize: 0x34 }
  - { offsetInCU: 0x14EA5, offset: 0x22831, size: 0x8, addend: 0x0, symName: __ZNSt3__128__exception_guard_exceptionsINS_6vectorIiNS_9allocatorIiEEE16__destroy_vectorEEC2B7v160006ES5_, symObjAddr: 0x4D64, symBinAddr: 0x100009AF4, symSize: 0x24 }
  - { offsetInCU: 0x14EDB, offset: 0x22867, size: 0x8, addend: 0x0, symName: __ZNSt3__16vectorIiNS_9allocatorIiEEE16__destroy_vectorC2ERS3_, symObjAddr: 0x4D88, symBinAddr: 0x100009B18, symSize: 0x20 }
  - { offsetInCU: 0x14F12, offset: 0x2289E, size: 0x8, addend: 0x0, symName: __ZNKSt3__16vectorIiNS_9allocatorIiEEE8max_sizeEv, symObjAddr: 0x4DA8, symBinAddr: 0x100009B38, symSize: 0x60 }
  - { offsetInCU: 0x14F38, offset: 0x228C4, size: 0x8, addend: 0x0, symName: __ZNKSt3__16vectorIiNS_9allocatorIiEEE20__throw_length_errorB7v160006Ev, symObjAddr: 0x4E08, symBinAddr: 0x100009B98, symSize: 0x1C }
  - { offsetInCU: 0x14F5C, offset: 0x228E8, size: 0x8, addend: 0x0, symName: __ZNSt3__16vectorIiNS_9allocatorIiEEE7__allocB7v160006Ev, symObjAddr: 0x4E64, symBinAddr: 0x100009BF4, symSize: 0x28 }
  - { offsetInCU: 0x14F80, offset: 0x2290C, size: 0x8, addend: 0x0, symName: __ZNSt3__16vectorIiNS_9allocatorIiEEE9__end_capB7v160006Ev, symObjAddr: 0x4E8C, symBinAddr: 0x100009C1C, symSize: 0x28 }
  - { offsetInCU: 0x14FA4, offset: 0x22930, size: 0x8, addend: 0x0, symName: __ZNKSt3__16vectorIiNS_9allocatorIiEEE14__annotate_newB7v160006Em, symObjAddr: 0x4EB4, symBinAddr: 0x100009C44, symSize: 0xAC }
  - { offsetInCU: 0x14FE1, offset: 0x2296D, size: 0x8, addend: 0x0, symName: __ZNSt3__116allocator_traitsINS_9allocatorIiEEE8max_sizeB7v160006IS2_vEEmRKS2_, symObjAddr: 0x4F8C, symBinAddr: 0x100009D1C, symSize: 0x24 }
  - { offsetInCU: 0x1500E, offset: 0x2299A, size: 0x8, addend: 0x0, symName: __ZNKSt3__16vectorIiNS_9allocatorIiEEE7__allocB7v160006Ev, symObjAddr: 0x4FB0, symBinAddr: 0x100009D40, symSize: 0x28 }
  - { offsetInCU: 0x15032, offset: 0x229BE, size: 0x8, addend: 0x0, symName: __ZNSt3__114numeric_limitsIlE3maxB7v160006Ev, symObjAddr: 0x4FD8, symBinAddr: 0x100009D68, symSize: 0x14 }
  - { offsetInCU: 0x15050, offset: 0x229DC, size: 0x8, addend: 0x0, symName: __ZNKSt3__16__lessImmEclB7v160006ERKmS3_, symObjAddr: 0x5040, symBinAddr: 0x100009DD0, symSize: 0x34 }
  - { offsetInCU: 0x15090, offset: 0x22A1C, size: 0x8, addend: 0x0, symName: __ZNKSt3__19allocatorIiE8max_sizeB7v160006Ev, symObjAddr: 0x5074, symBinAddr: 0x100009E04, symSize: 0x14 }
  - { offsetInCU: 0x150B4, offset: 0x22A40, size: 0x8, addend: 0x0, symName: __ZNKSt3__117__compressed_pairIPiNS_9allocatorIiEEE6secondB7v160006Ev, symObjAddr: 0x5088, symBinAddr: 0x100009E18, symSize: 0x24 }
  - { offsetInCU: 0x150D8, offset: 0x22A64, size: 0x8, addend: 0x0, symName: __ZNKSt3__122__compressed_pair_elemINS_9allocatorIiEELi1ELb1EE5__getB7v160006Ev, symObjAddr: 0x50AC, symBinAddr: 0x100009E3C, symSize: 0x14 }
  - { offsetInCU: 0x150FC, offset: 0x22A88, size: 0x8, addend: 0x0, symName: __ZNSt3__123__libcpp_numeric_limitsIlLb1EE3maxB7v160006Ev, symObjAddr: 0x50C0, symBinAddr: 0x100009E50, symSize: 0x8 }
  - { offsetInCU: 0x15110, offset: 0x22A9C, size: 0x8, addend: 0x0, symName: __ZNSt12length_errorC1B7v160006EPKc, symObjAddr: 0x512C, symBinAddr: 0x100009EBC, symSize: 0x34 }
  - { offsetInCU: 0x15146, offset: 0x22AD2, size: 0x8, addend: 0x0, symName: __ZNSt12length_errorC2B7v160006EPKc, symObjAddr: 0x5160, symBinAddr: 0x100009EF0, symSize: 0x4C }
  - { offsetInCU: 0x1517C, offset: 0x22B08, size: 0x8, addend: 0x0, symName: __ZNSt3__19allocatorIiE8allocateB7v160006Em, symObjAddr: 0x51AC, symBinAddr: 0x100009F3C, symSize: 0x58 }
  - { offsetInCU: 0x151AE, offset: 0x22B3A, size: 0x8, addend: 0x0, symName: __ZNSt3__117__compressed_pairIPiNS_9allocatorIiEEE6secondB7v160006Ev, symObjAddr: 0x5284, symBinAddr: 0x10000A014, symSize: 0x24 }
  - { offsetInCU: 0x151D2, offset: 0x22B5E, size: 0x8, addend: 0x0, symName: __ZNSt3__122__compressed_pair_elemINS_9allocatorIiEELi1ELb1EE5__getB7v160006Ev, symObjAddr: 0x52A8, symBinAddr: 0x10000A038, symSize: 0x14 }
  - { offsetInCU: 0x151F6, offset: 0x22B82, size: 0x8, addend: 0x0, symName: __ZNSt3__117__compressed_pairIPiNS_9allocatorIiEEE5firstB7v160006Ev, symObjAddr: 0x52BC, symBinAddr: 0x10000A04C, symSize: 0x24 }
  - { offsetInCU: 0x1521A, offset: 0x22BA6, size: 0x8, addend: 0x0, symName: __ZNSt3__122__compressed_pair_elemIPiLi0ELb0EE5__getB7v160006Ev, symObjAddr: 0x52E0, symBinAddr: 0x10000A070, symSize: 0x14 }
  - { offsetInCU: 0x1523E, offset: 0x22BCA, size: 0x8, addend: 0x0, symName: __ZNKSt3__16vectorIiNS_9allocatorIiEEE31__annotate_contiguous_containerB7v160006EPKvS5_S5_S5_, symObjAddr: 0x52F4, symBinAddr: 0x10000A084, symSize: 0x20 }
  - { offsetInCU: 0x1528E, offset: 0x22C1A, size: 0x8, addend: 0x0, symName: __ZNKSt3__16vectorIiNS_9allocatorIiEEE4dataB7v160006Ev, symObjAddr: 0x5314, symBinAddr: 0x10000A0A4, symSize: 0x28 }
  - { offsetInCU: 0x152B2, offset: 0x22C3E, size: 0x8, addend: 0x0, symName: __ZNKSt3__16vectorIiNS_9allocatorIiEEE8capacityB7v160006Ev, symObjAddr: 0x533C, symBinAddr: 0x10000A0CC, symSize: 0x40 }
  - { offsetInCU: 0x152D6, offset: 0x22C62, size: 0x8, addend: 0x0, symName: __ZNKSt3__16vectorIiNS_9allocatorIiEEE9__end_capB7v160006Ev, symObjAddr: 0x5390, symBinAddr: 0x10000A120, symSize: 0x28 }
  - { offsetInCU: 0x152FA, offset: 0x22C86, size: 0x8, addend: 0x0, symName: __ZNKSt3__117__compressed_pairIPiNS_9allocatorIiEEE5firstB7v160006Ev, symObjAddr: 0x53B8, symBinAddr: 0x10000A148, symSize: 0x24 }
  - { offsetInCU: 0x1531E, offset: 0x22CAA, size: 0x8, addend: 0x0, symName: __ZNKSt3__122__compressed_pair_elemIPiLi0ELb0EE5__getB7v160006Ev, symObjAddr: 0x53DC, symBinAddr: 0x10000A16C, symSize: 0x14 }
  - { offsetInCU: 0x1535B, offset: 0x22CE7, size: 0x8, addend: 0x0, symName: __ZNSt3__16vectorIiNS_9allocatorIiEEE21_ConstructTransactionC1B7v160006ERS3_m, symObjAddr: 0x53F0, symBinAddr: 0x10000A180, symSize: 0x3C }
  - { offsetInCU: 0x153A1, offset: 0x22D2D, size: 0x8, addend: 0x0, symName: __ZNSt3__16vectorIiNS_9allocatorIiEEE21_ConstructTransactionD1B7v160006Ev, symObjAddr: 0x5464, symBinAddr: 0x10000A1F4, symSize: 0x2C }
  - { offsetInCU: 0x153C9, offset: 0x22D55, size: 0x8, addend: 0x0, symName: __ZNSt3__16vectorIiNS_9allocatorIiEEE21_ConstructTransactionC2B7v160006ERS3_m, symObjAddr: 0x5490, symBinAddr: 0x10000A220, symSize: 0x44 }
  - { offsetInCU: 0x15432, offset: 0x22DBE, size: 0x8, addend: 0x0, symName: __ZNKSt3__114__copy_trivialclB7v160006IKiiLi0EEENS_4pairIPT_PT0_EES5_S5_S7_, symObjAddr: 0x56B0, symBinAddr: 0x10000A440, symSize: 0x48 }
  - { offsetInCU: 0x154B7, offset: 0x22E43, size: 0x8, addend: 0x0, symName: __ZNSt3__14pairIPKiS2_EC1B7v160006IS2_S2_LPv0EEEOT_OT0_, symObjAddr: 0x5818, symBinAddr: 0x10000A5A8, symSize: 0x3C }
  - { offsetInCU: 0x15513, offset: 0x22E9F, size: 0x8, addend: 0x0, symName: __ZNSt3__14pairIPKiS2_EC2B7v160006IS2_S2_LPv0EEEOT_OT0_, symObjAddr: 0x5854, symBinAddr: 0x10000A5E4, symSize: 0x34 }
  - { offsetInCU: 0x1556F, offset: 0x22EFB, size: 0x8, addend: 0x0, symName: __ZNSt3__118__unwrap_iter_implIPKiLb1EE8__unwrapB7v160006ES2_, symObjAddr: 0x5888, symBinAddr: 0x10000A618, symSize: 0x24 }
  - { offsetInCU: 0x1559B, offset: 0x22F27, size: 0x8, addend: 0x0, symName: __ZNSt3__14pairIPKiPiEC1B7v160006IRS2_S3_LPv0EEEOT_OT0_, symObjAddr: 0x597C, symBinAddr: 0x10000A70C, symSize: 0x3C }
  - { offsetInCU: 0x155F7, offset: 0x22F83, size: 0x8, addend: 0x0, symName: __ZNSt3__14pairIPKiPiEC2B7v160006IRS2_S3_LPv0EEEOT_OT0_, symObjAddr: 0x59B8, symBinAddr: 0x10000A748, symSize: 0x34 }
  - { offsetInCU: 0x15653, offset: 0x22FDF, size: 0x8, addend: 0x0, symName: __ZNSt3__118__unwrap_iter_implIPiLb1EE8__unwrapB7v160006ES1_, symObjAddr: 0x59EC, symBinAddr: 0x10000A77C, symSize: 0x24 }
  - { offsetInCU: 0x15675, offset: 0x23001, size: 0x8, addend: 0x0, symName: __ZNSt3__14pairIPKiPiEC1B7v160006IS2_S3_LPv0EEEOT_OT0_, symObjAddr: 0x5A10, symBinAddr: 0x10000A7A0, symSize: 0x3C }
  - { offsetInCU: 0x156D1, offset: 0x2305D, size: 0x8, addend: 0x0, symName: __ZNSt3__14pairIPKiPiEC2B7v160006IS2_S3_LPv0EEEOT_OT0_, symObjAddr: 0x5A4C, symBinAddr: 0x10000A7DC, symSize: 0x34 }
  - { offsetInCU: 0x1572D, offset: 0x230B9, size: 0x8, addend: 0x0, symName: __ZNSt3__118__unwrap_iter_implIPKiLb1EE8__rewrapB7v160006ES2_S2_, symObjAddr: 0x5ABC, symBinAddr: 0x10000A84C, symSize: 0x50 }
  - { offsetInCU: 0x1575D, offset: 0x230E9, size: 0x8, addend: 0x0, symName: __ZNSt3__118__unwrap_iter_implIPiLb1EE8__rewrapB7v160006ES1_S1_, symObjAddr: 0x5B0C, symBinAddr: 0x10000A89C, symSize: 0x50 }
  - { offsetInCU: 0x1578D, offset: 0x23119, size: 0x8, addend: 0x0, symName: __ZNSt3__16vectorIiNS_9allocatorIiEEE21_ConstructTransactionD2B7v160006Ev, symObjAddr: 0x5B5C, symBinAddr: 0x10000A8EC, symSize: 0x20 }
  - { offsetInCU: 0x157B5, offset: 0x23141, size: 0x8, addend: 0x0, symName: __ZNSt3__128__exception_guard_exceptionsINS_6vectorIiNS_9allocatorIiEEE16__destroy_vectorEED2B7v160006Ev, symObjAddr: 0x5B7C, symBinAddr: 0x10000A90C, symSize: 0x50 }
  - { offsetInCU: 0x157DD, offset: 0x23169, size: 0x8, addend: 0x0, symName: __ZNSt3__16vectorIiNS_9allocatorIiEEE16__destroy_vectorclB7v160006Ev, symObjAddr: 0x5BCC, symBinAddr: 0x10000A95C, symSize: 0x9C }
  - { offsetInCU: 0x15801, offset: 0x2318D, size: 0x8, addend: 0x0, symName: __ZNKSt3__16vectorIiNS_9allocatorIiEEE17__annotate_deleteB7v160006Ev, symObjAddr: 0x5C68, symBinAddr: 0x10000A9F8, symSize: 0xB8 }
  - { offsetInCU: 0x15825, offset: 0x231B1, size: 0x8, addend: 0x0, symName: __ZNSt3__16vectorIiNS_9allocatorIiEEE7__clearB7v160006Ev, symObjAddr: 0x5D30, symBinAddr: 0x10000AAC0, symSize: 0x28 }
  - { offsetInCU: 0x15849, offset: 0x231D5, size: 0x8, addend: 0x0, symName: __ZNSt3__116allocator_traitsINS_9allocatorIiEEE10deallocateB7v160006ERS2_Pim, symObjAddr: 0x5D58, symBinAddr: 0x10000AAE8, symSize: 0x34 }
  - { offsetInCU: 0x1588A, offset: 0x23216, size: 0x8, addend: 0x0, symName: __ZNKSt3__16vectorIiNS_9allocatorIiEEE4sizeB7v160006Ev, symObjAddr: 0x5D8C, symBinAddr: 0x10000AB1C, symSize: 0x28 }
  - { offsetInCU: 0x158AE, offset: 0x2323A, size: 0x8, addend: 0x0, symName: __ZNSt3__16vectorIiNS_9allocatorIiEEE22__base_destruct_at_endB7v160006EPi, symObjAddr: 0x5DB4, symBinAddr: 0x10000AB44, symSize: 0x8C }
  - { offsetInCU: 0x158F1, offset: 0x2327D, size: 0x8, addend: 0x0, symName: __ZNSt3__116allocator_traitsINS_9allocatorIiEEE7destroyB7v160006IivEEvRS2_PT_, symObjAddr: 0x5E40, symBinAddr: 0x10000ABD0, symSize: 0x2C }
  - { offsetInCU: 0x1592D, offset: 0x232B9, size: 0x8, addend: 0x0, symName: __ZNSt3__19allocatorIiE7destroyB7v160006EPi, symObjAddr: 0x5E6C, symBinAddr: 0x10000ABFC, symSize: 0x14 }
  - { offsetInCU: 0x1595F, offset: 0x232EB, size: 0x8, addend: 0x0, symName: __ZNSt3__19allocatorIiE10deallocateB7v160006EPim, symObjAddr: 0x5E80, symBinAddr: 0x10000AC10, symSize: 0x40 }
  - { offsetInCU: 0x1599F, offset: 0x2332B, size: 0x8, addend: 0x0, symName: __ZNSt3__16vectorIiNS_9allocatorIiEEED2B7v160006Ev, symObjAddr: 0x5EC0, symBinAddr: 0x10000AC50, symSize: 0x44 }
  - { offsetInCU: 0x159C7, offset: 0x23353, size: 0x8, addend: 0x0, symName: __ZNSt3__112__hash_tableINS_17__hash_value_typeINS_12basic_stringIcNS_11char_traitsIcEENS_9allocatorIcEEEENS_6vectorIiNS5_IiEEEEEENS_22__unordered_map_hasherIS7_SB_NS_4hashIS7_EENS_8equal_toIS7_EELb1EEENS_21__unordered_map_equalIS7_SB_SG_SE_Lb1EEENS5_ISB_EEE15__insert_uniqueB7v160006EONS_4pairIKS7_SA_EE, symObjAddr: 0x5F04, symBinAddr: 0x10000AC94, symSize: 0x50 }
  - { offsetInCU: 0x159FA, offset: 0x23386, size: 0x8, addend: 0x0, symName: __ZNSt3__14pairINS_19__hash_map_iteratorINS_15__hash_iteratorIPNS_11__hash_nodeINS_17__hash_value_typeINS_12basic_stringIcNS_11char_traitsIcEENS_9allocatorIcEEEENS_6vectorIiNS8_IiEEEEEEPvEEEEEEbEC1B7v160006ISI_bLSF_0EEEONS0_IT_T0_EE, symObjAddr: 0x5F54, symBinAddr: 0x10000ACE4, symSize: 0x34 }
  - { offsetInCU: 0x15A49, offset: 0x233D5, size: 0x8, addend: 0x0, symName: __ZNSt3__112__hash_tableINS_17__hash_value_typeINS_12basic_stringIcNS_11char_traitsIcEENS_9allocatorIcEEEENS_6vectorIiNS5_IiEEEEEENS_22__unordered_map_hasherIS7_SB_NS_4hashIS7_EENS_8equal_toIS7_EELb1EEENS_21__unordered_map_equalIS7_SB_SG_SE_Lb1EEENS5_ISB_EEE25__emplace_unique_key_argsIS7_JNS_4pairIKS7_SA_EEEEENSN_INS_15__hash_iteratorIPNS_11__hash_nodeISB_PvEEEEbEERKT_DpOT0_, symObjAddr: 0x5F88, symBinAddr: 0x10000AD18, symSize: 0x4C0 }
  - { offsetInCU: 0x15B2F, offset: 0x234BB, size: 0x8, addend: 0x0, symName: __ZNSt3__122__hash_key_value_typesINS_17__hash_value_typeINS_12basic_stringIcNS_11char_traitsIcEENS_9allocatorIcEEEENS_6vectorIiNS5_IiEEEEEEE9__get_keyB7v160006ERKNS_4pairIKS7_SA_EE, symObjAddr: 0x6448, symBinAddr: 0x10000B1D8, symSize: 0x14 }
  - { offsetInCU: 0x15B51, offset: 0x234DD, size: 0x8, addend: 0x0, symName: __ZNSt3__112__hash_tableINS_17__hash_value_typeINS_12basic_stringIcNS_11char_traitsIcEENS_9allocatorIcEEEENS_6vectorIiNS5_IiEEEEEENS_22__unordered_map_hasherIS7_SB_NS_4hashIS7_EENS_8equal_toIS7_EELb1EEENS_21__unordered_map_equalIS7_SB_SG_SE_Lb1EEENS5_ISB_EEE13hash_functionB7v160006Ev, symObjAddr: 0x645C, symBinAddr: 0x10000B1EC, symSize: 0x28 }
  - { offsetInCU: 0x15B75, offset: 0x23501, size: 0x8, addend: 0x0, symName: __ZNKSt3__122__unordered_map_hasherINS_12basic_stringIcNS_11char_traitsIcEENS_9allocatorIcEEEENS_17__hash_value_typeIS6_NS_6vectorIiNS4_IiEEEEEENS_4hashIS6_EENS_8equal_toIS6_EELb1EEclB7v160006ERKS6_, symObjAddr: 0x6484, symBinAddr: 0x10000B214, symSize: 0x2C }
  - { offsetInCU: 0x15BA8, offset: 0x23534, size: 0x8, addend: 0x0, symName: __ZNKSt3__112__hash_tableINS_17__hash_value_typeINS_12basic_stringIcNS_11char_traitsIcEENS_9allocatorIcEEEENS_6vectorIiNS5_IiEEEEEENS_22__unordered_map_hasherIS7_SB_NS_4hashIS7_EENS_8equal_toIS7_EELb1EEENS_21__unordered_map_equalIS7_SB_SG_SE_Lb1EEENS5_ISB_EEE12bucket_countB7v160006Ev, symObjAddr: 0x64B0, symBinAddr: 0x10000B240, symSize: 0x28 }
  - { offsetInCU: 0x15BCC, offset: 0x23558, size: 0x8, addend: 0x0, symName: __ZNKSt3__110unique_ptrIA_PNS_16__hash_node_baseIPNS_11__hash_nodeINS_17__hash_value_typeINS_12basic_stringIcNS_11char_traitsIcEENS_9allocatorIcEEEENS_6vectorIiNS7_IiEEEEEEPvEEEENS_25__bucket_list_deallocatorINS7_ISI_EEEEEixB7v160006Em, symObjAddr: 0x6570, symBinAddr: 0x10000B300, symSize: 0x34 }
  - { offsetInCU: 0x15BFF, offset: 0x2358B, size: 0x8, addend: 0x0, symName: __ZNKSt3__116__hash_node_baseIPNS_11__hash_nodeINS_17__hash_value_typeINS_12basic_stringIcNS_11char_traitsIcEENS_9allocatorIcEEEENS_6vectorIiNS6_IiEEEEEEPvEEE6__hashB7v160006Ev, symObjAddr: 0x65A4, symBinAddr: 0x10000B334, symSize: 0x18 }
  - { offsetInCU: 0x15C23, offset: 0x235AF, size: 0x8, addend: 0x0, symName: __ZNSt3__112__hash_tableINS_17__hash_value_typeINS_12basic_stringIcNS_11char_traitsIcEENS_9allocatorIcEEEENS_6vectorIiNS5_IiEEEEEENS_22__unordered_map_hasherIS7_SB_NS_4hashIS7_EENS_8equal_toIS7_EELb1EEENS_21__unordered_map_equalIS7_SB_SG_SE_Lb1EEENS5_ISB_EEE6key_eqB7v160006Ev, symObjAddr: 0x65BC, symBinAddr: 0x10000B34C, symSize: 0x28 }
  - { offsetInCU: 0x15C47, offset: 0x235D3, size: 0x8, addend: 0x0, symName: __ZNKSt3__121__unordered_map_equalINS_12basic_stringIcNS_11char_traitsIcEENS_9allocatorIcEEEENS_17__hash_value_typeIS6_NS_6vectorIiNS4_IiEEEEEENS_8equal_toIS6_EENS_4hashIS6_EELb1EEclB7v160006ERKSB_RKS6_, symObjAddr: 0x65E4, symBinAddr: 0x10000B374, symSize: 0x48 }
  - { offsetInCU: 0x15C89, offset: 0x23615, size: 0x8, addend: 0x0, symName: __ZNSt3__112__hash_tableINS_17__hash_value_typeINS_12basic_stringIcNS_11char_traitsIcEENS_9allocatorIcEEEENS_6vectorIiNS5_IiEEEEEENS_22__unordered_map_hasherIS7_SB_NS_4hashIS7_EENS_8equal_toIS7_EELb1EEENS_21__unordered_map_equalIS7_SB_SG_SE_Lb1EEENS5_ISB_EEE21__construct_node_hashINS_4pairIKS7_SA_EEJEEENS_10unique_ptrINS_11__hash_nodeISB_PvEENS_22__hash_node_destructorINS5_IST_EEEEEEmOT_DpOT0_, symObjAddr: 0x662C, symBinAddr: 0x10000B3BC, symSize: 0x140 }
  - { offsetInCU: 0x15CFC, offset: 0x23688, size: 0x8, addend: 0x0, symName: __ZNSt3__112__hash_tableINS_17__hash_value_typeINS_12basic_stringIcNS_11char_traitsIcEENS_9allocatorIcEEEENS_6vectorIiNS5_IiEEEEEENS_22__unordered_map_hasherIS7_SB_NS_4hashIS7_EENS_8equal_toIS7_EELb1EEENS_21__unordered_map_equalIS7_SB_SG_SE_Lb1EEENS5_ISB_EEE4sizeB7v160006Ev, symObjAddr: 0x676C, symBinAddr: 0x10000B4FC, symSize: 0x28 }
  - { offsetInCU: 0x15D20, offset: 0x236AC, size: 0x8, addend: 0x0, symName: __ZNSt3__112__hash_tableINS_17__hash_value_typeINS_12basic_stringIcNS_11char_traitsIcEENS_9allocatorIcEEEENS_6vectorIiNS5_IiEEEEEENS_22__unordered_map_hasherIS7_SB_NS_4hashIS7_EENS_8equal_toIS7_EELb1EEENS_21__unordered_map_equalIS7_SB_SG_SE_Lb1EEENS5_ISB_EEE15max_load_factorB7v160006Ev, symObjAddr: 0x6794, symBinAddr: 0x10000B524, symSize: 0x28 }
  - { offsetInCU: 0x15D44, offset: 0x236D0, size: 0x8, addend: 0x0, symName: __ZNSt3__112__hash_tableINS_17__hash_value_typeINS_12basic_stringIcNS_11char_traitsIcEENS_9allocatorIcEEEENS_6vectorIiNS5_IiEEEEEENS_22__unordered_map_hasherIS7_SB_NS_4hashIS7_EENS_8equal_toIS7_EELb1EEENS_21__unordered_map_equalIS7_SB_SG_SE_Lb1EEENS5_ISB_EEE15__rehash_uniqueB7v160006Em, symObjAddr: 0x67BC, symBinAddr: 0x10000B54C, symSize: 0x2C }
  - { offsetInCU: 0x15D76, offset: 0x23702, size: 0x8, addend: 0x0, symName: __Z4ceilB7v160006f, symObjAddr: 0x6864, symBinAddr: 0x10000B5F4, symSize: 0x18 }
  - { offsetInCU: 0x15DA5, offset: 0x23731, size: 0x8, addend: 0x0, symName: __ZNSt3__116__hash_node_baseIPNS_11__hash_nodeINS_17__hash_value_typeINS_12basic_stringIcNS_11char_traitsIcEENS_9allocatorIcEEEENS_6vectorIiNS6_IiEEEEEEPvEEE5__ptrB7v160006Ev, symObjAddr: 0x687C, symBinAddr: 0x10000B60C, symSize: 0x24 }
  - { offsetInCU: 0x15DC9, offset: 0x23755, size: 0x8, addend: 0x0, symName: __ZNKSt3__110unique_ptrINS_11__hash_nodeINS_17__hash_value_typeINS_12basic_stringIcNS_11char_traitsIcEENS_9allocatorIcEEEENS_6vectorIiNS6_IiEEEEEEPvEENS_22__hash_node_destructorINS6_ISE_EEEEEptB7v160006Ev, symObjAddr: 0x68A0, symBinAddr: 0x10000B630, symSize: 0x28 }
  - { offsetInCU: 0x15DED, offset: 0x23779, size: 0x8, addend: 0x0, symName: __ZNKSt3__110unique_ptrINS_11__hash_nodeINS_17__hash_value_typeINS_12basic_stringIcNS_11char_traitsIcEENS_9allocatorIcEEEENS_6vectorIiNS6_IiEEEEEEPvEENS_22__hash_node_destructorINS6_ISE_EEEEE3getB7v160006Ev, symObjAddr: 0x68C8, symBinAddr: 0x10000B658, symSize: 0x28 }
  - { offsetInCU: 0x15E11, offset: 0x2379D, size: 0x8, addend: 0x0, symName: __ZNSt3__110unique_ptrINS_11__hash_nodeINS_17__hash_value_typeINS_12basic_stringIcNS_11char_traitsIcEENS_9allocatorIcEEEENS_6vectorIiNS6_IiEEEEEEPvEENS_22__hash_node_destructorINS6_ISE_EEEEE7releaseB7v160006Ev, symObjAddr: 0x68F0, symBinAddr: 0x10000B680, symSize: 0x44 }
  - { offsetInCU: 0x15E45, offset: 0x237D1, size: 0x8, addend: 0x0, symName: __ZNSt3__110unique_ptrINS_11__hash_nodeINS_17__hash_value_typeINS_12basic_stringIcNS_11char_traitsIcEENS_9allocatorIcEEEENS_6vectorIiNS6_IiEEEEEEPvEENS_22__hash_node_destructorINS6_ISE_EEEEED1B7v160006Ev, symObjAddr: 0x6934, symBinAddr: 0x10000B6C4, symSize: 0x2C }
  - { offsetInCU: 0x15E6D, offset: 0x237F9, size: 0x8, addend: 0x0, symName: __ZNSt3__115__hash_iteratorIPNS_11__hash_nodeINS_17__hash_value_typeINS_12basic_stringIcNS_11char_traitsIcEENS_9allocatorIcEEEENS_6vectorIiNS6_IiEEEEEEPvEEEC1B7v160006EPNS_16__hash_node_baseISF_EEPKv, symObjAddr: 0x6960, symBinAddr: 0x10000B6F0, symSize: 0x3C }
  - { offsetInCU: 0x15EB8, offset: 0x23844, size: 0x8, addend: 0x0, symName: __ZNSt3__14pairINS_15__hash_iteratorIPNS_11__hash_nodeINS_17__hash_value_typeINS_12basic_stringIcNS_11char_traitsIcEENS_9allocatorIcEEEENS_6vectorIiNS7_IiEEEEEEPvEEEEbEC1B7v160006ISH_RbLSE_0EEEOT_OT0_, symObjAddr: 0x699C, symBinAddr: 0x10000B72C, symSize: 0x3C }
  - { offsetInCU: 0x15F14, offset: 0x238A0, size: 0x8, addend: 0x0, symName: __ZNSt3__117__compressed_pairImNS_22__unordered_map_hasherINS_12basic_stringIcNS_11char_traitsIcEENS_9allocatorIcEEEENS_17__hash_value_typeIS7_NS_6vectorIiNS5_IiEEEEEENS_4hashIS7_EENS_8equal_toIS7_EELb1EEEE6secondB7v160006Ev, symObjAddr: 0x69D8, symBinAddr: 0x10000B768, symSize: 0x24 }
  - { offsetInCU: 0x15F38, offset: 0x238C4, size: 0x8, addend: 0x0, symName: __ZNSt3__122__compressed_pair_elemINS_22__unordered_map_hasherINS_12basic_stringIcNS_11char_traitsIcEENS_9allocatorIcEEEENS_17__hash_value_typeIS7_NS_6vectorIiNS5_IiEEEEEENS_4hashIS7_EENS_8equal_toIS7_EELb1EEELi1ELb1EE5__getB7v160006Ev, symObjAddr: 0x69FC, symBinAddr: 0x10000B78C, symSize: 0x14 }
  - { offsetInCU: 0x15F5C, offset: 0x238E8, size: 0x8, addend: 0x0, symName: __ZNKSt3__113__string_hashIcNS_9allocatorIcEEEclERKNS_12basic_stringIcNS_11char_traitsIcEES2_EE, symObjAddr: 0x6A10, symBinAddr: 0x10000B7A0, symSize: 0x64 }
  - { offsetInCU: 0x15F8F, offset: 0x2391B, size: 0x8, addend: 0x0, symName: __ZNSt3__121__murmur2_or_cityhashImLm64EEclEPKvm, symObjAddr: 0x6AB0, symBinAddr: 0x10000B840, symSize: 0x410 }
  - { offsetInCU: 0x16029, offset: 0x239B5, size: 0x8, addend: 0x0, symName: __ZNSt3__121__murmur2_or_cityhashImLm64EE18__hash_len_0_to_16EPKcm, symObjAddr: 0x6EC0, symBinAddr: 0x10000BC50, symSize: 0x1C0 }
  - { offsetInCU: 0x16104, offset: 0x23A90, size: 0x8, addend: 0x0, symName: __ZNSt3__121__murmur2_or_cityhashImLm64EE19__hash_len_17_to_32EPKcm, symObjAddr: 0x7080, symBinAddr: 0x10000BE10, symSize: 0x130 }
  - { offsetInCU: 0x1616C, offset: 0x23AF8, size: 0x8, addend: 0x0, symName: __ZNSt3__121__murmur2_or_cityhashImLm64EE19__hash_len_33_to_64EPKcm, symObjAddr: 0x71B0, symBinAddr: 0x10000BF40, symSize: 0x2B8 }
  - { offsetInCU: 0x1621D, offset: 0x23BA9, size: 0x8, addend: 0x0, symName: __ZNSt3__121__murmur2_or_cityhashImLm64EE13__hash_len_16Emm, symObjAddr: 0x7488, symBinAddr: 0x10000C218, symSize: 0x80 }
  - { offsetInCU: 0x16277, offset: 0x23C03, size: 0x8, addend: 0x0, symName: __ZNSt3__121__murmur2_or_cityhashImLm64EE29__weak_hash_len_32_with_seedsEPKcmm, symObjAddr: 0x7508, symBinAddr: 0x10000C298, symSize: 0x88 }
  - { offsetInCU: 0x162B5, offset: 0x23C41, size: 0x8, addend: 0x0, symName: __ZNSt3__121__murmur2_or_cityhashImLm64EE8__rotateEmi, symObjAddr: 0x7590, symBinAddr: 0x10000C320, symSize: 0x64 }
  - { offsetInCU: 0x162E5, offset: 0x23C71, size: 0x8, addend: 0x0, symName: __ZNSt3__14pairImmEaSB7v160006EOS1_, symObjAddr: 0x75F4, symBinAddr: 0x10000C384, symSize: 0x30 }
  - { offsetInCU: 0x16318, offset: 0x23CA4, size: 0x8, addend: 0x0, symName: __ZNSt3__121__murmur2_or_cityhashImLm64EE11__shift_mixEm, symObjAddr: 0x7660, symBinAddr: 0x10000C3F0, symSize: 0x1C }
  - { offsetInCU: 0x1633A, offset: 0x23CC6, size: 0x8, addend: 0x0, symName: __ZNSt3__121__murmur2_or_cityhashImLm64EE22__rotate_by_at_least_1Emi, symObjAddr: 0x767C, symBinAddr: 0x10000C40C, symSize: 0x38 }
  - { offsetInCU: 0x1636A, offset: 0x23CF6, size: 0x8, addend: 0x0, symName: __ZNSt3__121__murmur2_or_cityhashImLm64EE29__weak_hash_len_32_with_seedsEmmmmmm, symObjAddr: 0x76D4, symBinAddr: 0x10000C464, symSize: 0xD8 }
  - { offsetInCU: 0x163E5, offset: 0x23D71, size: 0x8, addend: 0x0, symName: __ZNSt3__14pairImmEC1B7v160006ImmLPv0EEEOT_OT0_, symObjAddr: 0x77AC, symBinAddr: 0x10000C53C, symSize: 0x3C }
  - { offsetInCU: 0x16441, offset: 0x23DCD, size: 0x8, addend: 0x0, symName: __ZNSt3__14pairImmEC2B7v160006ImmLPv0EEEOT_OT0_, symObjAddr: 0x77E8, symBinAddr: 0x10000C578, symSize: 0x34 }
  - { offsetInCU: 0x1649D, offset: 0x23E29, size: 0x8, addend: 0x0, symName: __ZNKSt3__110unique_ptrIA_PNS_16__hash_node_baseIPNS_11__hash_nodeINS_17__hash_value_typeINS_12basic_stringIcNS_11char_traitsIcEENS_9allocatorIcEEEENS_6vectorIiNS7_IiEEEEEEPvEEEENS_25__bucket_list_deallocatorINS7_ISI_EEEEE11get_deleterB7v160006Ev, symObjAddr: 0x781C, symBinAddr: 0x10000C5AC, symSize: 0x24 }
  - { offsetInCU: 0x164C1, offset: 0x23E4D, size: 0x8, addend: 0x0, symName: __ZNKSt3__125__bucket_list_deallocatorINS_9allocatorIPNS_16__hash_node_baseIPNS_11__hash_nodeINS_17__hash_value_typeINS_12basic_stringIcNS_11char_traitsIcEENS1_IcEEEENS_6vectorIiNS1_IiEEEEEEPvEEEEEEE4sizeB7v160006Ev, symObjAddr: 0x7840, symBinAddr: 0x10000C5D0, symSize: 0x28 }
  - { offsetInCU: 0x164E5, offset: 0x23E71, size: 0x8, addend: 0x0, symName: __ZNKSt3__117__compressed_pairIPPNS_16__hash_node_baseIPNS_11__hash_nodeINS_17__hash_value_typeINS_12basic_stringIcNS_11char_traitsIcEENS_9allocatorIcEEEENS_6vectorIiNS7_IiEEEEEEPvEEEENS_25__bucket_list_deallocatorINS7_ISI_EEEEE6secondB7v160006Ev, symObjAddr: 0x7868, symBinAddr: 0x10000C5F8, symSize: 0x28 }
  - { offsetInCU: 0x16509, offset: 0x23E95, size: 0x8, addend: 0x0, symName: __ZNKSt3__122__compressed_pair_elemINS_25__bucket_list_deallocatorINS_9allocatorIPNS_16__hash_node_baseIPNS_11__hash_nodeINS_17__hash_value_typeINS_12basic_stringIcNS_11char_traitsIcEENS2_IcEEEENS_6vectorIiNS2_IiEEEEEEPvEEEEEEEELi1ELb0EE5__getB7v160006Ev, symObjAddr: 0x7890, symBinAddr: 0x10000C620, symSize: 0x14 }
  - { offsetInCU: 0x1652D, offset: 0x23EB9, size: 0x8, addend: 0x0, symName: __ZNKSt3__117__compressed_pairImNS_9allocatorIPNS_16__hash_node_baseIPNS_11__hash_nodeINS_17__hash_value_typeINS_12basic_stringIcNS_11char_traitsIcEENS1_IcEEEENS_6vectorIiNS1_IiEEEEEEPvEEEEEEE5firstB7v160006Ev, symObjAddr: 0x78A4, symBinAddr: 0x10000C634, symSize: 0x24 }
  - { offsetInCU: 0x16551, offset: 0x23EDD, size: 0x8, addend: 0x0, symName: __ZNKSt3__122__compressed_pair_elemImLi0ELb0EE5__getB7v160006Ev, symObjAddr: 0x78C8, symBinAddr: 0x10000C658, symSize: 0x14 }
  - { offsetInCU: 0x16575, offset: 0x23F01, size: 0x8, addend: 0x0, symName: __ZNKSt3__117__compressed_pairIPPNS_16__hash_node_baseIPNS_11__hash_nodeINS_17__hash_value_typeINS_12basic_stringIcNS_11char_traitsIcEENS_9allocatorIcEEEENS_6vectorIiNS7_IiEEEEEEPvEEEENS_25__bucket_list_deallocatorINS7_ISI_EEEEE5firstB7v160006Ev, symObjAddr: 0x78DC, symBinAddr: 0x10000C66C, symSize: 0x24 }
  - { offsetInCU: 0x16599, offset: 0x23F25, size: 0x8, addend: 0x0, symName: __ZNKSt3__122__compressed_pair_elemIPPNS_16__hash_node_baseIPNS_11__hash_nodeINS_17__hash_value_typeINS_12basic_stringIcNS_11char_traitsIcEENS_9allocatorIcEEEENS_6vectorIiNS7_IiEEEEEEPvEEEELi0ELb0EE5__getB7v160006Ev, symObjAddr: 0x7900, symBinAddr: 0x10000C690, symSize: 0x14 }
  - { offsetInCU: 0x165BD, offset: 0x23F49, size: 0x8, addend: 0x0, symName: __ZNSt3__117__compressed_pairIfNS_21__unordered_map_equalINS_12basic_stringIcNS_11char_traitsIcEENS_9allocatorIcEEEENS_17__hash_value_typeIS7_NS_6vectorIiNS5_IiEEEEEENS_8equal_toIS7_EENS_4hashIS7_EELb1EEEE6secondB7v160006Ev, symObjAddr: 0x7914, symBinAddr: 0x10000C6A4, symSize: 0x24 }
  - { offsetInCU: 0x165E1, offset: 0x23F6D, size: 0x8, addend: 0x0, symName: __ZNSt3__122__compressed_pair_elemINS_21__unordered_map_equalINS_12basic_stringIcNS_11char_traitsIcEENS_9allocatorIcEEEENS_17__hash_value_typeIS7_NS_6vectorIiNS5_IiEEEEEENS_8equal_toIS7_EENS_4hashIS7_EELb1EEELi1ELb1EE5__getB7v160006Ev, symObjAddr: 0x7938, symBinAddr: 0x10000C6C8, symSize: 0x14 }
  - { offsetInCU: 0x16605, offset: 0x23F91, size: 0x8, addend: 0x0, symName: __ZNKSt3__18equal_toINS_12basic_stringIcNS_11char_traitsIcEENS_9allocatorIcEEEEEclB7v160006ERKS6_S9_, symObjAddr: 0x794C, symBinAddr: 0x10000C6DC, symSize: 0x34 }
  - { offsetInCU: 0x16647, offset: 0x23FD3, size: 0x8, addend: 0x0, symName: __ZNKSt3__117__hash_value_typeINS_12basic_stringIcNS_11char_traitsIcEENS_9allocatorIcEEEENS_6vectorIiNS4_IiEEEEE11__get_valueB7v160006Ev, symObjAddr: 0x7980, symBinAddr: 0x10000C710, symSize: 0x14 }
  - { offsetInCU: 0x1666B, offset: 0x23FF7, size: 0x8, addend: 0x0, symName: __ZNSt3__111char_traitsIcE7compareEPKcS3_m, symObjAddr: 0x7ADC, symBinAddr: 0x10000C86C, symSize: 0x6C }
  - { offsetInCU: 0x166A9, offset: 0x24035, size: 0x8, addend: 0x0, symName: __ZNSt3__116allocator_traitsINS_9allocatorINS_11__hash_nodeINS_17__hash_value_typeINS_12basic_stringIcNS_11char_traitsIcEENS1_IcEEEENS_6vectorIiNS1_IiEEEEEEPvEEEEE8allocateB7v160006ERSF_m, symObjAddr: 0x7B7C, symBinAddr: 0x10000C90C, symSize: 0x2C }
  - { offsetInCU: 0x166DB, offset: 0x24067, size: 0x8, addend: 0x0, symName: __ZNSt3__122__hash_node_destructorINS_9allocatorINS_11__hash_nodeINS_17__hash_value_typeINS_12basic_stringIcNS_11char_traitsIcEENS1_IcEEEENS_6vectorIiNS1_IiEEEEEEPvEEEEEC1B7v160006ERSF_b, symObjAddr: 0x7BA8, symBinAddr: 0x10000C938, symSize: 0x48 }
  - { offsetInCU: 0x16726, offset: 0x240B2, size: 0x8, addend: 0x0, symName: __ZNSt3__110unique_ptrINS_11__hash_nodeINS_17__hash_value_typeINS_12basic_stringIcNS_11char_traitsIcEENS_9allocatorIcEEEENS_6vectorIiNS6_IiEEEEEEPvEENS_22__hash_node_destructorINS6_ISE_EEEEEC1B7v160006ILb1EvEEPSE_NS_16__dependent_typeINS_27__unique_ptr_deleter_sfinaeISH_EEXT_EE20__good_rval_ref_typeE, symObjAddr: 0x7BF0, symBinAddr: 0x10000C980, symSize: 0x3C }
  - { offsetInCU: 0x16775, offset: 0x24101, size: 0x8, addend: 0x0, symName: __ZNSt3__116allocator_traitsINS_9allocatorINS_11__hash_nodeINS_17__hash_value_typeINS_12basic_stringIcNS_11char_traitsIcEENS1_IcEEEENS_6vectorIiNS1_IiEEEEEEPvEEEEE9constructB7v160006INS_4pairIKS8_SB_EEJSK_EvEEvRSF_PT_DpOT0_, symObjAddr: 0x7C2C, symBinAddr: 0x10000C9BC, symSize: 0x34 }
  - { offsetInCU: 0x167CB, offset: 0x24157, size: 0x8, addend: 0x0, symName: __ZNSt3__110unique_ptrINS_11__hash_nodeINS_17__hash_value_typeINS_12basic_stringIcNS_11char_traitsIcEENS_9allocatorIcEEEENS_6vectorIiNS6_IiEEEEEEPvEENS_22__hash_node_destructorINS6_ISE_EEEEE11get_deleterB7v160006Ev, symObjAddr: 0x7C60, symBinAddr: 0x10000C9F0, symSize: 0x24 }
  - { offsetInCU: 0x167EF, offset: 0x2417B, size: 0x8, addend: 0x0, symName: __ZNSt3__19allocatorINS_11__hash_nodeINS_17__hash_value_typeINS_12basic_stringIcNS_11char_traitsIcEENS0_IcEEEENS_6vectorIiNS0_IiEEEEEEPvEEE8allocateB7v160006Em, symObjAddr: 0x7C84, symBinAddr: 0x10000CA14, symSize: 0x58 }
  - { offsetInCU: 0x1682B, offset: 0x241B7, size: 0x8, addend: 0x0, symName: __ZNSt3__116allocator_traitsINS_9allocatorINS_11__hash_nodeINS_17__hash_value_typeINS_12basic_stringIcNS_11char_traitsIcEENS1_IcEEEENS_6vectorIiNS1_IiEEEEEEPvEEEEE8max_sizeB7v160006ISF_vEEmRKSF_, symObjAddr: 0x7CDC, symBinAddr: 0x10000CA6C, symSize: 0x24 }
  - { offsetInCU: 0x16858, offset: 0x241E4, size: 0x8, addend: 0x0, symName: __ZNKSt3__19allocatorINS_11__hash_nodeINS_17__hash_value_typeINS_12basic_stringIcNS_11char_traitsIcEENS0_IcEEEENS_6vectorIiNS0_IiEEEEEEPvEEE8max_sizeB7v160006Ev, symObjAddr: 0x7D00, symBinAddr: 0x10000CA90, symSize: 0x14 }
  - { offsetInCU: 0x1687C, offset: 0x24208, size: 0x8, addend: 0x0, symName: __ZNSt3__122__hash_node_destructorINS_9allocatorINS_11__hash_nodeINS_17__hash_value_typeINS_12basic_stringIcNS_11char_traitsIcEENS1_IcEEEENS_6vectorIiNS1_IiEEEEEEPvEEEEEC2B7v160006ERSF_b, symObjAddr: 0x7D14, symBinAddr: 0x10000CAA4, symSize: 0x38 }
  - { offsetInCU: 0x168C2, offset: 0x2424E, size: 0x8, addend: 0x0, symName: __ZNSt3__110unique_ptrINS_11__hash_nodeINS_17__hash_value_typeINS_12basic_stringIcNS_11char_traitsIcEENS_9allocatorIcEEEENS_6vectorIiNS6_IiEEEEEEPvEENS_22__hash_node_destructorINS6_ISE_EEEEEC2B7v160006ILb1EvEEPSE_NS_16__dependent_typeINS_27__unique_ptr_deleter_sfinaeISH_EEXT_EE20__good_rval_ref_typeE, symObjAddr: 0x7D4C, symBinAddr: 0x10000CADC, symSize: 0x48 }
  - { offsetInCU: 0x16911, offset: 0x2429D, size: 0x8, addend: 0x0, symName: __ZNSt3__117__compressed_pairIPNS_11__hash_nodeINS_17__hash_value_typeINS_12basic_stringIcNS_11char_traitsIcEENS_9allocatorIcEEEENS_6vectorIiNS6_IiEEEEEEPvEENS_22__hash_node_destructorINS6_ISE_EEEEEC1B7v160006IRSF_SI_EEOT_OT0_, symObjAddr: 0x7D94, symBinAddr: 0x10000CB24, symSize: 0x3C }
  - { offsetInCU: 0x16967, offset: 0x242F3, size: 0x8, addend: 0x0, symName: __ZNSt3__117__compressed_pairIPNS_11__hash_nodeINS_17__hash_value_typeINS_12basic_stringIcNS_11char_traitsIcEENS_9allocatorIcEEEENS_6vectorIiNS6_IiEEEEEEPvEENS_22__hash_node_destructorINS6_ISE_EEEEEC2B7v160006IRSF_SI_EEOT_OT0_, symObjAddr: 0x7DD0, symBinAddr: 0x10000CB60, symSize: 0x48 }
  - { offsetInCU: 0x169BD, offset: 0x24349, size: 0x8, addend: 0x0, symName: __ZNSt3__122__compressed_pair_elemIPNS_11__hash_nodeINS_17__hash_value_typeINS_12basic_stringIcNS_11char_traitsIcEENS_9allocatorIcEEEENS_6vectorIiNS6_IiEEEEEEPvEELi0ELb0EEC2B7v160006IRSF_vEEOT_, symObjAddr: 0x7E18, symBinAddr: 0x10000CBA8, symSize: 0x24 }
  - { offsetInCU: 0x169FD, offset: 0x24389, size: 0x8, addend: 0x0, symName: __ZNSt3__122__compressed_pair_elemINS_22__hash_node_destructorINS_9allocatorINS_11__hash_nodeINS_17__hash_value_typeINS_12basic_stringIcNS_11char_traitsIcEENS2_IcEEEENS_6vectorIiNS2_IiEEEEEEPvEEEEEELi1ELb0EEC2B7v160006ISH_vEEOT_, symObjAddr: 0x7E3C, symBinAddr: 0x10000CBCC, symSize: 0x24 }
  - { offsetInCU: 0x16A3D, offset: 0x243C9, size: 0x8, addend: 0x0, symName: __ZNSt3__19allocatorINS_11__hash_nodeINS_17__hash_value_typeINS_12basic_stringIcNS_11char_traitsIcEENS0_IcEEEENS_6vectorIiNS0_IiEEEEEEPvEEE9constructB7v160006INS_4pairIKS7_SA_EEJSI_EEEvPT_DpOT0_, symObjAddr: 0x7E60, symBinAddr: 0x10000CBF0, symSize: 0x30 }
  - { offsetInCU: 0x16A91, offset: 0x2441D, size: 0x8, addend: 0x0, symName: __ZNSt3__14pairIKNS_12basic_stringIcNS_11char_traitsIcEENS_9allocatorIcEEEENS_6vectorIiNS4_IiEEEEEC1EOSB_, symObjAddr: 0x7E90, symBinAddr: 0x10000CC20, symSize: 0x34 }
  - { offsetInCU: 0x16AC3, offset: 0x2444F, size: 0x8, addend: 0x0, symName: __ZNSt3__14pairIKNS_12basic_stringIcNS_11char_traitsIcEENS_9allocatorIcEEEENS_6vectorIiNS4_IiEEEEEC2EOSB_, symObjAddr: 0x7EC4, symBinAddr: 0x10000CC54, symSize: 0x48 }
  - { offsetInCU: 0x16AF5, offset: 0x24481, size: 0x8, addend: 0x0, symName: __ZNSt3__16vectorIiNS_9allocatorIiEEEC1B7v160006EOS3_, symObjAddr: 0x7F0C, symBinAddr: 0x10000CC9C, symSize: 0x34 }
  - { offsetInCU: 0x16B2F, offset: 0x244BB, size: 0x8, addend: 0x0, symName: __ZNSt3__16vectorIiNS_9allocatorIiEEEC2B7v160006EOS3_, symObjAddr: 0x7F40, symBinAddr: 0x10000CCD0, symSize: 0xDC }
  - { offsetInCU: 0x16B6E, offset: 0x244FA, size: 0x8, addend: 0x0, symName: __ZNSt3__117__compressed_pairIPiNS_9allocatorIiEEEC1B7v160006IDnS3_EEOT_OT0_, symObjAddr: 0x801C, symBinAddr: 0x10000CDAC, symSize: 0x3C }
  - { offsetInCU: 0x16BC4, offset: 0x24550, size: 0x8, addend: 0x0, symName: __ZNSt3__117__compressed_pairIPiNS_9allocatorIiEEEC2B7v160006IDnS3_EEOT_OT0_, symObjAddr: 0x806C, symBinAddr: 0x10000CDFC, symSize: 0x44 }
  - { offsetInCU: 0x16C1A, offset: 0x245A6, size: 0x8, addend: 0x0, symName: __ZNSt3__122__compressed_pair_elemINS_9allocatorIiEELi1ELb1EEC2B7v160006IS2_vEEOT_, symObjAddr: 0x80B0, symBinAddr: 0x10000CE40, symSize: 0x18 }
  - { offsetInCU: 0x16C5A, offset: 0x245E6, size: 0x8, addend: 0x0, symName: __ZNSt3__117__compressed_pairIPNS_11__hash_nodeINS_17__hash_value_typeINS_12basic_stringIcNS_11char_traitsIcEENS_9allocatorIcEEEENS_6vectorIiNS6_IiEEEEEEPvEENS_22__hash_node_destructorINS6_ISE_EEEEE6secondB7v160006Ev, symObjAddr: 0x80C8, symBinAddr: 0x10000CE58, symSize: 0x28 }
  - { offsetInCU: 0x16C7E, offset: 0x2460A, size: 0x8, addend: 0x0, symName: __ZNSt3__122__compressed_pair_elemINS_22__hash_node_destructorINS_9allocatorINS_11__hash_nodeINS_17__hash_value_typeINS_12basic_stringIcNS_11char_traitsIcEENS2_IcEEEENS_6vectorIiNS2_IiEEEEEEPvEEEEEELi1ELb0EE5__getB7v160006Ev, symObjAddr: 0x80F0, symBinAddr: 0x10000CE80, symSize: 0x14 }
  - { offsetInCU: 0x16CA2, offset: 0x2462E, size: 0x8, addend: 0x0, symName: __ZNSt3__117__compressed_pairImNS_22__unordered_map_hasherINS_12basic_stringIcNS_11char_traitsIcEENS_9allocatorIcEEEENS_17__hash_value_typeIS7_NS_6vectorIiNS5_IiEEEEEENS_4hashIS7_EENS_8equal_toIS7_EELb1EEEE5firstB7v160006Ev, symObjAddr: 0x8104, symBinAddr: 0x10000CE94, symSize: 0x24 }
  - { offsetInCU: 0x16CC6, offset: 0x24652, size: 0x8, addend: 0x0, symName: __ZNSt3__117__compressed_pairIfNS_21__unordered_map_equalINS_12basic_stringIcNS_11char_traitsIcEENS_9allocatorIcEEEENS_17__hash_value_typeIS7_NS_6vectorIiNS5_IiEEEEEENS_8equal_toIS7_EENS_4hashIS7_EELb1EEEE5firstB7v160006Ev, symObjAddr: 0x8128, symBinAddr: 0x10000CEB8, symSize: 0x24 }
  - { offsetInCU: 0x16CEA, offset: 0x24676, size: 0x8, addend: 0x0, symName: __ZNSt3__122__compressed_pair_elemIfLi0ELb0EE5__getB7v160006Ev, symObjAddr: 0x814C, symBinAddr: 0x10000CEDC, symSize: 0x14 }
  - { offsetInCU: 0x16D0E, offset: 0x2469A, size: 0x8, addend: 0x0, symName: __ZNSt3__112__hash_tableINS_17__hash_value_typeINS_12basic_stringIcNS_11char_traitsIcEENS_9allocatorIcEEEENS_6vectorIiNS5_IiEEEEEENS_22__unordered_map_hasherIS7_SB_NS_4hashIS7_EENS_8equal_toIS7_EELb1EEENS_21__unordered_map_equalIS7_SB_SG_SE_Lb1EEENS5_ISB_EEE8__rehashILb1EEEvm, symObjAddr: 0x8160, symBinAddr: 0x10000CEF0, symSize: 0x1A8 }
  - { offsetInCU: 0x16D5D, offset: 0x246E9, size: 0x8, addend: 0x0, symName: __ZNSt3__112__hash_tableINS_17__hash_value_typeINS_12basic_stringIcNS_11char_traitsIcEENS_9allocatorIcEEEENS_6vectorIiNS5_IiEEEEEENS_22__unordered_map_hasherIS7_SB_NS_4hashIS7_EENS_8equal_toIS7_EELb1EEENS_21__unordered_map_equalIS7_SB_SG_SE_Lb1EEENS5_ISB_EEE11__do_rehashILb1EEEvm, symObjAddr: 0x8308, symBinAddr: 0x10000D098, symSize: 0x290 }
  - { offsetInCU: 0x16E49, offset: 0x247D5, size: 0x8, addend: 0x0, symName: __ZNSt3__110unique_ptrIA_PNS_16__hash_node_baseIPNS_11__hash_nodeINS_17__hash_value_typeINS_12basic_stringIcNS_11char_traitsIcEENS_9allocatorIcEEEENS_6vectorIiNS7_IiEEEEEEPvEEEENS_25__bucket_list_deallocatorINS7_ISI_EEEEE11get_deleterB7v160006Ev, symObjAddr: 0x8614, symBinAddr: 0x10000D3A4, symSize: 0x24 }
  - { offsetInCU: 0x16E6D, offset: 0x247F9, size: 0x8, addend: 0x0, symName: __ZNSt3__110unique_ptrIA_PNS_16__hash_node_baseIPNS_11__hash_nodeINS_17__hash_value_typeINS_12basic_stringIcNS_11char_traitsIcEENS_9allocatorIcEEEENS_6vectorIiNS7_IiEEEEEEPvEEEENS_25__bucket_list_deallocatorINS7_ISI_EEEEE5resetB7v160006IPSI_EENS_9enable_ifIXsr28_CheckArrayPointerConversionIT_EE5valueEvE4typeESR_, symObjAddr: 0x8638, symBinAddr: 0x10000D3C8, symSize: 0x78 }
  - { offsetInCU: 0x16EB9, offset: 0x24845, size: 0x8, addend: 0x0, symName: __ZNSt3__116allocator_traitsINS_9allocatorIPNS_16__hash_node_baseIPNS_11__hash_nodeINS_17__hash_value_typeINS_12basic_stringIcNS_11char_traitsIcEENS1_IcEEEENS_6vectorIiNS1_IiEEEEEEPvEEEEEEE8allocateB7v160006ERSJ_m, symObjAddr: 0x86B0, symBinAddr: 0x10000D440, symSize: 0x2C }
  - { offsetInCU: 0x16EEB, offset: 0x24877, size: 0x8, addend: 0x0, symName: __ZNSt3__19allocatorIPNS_16__hash_node_baseIPNS_11__hash_nodeINS_17__hash_value_typeINS_12basic_stringIcNS_11char_traitsIcEENS0_IcEEEENS_6vectorIiNS0_IiEEEEEEPvEEEEE8allocateB7v160006Em, symObjAddr: 0x86DC, symBinAddr: 0x10000D46C, symSize: 0x58 }
  - { offsetInCU: 0x16F27, offset: 0x248B3, size: 0x8, addend: 0x0, symName: __ZNSt3__116allocator_traitsINS_9allocatorIPNS_16__hash_node_baseIPNS_11__hash_nodeINS_17__hash_value_typeINS_12basic_stringIcNS_11char_traitsIcEENS1_IcEEEENS_6vectorIiNS1_IiEEEEEEPvEEEEEEE8max_sizeB7v160006ISJ_vEEmRKSJ_, symObjAddr: 0x8734, symBinAddr: 0x10000D4C4, symSize: 0x24 }
  - { offsetInCU: 0x16F54, offset: 0x248E0, size: 0x8, addend: 0x0, symName: __ZNKSt3__19allocatorIPNS_16__hash_node_baseIPNS_11__hash_nodeINS_17__hash_value_typeINS_12basic_stringIcNS_11char_traitsIcEENS0_IcEEEENS_6vectorIiNS0_IiEEEEEEPvEEEEE8max_sizeB7v160006Ev, symObjAddr: 0x8758, symBinAddr: 0x10000D4E8, symSize: 0x14 }
  - { offsetInCU: 0x16F78, offset: 0x24904, size: 0x8, addend: 0x0, symName: __ZNKSt3__117__compressed_pairIPNS_11__hash_nodeINS_17__hash_value_typeINS_12basic_stringIcNS_11char_traitsIcEENS_9allocatorIcEEEENS_6vectorIiNS6_IiEEEEEEPvEENS_22__hash_node_destructorINS6_ISE_EEEEE5firstB7v160006Ev, symObjAddr: 0x87DC, symBinAddr: 0x10000D56C, symSize: 0x24 }
  - { offsetInCU: 0x16F9C, offset: 0x24928, size: 0x8, addend: 0x0, symName: __ZNKSt3__122__compressed_pair_elemIPNS_11__hash_nodeINS_17__hash_value_typeINS_12basic_stringIcNS_11char_traitsIcEENS_9allocatorIcEEEENS_6vectorIiNS6_IiEEEEEEPvEELi0ELb0EE5__getB7v160006Ev, symObjAddr: 0x8800, symBinAddr: 0x10000D590, symSize: 0x14 }
  - { offsetInCU: 0x16FC0, offset: 0x2494C, size: 0x8, addend: 0x0, symName: __ZNSt3__117__compressed_pairIPNS_11__hash_nodeINS_17__hash_value_typeINS_12basic_stringIcNS_11char_traitsIcEENS_9allocatorIcEEEENS_6vectorIiNS6_IiEEEEEEPvEENS_22__hash_node_destructorINS6_ISE_EEEEE5firstB7v160006Ev, symObjAddr: 0x8814, symBinAddr: 0x10000D5A4, symSize: 0x24 }
  - { offsetInCU: 0x16FE4, offset: 0x24970, size: 0x8, addend: 0x0, symName: __ZNSt3__122__compressed_pair_elemIPNS_11__hash_nodeINS_17__hash_value_typeINS_12basic_stringIcNS_11char_traitsIcEENS_9allocatorIcEEEENS_6vectorIiNS6_IiEEEEEEPvEELi0ELb0EE5__getB7v160006Ev, symObjAddr: 0x8838, symBinAddr: 0x10000D5C8, symSize: 0x14 }
  - { offsetInCU: 0x17008, offset: 0x24994, size: 0x8, addend: 0x0, symName: __ZNSt3__110unique_ptrINS_11__hash_nodeINS_17__hash_value_typeINS_12basic_stringIcNS_11char_traitsIcEENS_9allocatorIcEEEENS_6vectorIiNS6_IiEEEEEEPvEENS_22__hash_node_destructorINS6_ISE_EEEEED2B7v160006Ev, symObjAddr: 0x884C, symBinAddr: 0x10000D5DC, symSize: 0x30 }
  - { offsetInCU: 0x17030, offset: 0x249BC, size: 0x8, addend: 0x0, symName: __ZNSt3__110unique_ptrINS_11__hash_nodeINS_17__hash_value_typeINS_12basic_stringIcNS_11char_traitsIcEENS_9allocatorIcEEEENS_6vectorIiNS6_IiEEEEEEPvEENS_22__hash_node_destructorINS6_ISE_EEEEE5resetB7v160006EPSE_, symObjAddr: 0x887C, symBinAddr: 0x10000D60C, symSize: 0x78 }
  - { offsetInCU: 0x17073, offset: 0x249FF, size: 0x8, addend: 0x0, symName: __ZNSt3__122__hash_node_destructorINS_9allocatorINS_11__hash_nodeINS_17__hash_value_typeINS_12basic_stringIcNS_11char_traitsIcEENS1_IcEEEENS_6vectorIiNS1_IiEEEEEEPvEEEEEclB7v160006EPSE_, symObjAddr: 0x88F4, symBinAddr: 0x10000D684, symSize: 0x94 }
  - { offsetInCU: 0x170A6, offset: 0x24A32, size: 0x8, addend: 0x0, symName: __ZNSt3__115__hash_iteratorIPNS_11__hash_nodeINS_17__hash_value_typeINS_12basic_stringIcNS_11char_traitsIcEENS_9allocatorIcEEEENS_6vectorIiNS6_IiEEEEEEPvEEEC2B7v160006EPNS_16__hash_node_baseISF_EEPKv, symObjAddr: 0x8988, symBinAddr: 0x10000D718, symSize: 0x24 }
  - { offsetInCU: 0x170EC, offset: 0x24A78, size: 0x8, addend: 0x0, symName: __ZNSt3__14pairINS_15__hash_iteratorIPNS_11__hash_nodeINS_17__hash_value_typeINS_12basic_stringIcNS_11char_traitsIcEENS_9allocatorIcEEEENS_6vectorIiNS7_IiEEEEEEPvEEEEbEC2B7v160006ISH_RbLSE_0EEEOT_OT0_, symObjAddr: 0x89AC, symBinAddr: 0x10000D73C, symSize: 0x38 }
  - { offsetInCU: 0x17148, offset: 0x24AD4, size: 0x8, addend: 0x0, symName: __ZNSt3__14pairINS_19__hash_map_iteratorINS_15__hash_iteratorIPNS_11__hash_nodeINS_17__hash_value_typeINS_12basic_stringIcNS_11char_traitsIcEENS_9allocatorIcEEEENS_6vectorIiNS8_IiEEEEEEPvEEEEEEbEC2B7v160006ISI_bLSF_0EEEONS0_IT_T0_EE, symObjAddr: 0x89E4, symBinAddr: 0x10000D774, symSize: 0x50 }
  - { offsetInCU: 0x17197, offset: 0x24B23, size: 0x8, addend: 0x0, symName: __ZNSt3__119__hash_map_iteratorINS_15__hash_iteratorIPNS_11__hash_nodeINS_17__hash_value_typeINS_12basic_stringIcNS_11char_traitsIcEENS_9allocatorIcEEEENS_6vectorIiNS7_IiEEEEEEPvEEEEEC1B7v160006ESH_, symObjAddr: 0x8A34, symBinAddr: 0x10000D7C4, symSize: 0x34 }
  - { offsetInCU: 0x171CE, offset: 0x24B5A, size: 0x8, addend: 0x0, symName: __ZNSt3__119__hash_map_iteratorINS_15__hash_iteratorIPNS_11__hash_nodeINS_17__hash_value_typeINS_12basic_stringIcNS_11char_traitsIcEENS_9allocatorIcEEEENS_6vectorIiNS7_IiEEEEEEPvEEEEEC2B7v160006ESH_, symObjAddr: 0x8A68, symBinAddr: 0x10000D7F8, symSize: 0x20 }
  - { offsetInCU: 0x17205, offset: 0x24B91, size: 0x8, addend: 0x0, symName: __ZNSt3__14pairIKNS_12basic_stringIcNS_11char_traitsIcEENS_9allocatorIcEEEENS_6vectorIiNS4_IiEEEEEC2B7v160006IRS6_SA_LPv0EEEOT_OT0_, symObjAddr: 0x8A88, symBinAddr: 0x10000D818, symSize: 0x48 }
  - { offsetInCU: 0x17261, offset: 0x24BED, size: 0x8, addend: 0x0, symName: __ZNSt3__112__hash_tableINS_17__hash_value_typeINS_12basic_stringIcNS_11char_traitsIcEENS_9allocatorIcEEEENS_6vectorIiNS5_IiEEEEEENS_22__unordered_map_hasherIS7_SB_NS_4hashIS7_EENS_8equal_toIS7_EELb1EEENS_21__unordered_map_equalIS7_SB_SG_SE_Lb1EEENS5_ISB_EEE5beginEv, symObjAddr: 0x8AD0, symBinAddr: 0x10000D860, symSize: 0x40 }
  - { offsetInCU: 0x17287, offset: 0x24C13, size: 0x8, addend: 0x0, symName: __ZNSt3__112__hash_tableINS_17__hash_value_typeINS_12basic_stringIcNS_11char_traitsIcEENS_9allocatorIcEEEENS_6vectorIiNS5_IiEEEEEENS_22__unordered_map_hasherIS7_SB_NS_4hashIS7_EENS_8equal_toIS7_EELb1EEENS_21__unordered_map_equalIS7_SB_SG_SE_Lb1EEENS5_ISB_EEE3endEv, symObjAddr: 0x8B10, symBinAddr: 0x10000D8A0, symSize: 0x30 }
  - { offsetInCU: 0x172AD, offset: 0x24C39, size: 0x8, addend: 0x0, symName: __ZNSt3__115__hash_iteratorIPNS_11__hash_nodeINS_17__hash_value_typeINS_12basic_stringIcNS_11char_traitsIcEENS_9allocatorIcEEEENS_6vectorIiNS6_IiEEEEEEPvEEEppB7v160006Ev, symObjAddr: 0x8BA4, symBinAddr: 0x10000D934, symSize: 0x20 }
  - { offsetInCU: 0x172D1, offset: 0x24C5D, size: 0x8, addend: 0x0, symName: __ZNKSt3__115__hash_iteratorIPNS_11__hash_nodeINS_17__hash_value_typeINS_12basic_stringIcNS_11char_traitsIcEENS_9allocatorIcEEEENS_6vectorIiNS6_IiEEEEEEPvEEEptB7v160006Ev, symObjAddr: 0x8BC4, symBinAddr: 0x10000D954, symSize: 0x30 }
  - { offsetInCU: 0x172F5, offset: 0x24C81, size: 0x8, addend: 0x0, symName: __ZNSt3__114pointer_traitsIPNS_17__hash_value_typeINS_12basic_stringIcNS_11char_traitsIcEENS_9allocatorIcEEEENS_6vectorIiNS5_IiEEEEEEE10pointer_toB7v160006ERSB_, symObjAddr: 0x8BF4, symBinAddr: 0x10000D984, symSize: 0x14 }
  - { offsetInCU: 0x17317, offset: 0x24CA3, size: 0x8, addend: 0x0, symName: __ZNKSt3__112__hash_tableINS_17__hash_value_typeINS_12basic_stringIcNS_11char_traitsIcEENS_9allocatorIcEEEENS_6vectorIiNS5_IiEEEEEENS_22__unordered_map_hasherIS7_SB_NS_4hashIS7_EENS_8equal_toIS7_EELb1EEENS_21__unordered_map_equalIS7_SB_SG_SE_Lb1EEENS5_ISB_EEE14__count_uniqueIS7_EEmRKT_, symObjAddr: 0x8C08, symBinAddr: 0x10000D998, symSize: 0x64 }
  - { offsetInCU: 0x17355, offset: 0x24CE1, size: 0x8, addend: 0x0, symName: __ZNKSt3__112__hash_tableINS_17__hash_value_typeINS_12basic_stringIcNS_11char_traitsIcEENS_9allocatorIcEEEENS_6vectorIiNS5_IiEEEEEENS_22__unordered_map_hasherIS7_SB_NS_4hashIS7_EENS_8equal_toIS7_EELb1EEENS_21__unordered_map_equalIS7_SB_SG_SE_Lb1EEENS5_ISB_EEE4findIS7_EENS_21__hash_const_iteratorIPNS_11__hash_nodeISB_PvEEEERKT_, symObjAddr: 0x8CA0, symBinAddr: 0x10000DA30, symSize: 0x1BC }
  - { offsetInCU: 0x173E2, offset: 0x24D6E, size: 0x8, addend: 0x0, symName: __ZNKSt3__112__hash_tableINS_17__hash_value_typeINS_12basic_stringIcNS_11char_traitsIcEENS_9allocatorIcEEEENS_6vectorIiNS5_IiEEEEEENS_22__unordered_map_hasherIS7_SB_NS_4hashIS7_EENS_8equal_toIS7_EELb1EEENS_21__unordered_map_equalIS7_SB_SG_SE_Lb1EEENS5_ISB_EEE3endEv, symObjAddr: 0x8E5C, symBinAddr: 0x10000DBEC, symSize: 0x30 }
  - { offsetInCU: 0x17408, offset: 0x24D94, size: 0x8, addend: 0x0, symName: __ZNKSt3__112__hash_tableINS_17__hash_value_typeINS_12basic_stringIcNS_11char_traitsIcEENS_9allocatorIcEEEENS_6vectorIiNS5_IiEEEEEENS_22__unordered_map_hasherIS7_SB_NS_4hashIS7_EENS_8equal_toIS7_EELb1EEENS_21__unordered_map_equalIS7_SB_SG_SE_Lb1EEENS5_ISB_EEE13hash_functionB7v160006Ev, symObjAddr: 0x8EBC, symBinAddr: 0x10000DC4C, symSize: 0x28 }
  - { offsetInCU: 0x1742C, offset: 0x24DB8, size: 0x8, addend: 0x0, symName: __ZNKSt3__112__hash_tableINS_17__hash_value_typeINS_12basic_stringIcNS_11char_traitsIcEENS_9allocatorIcEEEENS_6vectorIiNS5_IiEEEEEENS_22__unordered_map_hasherIS7_SB_NS_4hashIS7_EENS_8equal_toIS7_EELb1EEENS_21__unordered_map_equalIS7_SB_SG_SE_Lb1EEENS5_ISB_EEE6key_eqB7v160006Ev, symObjAddr: 0x8EE4, symBinAddr: 0x10000DC74, symSize: 0x28 }
  - { offsetInCU: 0x17450, offset: 0x24DDC, size: 0x8, addend: 0x0, symName: __ZNSt3__121__hash_const_iteratorIPNS_11__hash_nodeINS_17__hash_value_typeINS_12basic_stringIcNS_11char_traitsIcEENS_9allocatorIcEEEENS_6vectorIiNS6_IiEEEEEEPvEEEC1B7v160006EPNS_16__hash_node_baseISF_EEPKv, symObjAddr: 0x8F0C, symBinAddr: 0x10000DC9C, symSize: 0x3C }
  - { offsetInCU: 0x17496, offset: 0x24E22, size: 0x8, addend: 0x0, symName: __ZNKSt3__117__compressed_pairImNS_22__unordered_map_hasherINS_12basic_stringIcNS_11char_traitsIcEENS_9allocatorIcEEEENS_17__hash_value_typeIS7_NS_6vectorIiNS5_IiEEEEEENS_4hashIS7_EENS_8equal_toIS7_EELb1EEEE6secondB7v160006Ev, symObjAddr: 0x8F48, symBinAddr: 0x10000DCD8, symSize: 0x24 }
  - { offsetInCU: 0x174BA, offset: 0x24E46, size: 0x8, addend: 0x0, symName: __ZNKSt3__122__compressed_pair_elemINS_22__unordered_map_hasherINS_12basic_stringIcNS_11char_traitsIcEENS_9allocatorIcEEEENS_17__hash_value_typeIS7_NS_6vectorIiNS5_IiEEEEEENS_4hashIS7_EENS_8equal_toIS7_EELb1EEELi1ELb1EE5__getB7v160006Ev, symObjAddr: 0x8F6C, symBinAddr: 0x10000DCFC, symSize: 0x14 }
  - { offsetInCU: 0x174DE, offset: 0x24E6A, size: 0x8, addend: 0x0, symName: __ZNKSt3__117__compressed_pairIfNS_21__unordered_map_equalINS_12basic_stringIcNS_11char_traitsIcEENS_9allocatorIcEEEENS_17__hash_value_typeIS7_NS_6vectorIiNS5_IiEEEEEENS_8equal_toIS7_EENS_4hashIS7_EELb1EEEE6secondB7v160006Ev, symObjAddr: 0x8F80, symBinAddr: 0x10000DD10, symSize: 0x24 }
  - { offsetInCU: 0x17502, offset: 0x24E8E, size: 0x8, addend: 0x0, symName: __ZNKSt3__122__compressed_pair_elemINS_21__unordered_map_equalINS_12basic_stringIcNS_11char_traitsIcEENS_9allocatorIcEEEENS_17__hash_value_typeIS7_NS_6vectorIiNS5_IiEEEEEENS_8equal_toIS7_EENS_4hashIS7_EELb1EEELi1ELb1EE5__getB7v160006Ev, symObjAddr: 0x8FA4, symBinAddr: 0x10000DD34, symSize: 0x14 }
  - { offsetInCU: 0x17526, offset: 0x24EB2, size: 0x8, addend: 0x0, symName: __ZNSt3__121__hash_const_iteratorIPNS_11__hash_nodeINS_17__hash_value_typeINS_12basic_stringIcNS_11char_traitsIcEENS_9allocatorIcEEEENS_6vectorIiNS6_IiEEEEEEPvEEEC2B7v160006EPNS_16__hash_node_baseISF_EEPKv, symObjAddr: 0x8FB8, symBinAddr: 0x10000DD48, symSize: 0x24 }
  - { offsetInCU: 0x17580, offset: 0x24F0C, size: 0x8, addend: 0x0, symName: __ZNSt3__112__hash_tableINS_17__hash_value_typeINS_12basic_stringIcNS_11char_traitsIcEENS_9allocatorIcEEEENS_6vectorIiNS5_IiEEEEEENS_22__unordered_map_hasherIS7_SB_NS_4hashIS7_EENS_8equal_toIS7_EELb1EEENS_21__unordered_map_equalIS7_SB_SG_SE_Lb1EEENS5_ISB_EEE25__emplace_unique_key_argsIS7_JRKNS_21piecewise_construct_tENS_5tupleIJRKS7_EEENSQ_IJEEEEEENS_4pairINS_15__hash_iteratorIPNS_11__hash_nodeISB_PvEEEEbEERKT_DpOT0_, symObjAddr: 0x8FDC, symBinAddr: 0x10000DD6C, symSize: 0x498 }
  - { offsetInCU: 0x17690, offset: 0x2501C, size: 0x8, addend: 0x0, symName: __ZNSt3__112__hash_tableINS_17__hash_value_typeINS_12basic_stringIcNS_11char_traitsIcEENS_9allocatorIcEEEENS_6vectorIiNS5_IiEEEEEENS_22__unordered_map_hasherIS7_SB_NS_4hashIS7_EENS_8equal_toIS7_EELb1EEENS_21__unordered_map_equalIS7_SB_SG_SE_Lb1EEENS5_ISB_EEE21__construct_node_hashIRKNS_21piecewise_construct_tEJNS_5tupleIJRKS7_EEENSQ_IJEEEEEENS_10unique_ptrINS_11__hash_nodeISB_PvEENS_22__hash_node_destructorINS5_ISY_EEEEEEmOT_DpOT0_, symObjAddr: 0x94A4, symBinAddr: 0x10000E234, symSize: 0x150 }
  - { offsetInCU: 0x1772C, offset: 0x250B8, size: 0x8, addend: 0x0, symName: __ZNSt3__116allocator_traitsINS_9allocatorINS_11__hash_nodeINS_17__hash_value_typeINS_12basic_stringIcNS_11char_traitsIcEENS1_IcEEEENS_6vectorIiNS1_IiEEEEEEPvEEEEE9constructB7v160006INS_4pairIKS8_SB_EEJRKNS_21piecewise_construct_tENS_5tupleIJRSJ_EEENSO_IJEEEEvEEvRSF_PT_DpOT0_, symObjAddr: 0x95F4, symBinAddr: 0x10000E384, symSize: 0x44 }
  - { offsetInCU: 0x177AA, offset: 0x25136, size: 0x8, addend: 0x0, symName: __ZNSt3__19allocatorINS_11__hash_nodeINS_17__hash_value_typeINS_12basic_stringIcNS_11char_traitsIcEENS0_IcEEEENS_6vectorIiNS0_IiEEEEEEPvEEE9constructB7v160006INS_4pairIKS7_SA_EEJRKNS_21piecewise_construct_tENS_5tupleIJRSH_EEENSM_IJEEEEEEvPT_DpOT0_, symObjAddr: 0x9638, symBinAddr: 0x10000E3C8, symSize: 0x44 }
  - { offsetInCU: 0x17824, offset: 0x251B0, size: 0x8, addend: 0x0, symName: __ZNSt3__14pairIKNS_12basic_stringIcNS_11char_traitsIcEENS_9allocatorIcEEEENS_6vectorIiNS4_IiEEEEEC1B7v160006IJRS7_EJEEENS_21piecewise_construct_tENS_5tupleIJDpT_EEENSF_IJDpT0_EEE, symObjAddr: 0x967C, symBinAddr: 0x10000E40C, symSize: 0x3C }
  - { offsetInCU: 0x17889, offset: 0x25215, size: 0x8, addend: 0x0, symName: __ZNSt3__14pairIKNS_12basic_stringIcNS_11char_traitsIcEENS_9allocatorIcEEEENS_6vectorIiNS4_IiEEEEEC1B7v160006IJRS7_EJEJLm0EEJEEENS_21piecewise_construct_tERNS_5tupleIJDpT_EEERNSF_IJDpT0_EEENS_15__tuple_indicesIJXspT1_EEEENSO_IJXspT2_EEEE, symObjAddr: 0x96B8, symBinAddr: 0x10000E448, symSize: 0x3C }
  - { offsetInCU: 0x17915, offset: 0x252A1, size: 0x8, addend: 0x0, symName: __ZNSt3__14pairIKNS_12basic_stringIcNS_11char_traitsIcEENS_9allocatorIcEEEENS_6vectorIiNS4_IiEEEEEC2B7v160006IJRS7_EJEJLm0EEJEEENS_21piecewise_construct_tERNS_5tupleIJDpT_EEERNSF_IJDpT0_EEENS_15__tuple_indicesIJXspT1_EEEENSO_IJXspT2_EEEE, symObjAddr: 0x96F4, symBinAddr: 0x10000E484, symSize: 0x50 }
  - { offsetInCU: 0x179A1, offset: 0x2532D, size: 0x8, addend: 0x0, symName: __ZNSt3__16vectorIiNS_9allocatorIiEEEC1B7v160006Ev, symObjAddr: 0x9768, symBinAddr: 0x10000E4F8, symSize: 0x2C }
  - { offsetInCU: 0x179C9, offset: 0x25355, size: 0x8, addend: 0x0, symName: __ZNSt3__112__tuple_leafILm0ERKNS_12basic_stringIcNS_11char_traitsIcEENS_9allocatorIcEEEELb0EE3getB7v160006Ev, symObjAddr: 0x9794, symBinAddr: 0x10000E524, symSize: 0x18 }
  - { offsetInCU: 0x179ED, offset: 0x25379, size: 0x8, addend: 0x0, symName: __ZNSt3__16vectorIiNS_9allocatorIiEEEC2B7v160006Ev, symObjAddr: 0x97AC, symBinAddr: 0x10000E53C, symSize: 0x54 }
  - { offsetInCU: 0x17A15, offset: 0x253A1, size: 0x8, addend: 0x0, symName: __ZNSt3__15tupleIJRKNS_12basic_stringIcNS_11char_traitsIcEENS_9allocatorIcEEEEEEC1B7v160006INS_4_AndELi0EEES8_, symObjAddr: 0x9800, symBinAddr: 0x10000E590, symSize: 0x34 }
  - { offsetInCU: 0x17A5D, offset: 0x253E9, size: 0x8, addend: 0x0, symName: __ZNSt3__15tupleIJRKNS_12basic_stringIcNS_11char_traitsIcEENS_9allocatorIcEEEEEEC2B7v160006INS_4_AndELi0EEES8_, symObjAddr: 0x9834, symBinAddr: 0x10000E5C4, symSize: 0x34 }
  - { offsetInCU: 0x17AA5, offset: 0x25431, size: 0x8, addend: 0x0, symName: __ZNSt3__112__tuple_implINS_15__tuple_indicesIJLm0EEEEJRKNS_12basic_stringIcNS_11char_traitsIcEENS_9allocatorIcEEEEEEC1B7v160006IJLm0EEJSA_EJEJEJSA_EEENS1_IJXspT_EEEENS_13__tuple_typesIJDpT0_EEENS1_IJXspT1_EEEENSE_IJDpT2_EEEDpOT3_, symObjAddr: 0x9868, symBinAddr: 0x10000E5F8, symSize: 0x34 }
  - { offsetInCU: 0x17B34, offset: 0x254C0, size: 0x8, addend: 0x0, symName: __ZNSt3__112__tuple_implINS_15__tuple_indicesIJLm0EEEEJRKNS_12basic_stringIcNS_11char_traitsIcEENS_9allocatorIcEEEEEEC2B7v160006IJLm0EEJSA_EJEJEJSA_EEENS1_IJXspT_EEEENS_13__tuple_typesIJDpT0_EEENS1_IJXspT1_EEEENSE_IJDpT2_EEEDpOT3_, symObjAddr: 0x989C, symBinAddr: 0x10000E62C, symSize: 0x34 }
  - { offsetInCU: 0x17BC3, offset: 0x2554F, size: 0x8, addend: 0x0, symName: __ZNSt3__112__tuple_leafILm0ERKNS_12basic_stringIcNS_11char_traitsIcEENS_9allocatorIcEEEELb0EEC2B7v160006IS8_vEEOT_, symObjAddr: 0x98D0, symBinAddr: 0x10000E660, symSize: 0x20 }
  - { offsetInCU: 0x17C04, offset: 0x25590, size: 0x8, addend: 0x0, symName: __ZNSt3__16vectorIiNS_9allocatorIiEEEC2ERKS3_, symObjAddr: 0x98F0, symBinAddr: 0x10000E680, symSize: 0x110 }
  - { offsetInCU: 0x17C65, offset: 0x255F1, size: 0x8, addend: 0x0, symName: __ZNSt3__116allocator_traitsINS_9allocatorIiEEE37select_on_container_copy_constructionB7v160006IS2_vvEES2_RKS2_, symObjAddr: 0x9A00, symBinAddr: 0x10000E790, symSize: 0x10 }
  - { offsetInCU: 0x17C93, offset: 0x2561F, size: 0x8, addend: 0x0, symName: __ZNSt3__16vectorIiNS_9allocatorIiEEE18__construct_at_endIPiLi0EEEvT_S6_m, symObjAddr: 0x9A10, symBinAddr: 0x10000E7A0, symSize: 0x8C }
  - { offsetInCU: 0x17D06, offset: 0x25692, size: 0x8, addend: 0x0, symName: __ZNSt3__129_AllocatorDestroyRangeReverseINS_9allocatorIiEEPiEC1B7v160006ERS2_RS3_S6_, symObjAddr: 0x9BDC, symBinAddr: 0x10000E96C, symSize: 0x44 }
  - { offsetInCU: 0x17D5B, offset: 0x256E7, size: 0x8, addend: 0x0, symName: __ZNSt3__116allocator_traitsINS_9allocatorIiEEE9constructB7v160006IiJRiEvEEvRS2_PT_DpOT0_, symObjAddr: 0x9C20, symBinAddr: 0x10000E9B0, symSize: 0x34 }
  - { offsetInCU: 0x17DB1, offset: 0x2573D, size: 0x8, addend: 0x0, symName: __ZNSt3__128__exception_guard_exceptionsINS_29_AllocatorDestroyRangeReverseINS_9allocatorIiEEPiEEE10__completeB7v160006Ev, symObjAddr: 0x9C54, symBinAddr: 0x10000E9E4, symSize: 0x1C }
  - { offsetInCU: 0x17DD5, offset: 0x25761, size: 0x8, addend: 0x0, symName: __ZNSt3__128__exception_guard_exceptionsINS_29_AllocatorDestroyRangeReverseINS_9allocatorIiEEPiEEED1B7v160006Ev, symObjAddr: 0x9C70, symBinAddr: 0x10000EA00, symSize: 0x2C }
  - { offsetInCU: 0x17DFD, offset: 0x25789, size: 0x8, addend: 0x0, symName: __ZNSt3__128__exception_guard_exceptionsINS_29_AllocatorDestroyRangeReverseINS_9allocatorIiEEPiEEEC1B7v160006ES5_, symObjAddr: 0x9C9C, symBinAddr: 0x10000EA2C, symSize: 0x34 }
  - { offsetInCU: 0x17E34, offset: 0x257C0, size: 0x8, addend: 0x0, symName: __ZNSt3__128__exception_guard_exceptionsINS_29_AllocatorDestroyRangeReverseINS_9allocatorIiEEPiEEEC2B7v160006ES5_, symObjAddr: 0x9CD0, symBinAddr: 0x10000EA60, symSize: 0x30 }
  - { offsetInCU: 0x17E6B, offset: 0x257F7, size: 0x8, addend: 0x0, symName: __ZNSt3__129_AllocatorDestroyRangeReverseINS_9allocatorIiEEPiEC2B7v160006ERS2_RS3_S6_, symObjAddr: 0x9D00, symBinAddr: 0x10000EA90, symSize: 0x38 }
  - { offsetInCU: 0x17EC0, offset: 0x2584C, size: 0x8, addend: 0x0, symName: __ZNSt3__19allocatorIiE9constructB7v160006IiJRiEEEvPT_DpOT0_, symObjAddr: 0x9D38, symBinAddr: 0x10000EAC8, symSize: 0x28 }
  - { offsetInCU: 0x17F14, offset: 0x258A0, size: 0x8, addend: 0x0, symName: __ZNSt3__128__exception_guard_exceptionsINS_29_AllocatorDestroyRangeReverseINS_9allocatorIiEEPiEEED2B7v160006Ev, symObjAddr: 0x9D60, symBinAddr: 0x10000EAF0, symSize: 0x50 }
  - { offsetInCU: 0x17F3C, offset: 0x258C8, size: 0x8, addend: 0x0, symName: __ZNKSt3__129_AllocatorDestroyRangeReverseINS_9allocatorIiEEPiEclB7v160006Ev, symObjAddr: 0x9DB0, symBinAddr: 0x10000EB40, symSize: 0x68 }
  - { offsetInCU: 0x17F60, offset: 0x258EC, size: 0x8, addend: 0x0, symName: __ZNSt3__116reverse_iteratorIPiEC1B7v160006ES1_, symObjAddr: 0x9E88, symBinAddr: 0x10000EC18, symSize: 0x34 }
  - { offsetInCU: 0x17F96, offset: 0x25922, size: 0x8, addend: 0x0, symName: __ZNSt3__116reverse_iteratorIPiEppB7v160006Ev, symObjAddr: 0x9F28, symBinAddr: 0x10000ECB8, symSize: 0x20 }
  - { offsetInCU: 0x17FBA, offset: 0x25946, size: 0x8, addend: 0x0, symName: __ZNKSt3__116reverse_iteratorIPiE4baseB7v160006Ev, symObjAddr: 0x9F48, symBinAddr: 0x10000ECD8, symSize: 0x18 }
  - { offsetInCU: 0x17FE3, offset: 0x2596F, size: 0x8, addend: 0x0, symName: __ZNSt3__119__to_address_helperINS_16reverse_iteratorIPiEEvE6__callB7v160006ERKS3_, symObjAddr: 0x9F60, symBinAddr: 0x10000ECF0, symSize: 0x38 }
  - { offsetInCU: 0x18005, offset: 0x25991, size: 0x8, addend: 0x0, symName: __ZNKSt3__116reverse_iteratorIPiEptB7v160006Ev, symObjAddr: 0x9F98, symBinAddr: 0x10000ED28, symSize: 0x24 }
  - { offsetInCU: 0x18029, offset: 0x259B5, size: 0x8, addend: 0x0, symName: __ZNKSt3__116reverse_iteratorIPiEdeB7v160006Ev, symObjAddr: 0x9FBC, symBinAddr: 0x10000ED4C, symSize: 0x28 }
  - { offsetInCU: 0x1805B, offset: 0x259E7, size: 0x8, addend: 0x0, symName: __ZNSt3__116reverse_iteratorIPiEC2B7v160006ES1_, symObjAddr: 0x9FE4, symBinAddr: 0x10000ED74, symSize: 0x28 }
  - { offsetInCU: 0x18091, offset: 0x25A1D, size: 0x8, addend: 0x0, symName: __ZNSt3__112__hash_tableINS_17__hash_value_typeINS_12basic_stringIcNS_11char_traitsIcEENS_9allocatorIcEEEENS_6vectorIiNS5_IiEEEEEENS_22__unordered_map_hasherIS7_SB_NS_4hashIS7_EENS_8equal_toIS7_EELb1EEENS_21__unordered_map_equalIS7_SB_SG_SE_Lb1EEENS5_ISB_EEE14__erase_uniqueIS7_EEmRKT_, symObjAddr: 0xA00C, symBinAddr: 0x10000ED9C, symSize: 0x98 }
  - { offsetInCU: 0x180DF, offset: 0x25A6B, size: 0x8, addend: 0x0, symName: __ZNSt3__112__hash_tableINS_17__hash_value_typeINS_12basic_stringIcNS_11char_traitsIcEENS_9allocatorIcEEEENS_6vectorIiNS5_IiEEEEEENS_22__unordered_map_hasherIS7_SB_NS_4hashIS7_EENS_8equal_toIS7_EELb1EEENS_21__unordered_map_equalIS7_SB_SG_SE_Lb1EEENS5_ISB_EEE4findIS7_EENS_15__hash_iteratorIPNS_11__hash_nodeISB_PvEEEERKT_, symObjAddr: 0xA0A4, symBinAddr: 0x10000EE34, symSize: 0x1B4 }
  - { offsetInCU: 0x1816C, offset: 0x25AF8, size: 0x8, addend: 0x0, symName: __ZNSt3__112__hash_tableINS_17__hash_value_typeINS_12basic_stringIcNS_11char_traitsIcEENS_9allocatorIcEEEENS_6vectorIiNS5_IiEEEEEENS_22__unordered_map_hasherIS7_SB_NS_4hashIS7_EENS_8equal_toIS7_EELb1EEENS_21__unordered_map_equalIS7_SB_SG_SE_Lb1EEENS5_ISB_EEE5eraseENS_21__hash_const_iteratorIPNS_11__hash_nodeISB_PvEEEE, symObjAddr: 0xA258, symBinAddr: 0x10000EFE8, symSize: 0x70 }
  - { offsetInCU: 0x181C1, offset: 0x25B4D, size: 0x8, addend: 0x0, symName: __ZNSt3__121__hash_const_iteratorIPNS_11__hash_nodeINS_17__hash_value_typeINS_12basic_stringIcNS_11char_traitsIcEENS_9allocatorIcEEEENS_6vectorIiNS6_IiEEEEEEPvEEEC1B7v160006ERKNS_15__hash_iteratorISF_EE, symObjAddr: 0xA2C8, symBinAddr: 0x10000F058, symSize: 0x34 }
  - { offsetInCU: 0x181F8, offset: 0x25B84, size: 0x8, addend: 0x0, symName: __ZNSt3__112__hash_tableINS_17__hash_value_typeINS_12basic_stringIcNS_11char_traitsIcEENS_9allocatorIcEEEENS_6vectorIiNS5_IiEEEEEENS_22__unordered_map_hasherIS7_SB_NS_4hashIS7_EENS_8equal_toIS7_EELb1EEENS_21__unordered_map_equalIS7_SB_SG_SE_Lb1EEENS5_ISB_EEE6removeENS_21__hash_const_iteratorIPNS_11__hash_nodeISB_PvEEEE, symObjAddr: 0xA2FC, symBinAddr: 0x10000F08C, symSize: 0x220 }
  - { offsetInCU: 0x1828D, offset: 0x25C19, size: 0x8, addend: 0x0, symName: __ZNSt3__121__hash_const_iteratorIPNS_11__hash_nodeINS_17__hash_value_typeINS_12basic_stringIcNS_11char_traitsIcEENS_9allocatorIcEEEENS_6vectorIiNS6_IiEEEEEEPvEEEC2B7v160006ERKNS_15__hash_iteratorISF_EE, symObjAddr: 0xA51C, symBinAddr: 0x10000F2AC, symSize: 0x24 }
  - { offsetInCU: 0x182C4, offset: 0x25C50, size: 0x8, addend: 0x0, symName: __ZNSt3__16vectorIP6SectorNS_9allocatorIS2_EEEC2B7v160006Ev, symObjAddr: 0xA540, symBinAddr: 0x10000F2D0, symSize: 0x58 }
  - { offsetInCU: 0x182EC, offset: 0x25C78, size: 0x8, addend: 0x0, symName: __ZNSt3__117__compressed_pairIPP6SectorNS_9allocatorIS2_EEEC1B7v160006IDnNS_18__default_init_tagEEEOT_OT0_, symObjAddr: 0xA598, symBinAddr: 0x10000F328, symSize: 0x3C }
  - { offsetInCU: 0x18342, offset: 0x25CCE, size: 0x8, addend: 0x0, symName: __ZNSt3__117__compressed_pairIPP6SectorNS_9allocatorIS2_EEEC2B7v160006IDnNS_18__default_init_tagEEEOT_OT0_, symObjAddr: 0xA5E4, symBinAddr: 0x10000F374, symSize: 0x40 }
  - { offsetInCU: 0x18398, offset: 0x25D24, size: 0x8, addend: 0x0, symName: __ZNSt3__122__compressed_pair_elemIPP6SectorLi0ELb0EEC2B7v160006IDnvEEOT_, symObjAddr: 0xA624, symBinAddr: 0x10000F3B4, symSize: 0x1C }
  - { offsetInCU: 0x183D8, offset: 0x25D64, size: 0x8, addend: 0x0, symName: __ZNSt3__122__compressed_pair_elemINS_9allocatorIP6SectorEELi1ELb1EEC2B7v160006ENS_18__default_init_tagE, symObjAddr: 0xA640, symBinAddr: 0x10000F3D0, symSize: 0x2C }
  - { offsetInCU: 0x1840A, offset: 0x25D96, size: 0x8, addend: 0x0, symName: __ZNSt3__19allocatorIP6SectorEC2B7v160006Ev, symObjAddr: 0xA66C, symBinAddr: 0x10000F3FC, symSize: 0x2C }
  - { offsetInCU: 0x18432, offset: 0x25DBE, size: 0x8, addend: 0x0, symName: __ZNSt3__116__non_trivial_ifILb1ENS_9allocatorIP6SectorEEEC2B7v160006Ev, symObjAddr: 0xA698, symBinAddr: 0x10000F428, symSize: 0x14 }
  - { offsetInCU: 0x1845A, offset: 0x25DE6, size: 0x8, addend: 0x0, symName: __ZNSt3__16vectorIP6SectorNS_9allocatorIS2_EEED2B7v160006Ev, symObjAddr: 0xA6AC, symBinAddr: 0x10000F43C, symSize: 0x44 }
  - { offsetInCU: 0x18482, offset: 0x25E0E, size: 0x8, addend: 0x0, symName: __ZNSt3__16vectorIP6SectorNS_9allocatorIS2_EEE16__destroy_vectorC1ERS5_, symObjAddr: 0xA6F0, symBinAddr: 0x10000F480, symSize: 0x34 }
  - { offsetInCU: 0x184B9, offset: 0x25E45, size: 0x8, addend: 0x0, symName: __ZNSt3__16vectorIP6SectorNS_9allocatorIS2_EEE16__destroy_vectorclB7v160006Ev, symObjAddr: 0xA724, symBinAddr: 0x10000F4B4, symSize: 0x9C }
  - { offsetInCU: 0x184DD, offset: 0x25E69, size: 0x8, addend: 0x0, symName: __ZNSt3__16vectorIP6SectorNS_9allocatorIS2_EEE16__destroy_vectorC2ERS5_, symObjAddr: 0xA7C0, symBinAddr: 0x10000F550, symSize: 0x20 }
  - { offsetInCU: 0x18514, offset: 0x25EA0, size: 0x8, addend: 0x0, symName: __ZNKSt3__16vectorIP6SectorNS_9allocatorIS2_EEE17__annotate_deleteB7v160006Ev, symObjAddr: 0xA7E0, symBinAddr: 0x10000F570, symSize: 0xB8 }
  - { offsetInCU: 0x18538, offset: 0x25EC4, size: 0x8, addend: 0x0, symName: __ZNSt3__16vectorIP6SectorNS_9allocatorIS2_EEE7__clearB7v160006Ev, symObjAddr: 0xA8A8, symBinAddr: 0x10000F638, symSize: 0x28 }
  - { offsetInCU: 0x1855C, offset: 0x25EE8, size: 0x8, addend: 0x0, symName: __ZNSt3__116allocator_traitsINS_9allocatorIP6SectorEEE10deallocateB7v160006ERS4_PS3_m, symObjAddr: 0xA8D0, symBinAddr: 0x10000F660, symSize: 0x34 }
  - { offsetInCU: 0x1859D, offset: 0x25F29, size: 0x8, addend: 0x0, symName: __ZNSt3__16vectorIP6SectorNS_9allocatorIS2_EEE7__allocB7v160006Ev, symObjAddr: 0xA904, symBinAddr: 0x10000F694, symSize: 0x28 }
  - { offsetInCU: 0x185C1, offset: 0x25F4D, size: 0x8, addend: 0x0, symName: __ZNKSt3__16vectorIP6SectorNS_9allocatorIS2_EEE8capacityB7v160006Ev, symObjAddr: 0xA92C, symBinAddr: 0x10000F6BC, symSize: 0x40 }
  - { offsetInCU: 0x185E5, offset: 0x25F71, size: 0x8, addend: 0x0, symName: __ZNKSt3__16vectorIP6SectorNS_9allocatorIS2_EEE31__annotate_contiguous_containerB7v160006EPKvS7_S7_S7_, symObjAddr: 0xA96C, symBinAddr: 0x10000F6FC, symSize: 0x20 }
  - { offsetInCU: 0x18635, offset: 0x25FC1, size: 0x8, addend: 0x0, symName: __ZNKSt3__16vectorIP6SectorNS_9allocatorIS2_EEE4dataB7v160006Ev, symObjAddr: 0xA98C, symBinAddr: 0x10000F71C, symSize: 0x28 }
  - { offsetInCU: 0x18659, offset: 0x25FE5, size: 0x8, addend: 0x0, symName: __ZNSt3__16vectorIP6SectorNS_9allocatorIS2_EEE22__base_destruct_at_endB7v160006EPS2_, symObjAddr: 0xA9C8, symBinAddr: 0x10000F758, symSize: 0x8C }
  - { offsetInCU: 0x1869C, offset: 0x26028, size: 0x8, addend: 0x0, symName: __ZNSt3__116allocator_traitsINS_9allocatorIP6SectorEEE7destroyB7v160006IS3_vEEvRS4_PT_, symObjAddr: 0xAA54, symBinAddr: 0x10000F7E4, symSize: 0x2C }
  - { offsetInCU: 0x186D8, offset: 0x26064, size: 0x8, addend: 0x0, symName: __ZNSt3__19allocatorIP6SectorE7destroyB7v160006EPS2_, symObjAddr: 0xAA80, symBinAddr: 0x10000F810, symSize: 0x14 }
  - { offsetInCU: 0x1870A, offset: 0x26096, size: 0x8, addend: 0x0, symName: __ZNSt3__19allocatorIP6SectorE10deallocateB7v160006EPS2_m, symObjAddr: 0xAA94, symBinAddr: 0x10000F824, symSize: 0x40 }
  - { offsetInCU: 0x1874A, offset: 0x260D6, size: 0x8, addend: 0x0, symName: __ZNSt3__117__compressed_pairIPP6SectorNS_9allocatorIS2_EEE6secondB7v160006Ev, symObjAddr: 0xAAD4, symBinAddr: 0x10000F864, symSize: 0x24 }
  - { offsetInCU: 0x1876E, offset: 0x260FA, size: 0x8, addend: 0x0, symName: __ZNSt3__122__compressed_pair_elemINS_9allocatorIP6SectorEELi1ELb1EE5__getB7v160006Ev, symObjAddr: 0xAAF8, symBinAddr: 0x10000F888, symSize: 0x14 }
  - { offsetInCU: 0x18792, offset: 0x2611E, size: 0x8, addend: 0x0, symName: __ZNKSt3__16vectorIP6SectorNS_9allocatorIS2_EEE9__end_capB7v160006Ev, symObjAddr: 0xAB0C, symBinAddr: 0x10000F89C, symSize: 0x28 }
  - { offsetInCU: 0x187B6, offset: 0x26142, size: 0x8, addend: 0x0, symName: __ZNKSt3__117__compressed_pairIPP6SectorNS_9allocatorIS2_EEE5firstB7v160006Ev, symObjAddr: 0xAB34, symBinAddr: 0x10000F8C4, symSize: 0x24 }
  - { offsetInCU: 0x187DA, offset: 0x26166, size: 0x8, addend: 0x0, symName: __ZNKSt3__122__compressed_pair_elemIPP6SectorLi0ELb0EE5__getB7v160006Ev, symObjAddr: 0xAB58, symBinAddr: 0x10000F8E8, symSize: 0x14 }
  - { offsetInCU: 0x187FE, offset: 0x2618A, size: 0x8, addend: 0x0, symName: __ZNSt3__16vectorIP6SectorNS_9allocatorIS2_EEE9__end_capB7v160006Ev, symObjAddr: 0xAB6C, symBinAddr: 0x10000F8FC, symSize: 0x28 }
  - { offsetInCU: 0x18822, offset: 0x261AE, size: 0x8, addend: 0x0, symName: __ZNSt3__16vectorIP6SectorNS_9allocatorIS2_EEE22__construct_one_at_endB7v160006IJRKS2_EEEvDpOT_, symObjAddr: 0xAB94, symBinAddr: 0x10000F924, symSize: 0x90 }
  - { offsetInCU: 0x18870, offset: 0x261FC, size: 0x8, addend: 0x0, symName: __ZNSt3__16vectorIP6SectorNS_9allocatorIS2_EEE21__push_back_slow_pathIRKS2_EEvOT_, symObjAddr: 0xAC24, symBinAddr: 0x10000F9B4, symSize: 0xD8 }
  - { offsetInCU: 0x188CE, offset: 0x2625A, size: 0x8, addend: 0x0, symName: __ZNSt3__117__compressed_pairIPP6SectorNS_9allocatorIS2_EEE5firstB7v160006Ev, symObjAddr: 0xACFC, symBinAddr: 0x10000FA8C, symSize: 0x24 }
  - { offsetInCU: 0x188F2, offset: 0x2627E, size: 0x8, addend: 0x0, symName: __ZNSt3__122__compressed_pair_elemIPP6SectorLi0ELb0EE5__getB7v160006Ev, symObjAddr: 0xAD20, symBinAddr: 0x10000FAB0, symSize: 0x14 }
  - { offsetInCU: 0x1892F, offset: 0x262BB, size: 0x8, addend: 0x0, symName: __ZNSt3__16vectorIP6SectorNS_9allocatorIS2_EEE21_ConstructTransactionC1B7v160006ERS5_m, symObjAddr: 0xAD34, symBinAddr: 0x10000FAC4, symSize: 0x3C }
  - { offsetInCU: 0x18975, offset: 0x26301, size: 0x8, addend: 0x0, symName: __ZNSt3__116allocator_traitsINS_9allocatorIP6SectorEEE9constructB7v160006IS3_JRKS3_EvEEvRS4_PT_DpOT0_, symObjAddr: 0xAD70, symBinAddr: 0x10000FB00, symSize: 0x34 }
  - { offsetInCU: 0x189CB, offset: 0x26357, size: 0x8, addend: 0x0, symName: __ZNSt3__16vectorIP6SectorNS_9allocatorIS2_EEE21_ConstructTransactionD1B7v160006Ev, symObjAddr: 0xADA4, symBinAddr: 0x10000FB34, symSize: 0x2C }
  - { offsetInCU: 0x189F3, offset: 0x2637F, size: 0x8, addend: 0x0, symName: __ZNSt3__16vectorIP6SectorNS_9allocatorIS2_EEE21_ConstructTransactionC2B7v160006ERS5_m, symObjAddr: 0xADD0, symBinAddr: 0x10000FB60, symSize: 0x44 }
  - { offsetInCU: 0x18A39, offset: 0x263C5, size: 0x8, addend: 0x0, symName: __ZNSt3__19allocatorIP6SectorE9constructB7v160006IS2_JRKS2_EEEvPT_DpOT0_, symObjAddr: 0xAE14, symBinAddr: 0x10000FBA4, symSize: 0x28 }
  - { offsetInCU: 0x18A8D, offset: 0x26419, size: 0x8, addend: 0x0, symName: __ZNSt3__16vectorIP6SectorNS_9allocatorIS2_EEE21_ConstructTransactionD2B7v160006Ev, symObjAddr: 0xAE3C, symBinAddr: 0x10000FBCC, symSize: 0x20 }
  - { offsetInCU: 0x18AB5, offset: 0x26441, size: 0x8, addend: 0x0, symName: __ZNKSt3__16vectorIP6SectorNS_9allocatorIS2_EEE11__recommendB7v160006Em, symObjAddr: 0xAE5C, symBinAddr: 0x10000FBEC, symSize: 0xB4 }
  - { offsetInCU: 0x18B0A, offset: 0x26496, size: 0x8, addend: 0x0, symName: __ZNSt3__114__split_bufferIP6SectorRNS_9allocatorIS2_EEEC1EmmS5_, symObjAddr: 0xAF10, symBinAddr: 0x10000FCA0, symSize: 0x44 }
  - { offsetInCU: 0x18B5F, offset: 0x264EB, size: 0x8, addend: 0x0, symName: __ZNSt3__114__split_bufferIP6SectorRNS_9allocatorIS2_EEED1Ev, symObjAddr: 0xB06C, symBinAddr: 0x10000FDFC, symSize: 0x2C }
  - { offsetInCU: 0x18B8A, offset: 0x26516, size: 0x8, addend: 0x0, symName: __ZNKSt3__16vectorIP6SectorNS_9allocatorIS2_EEE8max_sizeEv, symObjAddr: 0xB098, symBinAddr: 0x10000FE28, symSize: 0x60 }
  - { offsetInCU: 0x18BB0, offset: 0x2653C, size: 0x8, addend: 0x0, symName: __ZNKSt3__16vectorIP6SectorNS_9allocatorIS2_EEE20__throw_length_errorB7v160006Ev, symObjAddr: 0xB0F8, symBinAddr: 0x10000FE88, symSize: 0x1C }
  - { offsetInCU: 0x18BDE, offset: 0x2656A, size: 0x8, addend: 0x0, symName: __ZNSt3__116allocator_traitsINS_9allocatorIP6SectorEEE8max_sizeB7v160006IS4_vEEmRKS4_, symObjAddr: 0xB114, symBinAddr: 0x10000FEA4, symSize: 0x24 }
  - { offsetInCU: 0x18C0B, offset: 0x26597, size: 0x8, addend: 0x0, symName: __ZNKSt3__16vectorIP6SectorNS_9allocatorIS2_EEE7__allocB7v160006Ev, symObjAddr: 0xB138, symBinAddr: 0x10000FEC8, symSize: 0x28 }
  - { offsetInCU: 0x18C2F, offset: 0x265BB, size: 0x8, addend: 0x0, symName: __ZNKSt3__19allocatorIP6SectorE8max_sizeB7v160006Ev, symObjAddr: 0xB160, symBinAddr: 0x10000FEF0, symSize: 0x14 }
  - { offsetInCU: 0x18C53, offset: 0x265DF, size: 0x8, addend: 0x0, symName: __ZNKSt3__117__compressed_pairIPP6SectorNS_9allocatorIS2_EEE6secondB7v160006Ev, symObjAddr: 0xB174, symBinAddr: 0x10000FF04, symSize: 0x24 }
  - { offsetInCU: 0x18C77, offset: 0x26603, size: 0x8, addend: 0x0, symName: __ZNKSt3__122__compressed_pair_elemINS_9allocatorIP6SectorEELi1ELb1EE5__getB7v160006Ev, symObjAddr: 0xB198, symBinAddr: 0x10000FF28, symSize: 0x14 }
  - { offsetInCU: 0x18C9B, offset: 0x26627, size: 0x8, addend: 0x0, symName: __ZNSt3__114__split_bufferIP6SectorRNS_9allocatorIS2_EEEC2EmmS5_, symObjAddr: 0xB1AC, symBinAddr: 0x10000FF3C, symSize: 0xD4 }
  - { offsetInCU: 0x18D0F, offset: 0x2669B, size: 0x8, addend: 0x0, symName: __ZNSt3__117__compressed_pairIPP6SectorRNS_9allocatorIS2_EEEC1B7v160006IDnS6_EEOT_OT0_, symObjAddr: 0xB280, symBinAddr: 0x100010010, symSize: 0x3C }
  - { offsetInCU: 0x18D65, offset: 0x266F1, size: 0x8, addend: 0x0, symName: __ZNSt3__114__split_bufferIP6SectorRNS_9allocatorIS2_EEE7__allocB7v160006Ev, symObjAddr: 0xB2FC, symBinAddr: 0x10001008C, symSize: 0x28 }
  - { offsetInCU: 0x18D89, offset: 0x26715, size: 0x8, addend: 0x0, symName: __ZNSt3__114__split_bufferIP6SectorRNS_9allocatorIS2_EEE9__end_capB7v160006Ev, symObjAddr: 0xB324, symBinAddr: 0x1000100B4, symSize: 0x28 }
  - { offsetInCU: 0x18DAD, offset: 0x26739, size: 0x8, addend: 0x0, symName: __ZNSt3__117__compressed_pairIPP6SectorRNS_9allocatorIS2_EEEC2B7v160006IDnS6_EEOT_OT0_, symObjAddr: 0xB34C, symBinAddr: 0x1000100DC, symSize: 0x48 }
  - { offsetInCU: 0x18E03, offset: 0x2678F, size: 0x8, addend: 0x0, symName: __ZNSt3__122__compressed_pair_elemIRNS_9allocatorIP6SectorEELi1ELb0EEC2B7v160006IS5_vEEOT_, symObjAddr: 0xB394, symBinAddr: 0x100010124, symSize: 0x20 }
  - { offsetInCU: 0x18E43, offset: 0x267CF, size: 0x8, addend: 0x0, symName: __ZNSt3__19allocatorIP6SectorE8allocateB7v160006Em, symObjAddr: 0xB3B4, symBinAddr: 0x100010144, symSize: 0x58 }
  - { offsetInCU: 0x18E75, offset: 0x26801, size: 0x8, addend: 0x0, symName: __ZNSt3__117__compressed_pairIPP6SectorRNS_9allocatorIS2_EEE6secondB7v160006Ev, symObjAddr: 0xB40C, symBinAddr: 0x10001019C, symSize: 0x28 }
  - { offsetInCU: 0x18E99, offset: 0x26825, size: 0x8, addend: 0x0, symName: __ZNSt3__122__compressed_pair_elemIRNS_9allocatorIP6SectorEELi1ELb0EE5__getB7v160006Ev, symObjAddr: 0xB434, symBinAddr: 0x1000101C4, symSize: 0x18 }
  - { offsetInCU: 0x18EBD, offset: 0x26849, size: 0x8, addend: 0x0, symName: __ZNSt3__117__compressed_pairIPP6SectorRNS_9allocatorIS2_EEE5firstB7v160006Ev, symObjAddr: 0xB44C, symBinAddr: 0x1000101DC, symSize: 0x24 }
  - { offsetInCU: 0x18EE1, offset: 0x2686D, size: 0x8, addend: 0x0, symName: __ZNSt3__116reverse_iteratorIPP6SectorEC1B7v160006ES3_, symObjAddr: 0xB4E8, symBinAddr: 0x100010278, symSize: 0x34 }
  - { offsetInCU: 0x18F17, offset: 0x268A3, size: 0x8, addend: 0x0, symName: __ZNKSt3__116reverse_iteratorIPP6SectorE4baseB7v160006Ev, symObjAddr: 0xB51C, symBinAddr: 0x1000102AC, symSize: 0x18 }
  - { offsetInCU: 0x18F3B, offset: 0x268C7, size: 0x8, addend: 0x0, symName: __ZNKSt3__16vectorIP6SectorNS_9allocatorIS2_EEE14__annotate_newB7v160006Em, symObjAddr: 0xB570, symBinAddr: 0x100010300, symSize: 0xAC }
  - { offsetInCU: 0x18F91, offset: 0x2691D, size: 0x8, addend: 0x0, symName: __ZNKSt3__111__move_loopINS_17_ClassicAlgPolicyEEclB7v160006INS_16reverse_iteratorIPP6SectorEES8_S8_EENS_4pairIT_T1_EESA_T0_SB_, symObjAddr: 0xB91C, symBinAddr: 0x1000106AC, symSize: 0xA0 }
  - { offsetInCU: 0x18FFF, offset: 0x2698B, size: 0x8, addend: 0x0, symName: __ZNSt3__18_IterOpsINS_17_ClassicAlgPolicyEE11__iter_moveB7v160006IRNS_16reverse_iteratorIPP6SectorEEEENS_9enable_ifIXsr12is_referenceIDTdeclsr3stdE7declvalIRT_EEEEE5valueEDTclsr3stdE4movedeclsr3stdE7declvalISC_EEEEE4typeEOSB_, symObjAddr: 0xBB50, symBinAddr: 0x1000108E0, symSize: 0x28 }
  - { offsetInCU: 0x1902A, offset: 0x269B6, size: 0x8, addend: 0x0, symName: __ZNKSt3__116reverse_iteratorIPP6SectorEdeB7v160006Ev, symObjAddr: 0xBB78, symBinAddr: 0x100010908, symSize: 0x28 }
  - { offsetInCU: 0x1905C, offset: 0x269E8, size: 0x8, addend: 0x0, symName: __ZNSt3__116reverse_iteratorIPP6SectorEppB7v160006Ev, symObjAddr: 0xBBA0, symBinAddr: 0x100010930, symSize: 0x20 }
  - { offsetInCU: 0x19080, offset: 0x26A0C, size: 0x8, addend: 0x0, symName: __ZNSt3__18_IterOpsINS_17_ClassicAlgPolicyEE25__validate_iter_referenceB7v160006IRNS_16reverse_iteratorIPP6SectorEEEEvv, symObjAddr: 0xBBC0, symBinAddr: 0x100010950, symSize: 0x4 }
  - { offsetInCU: 0x1909D, offset: 0x26A29, size: 0x8, addend: 0x0, symName: __ZNSt3__118__unwrap_iter_implINS_16reverse_iteratorIPP6SectorEELb0EE8__unwrapB7v160006ES5_, symObjAddr: 0xBBC4, symBinAddr: 0x100010954, symSize: 0x24 }
  - { offsetInCU: 0x190C4, offset: 0x26A50, size: 0x8, addend: 0x0, symName: __ZNSt3__14pairINS_16reverse_iteratorIPP6SectorEES5_EC1B7v160006IS5_S5_LPv0EEEOT_OT0_, symObjAddr: 0xBBE8, symBinAddr: 0x100010978, symSize: 0x3C }
  - { offsetInCU: 0x19120, offset: 0x26AAC, size: 0x8, addend: 0x0, symName: __ZNSt3__14pairINS_16reverse_iteratorIPP6SectorEES5_EC2B7v160006IS5_S5_LPv0EEEOT_OT0_, symObjAddr: 0xBC24, symBinAddr: 0x1000109B4, symSize: 0x34 }
  - { offsetInCU: 0x1917C, offset: 0x26B08, size: 0x8, addend: 0x0, symName: __ZNSt3__118__unwrap_iter_implINS_16reverse_iteratorIPP6SectorEELb0EE8__rewrapB7v160006ES5_S5_, symObjAddr: 0xBC58, symBinAddr: 0x1000109E8, symSize: 0x2C }
  - { offsetInCU: 0x191A8, offset: 0x26B34, size: 0x8, addend: 0x0, symName: __ZNSt3__116reverse_iteratorIPP6SectorEC2B7v160006ES3_, symObjAddr: 0xBC84, symBinAddr: 0x100010A14, symSize: 0x28 }
  - { offsetInCU: 0x191DE, offset: 0x26B6A, size: 0x8, addend: 0x0, symName: __ZNSt3__114__split_bufferIP6SectorRNS_9allocatorIS2_EEED2Ev, symObjAddr: 0xBCAC, symBinAddr: 0x100010A3C, symSize: 0x8C }
  - { offsetInCU: 0x19209, offset: 0x26B95, size: 0x8, addend: 0x0, symName: __ZNSt3__114__split_bufferIP6SectorRNS_9allocatorIS2_EEE5clearB7v160006Ev, symObjAddr: 0xBD38, symBinAddr: 0x100010AC8, symSize: 0x28 }
  - { offsetInCU: 0x1922D, offset: 0x26BB9, size: 0x8, addend: 0x0, symName: __ZNKSt3__114__split_bufferIP6SectorRNS_9allocatorIS2_EEE8capacityB7v160006Ev, symObjAddr: 0xBD60, symBinAddr: 0x100010AF0, symSize: 0x40 }
  - { offsetInCU: 0x19251, offset: 0x26BDD, size: 0x8, addend: 0x0, symName: __ZNSt3__114__split_bufferIP6SectorRNS_9allocatorIS2_EEE17__destruct_at_endB7v160006EPS2_, symObjAddr: 0xBDA0, symBinAddr: 0x100010B30, symSize: 0x2C }
  - { offsetInCU: 0x19283, offset: 0x26C0F, size: 0x8, addend: 0x0, symName: __ZNSt3__114__split_bufferIP6SectorRNS_9allocatorIS2_EEE17__destruct_at_endB7v160006EPS2_NS_17integral_constantIbLb0EEE, symObjAddr: 0xBDCC, symBinAddr: 0x100010B5C, symSize: 0x80 }
  - { offsetInCU: 0x192C1, offset: 0x26C4D, size: 0x8, addend: 0x0, symName: __ZNKSt3__114__split_bufferIP6SectorRNS_9allocatorIS2_EEE9__end_capB7v160006Ev, symObjAddr: 0xBE4C, symBinAddr: 0x100010BDC, symSize: 0x28 }
  - { offsetInCU: 0x192E5, offset: 0x26C71, size: 0x8, addend: 0x0, symName: __ZNKSt3__117__compressed_pairIPP6SectorRNS_9allocatorIS2_EEE5firstB7v160006Ev, symObjAddr: 0xBE74, symBinAddr: 0x100010C04, symSize: 0x24 }
  - { offsetInCU: 0x19309, offset: 0x26C95, size: 0x8, addend: 0x0, symName: __ZNSt3__113basic_ostreamIcNS_11char_traitsIcEEEC2B7v160006EPNS_15basic_streambufIcS2_EE, symObjAddr: 0xBE98, symBinAddr: 0x100010C28, symSize: 0x60 }
  - { offsetInCU: 0x80, offset: 0x26FA9, size: 0x8, addend: 0x0, symName: __ZNSt3__1L19piecewise_constructE, symObjAddr: 0xC916, symBinAddr: 0x100057991, symSize: 0x0 }
  - { offsetInCU: 0x8CE2, offset: 0x2FC0B, size: 0x8, addend: 0x0, symName: __ZNSt3__115__debug_db_swapB7v160006INS_6vectorIP6SectorNS_9allocatorIS3_EEEEEEvPT_S8_, symObjAddr: 0x9694, symBinAddr: 0x1000126EC, symSize: 0x14 }
  - { offsetInCU: 0x8D21, offset: 0x2FC4A, size: 0x8, addend: 0x0, symName: __ZNSt3__122__make_exception_guardB7v160006INS_6vectorIP6SectorNS_9allocatorIS3_EEE16__destroy_vectorEEENS_28__exception_guard_exceptionsIT_EES9_, symObjAddr: 0xBC18, symBinAddr: 0x10001287C, symSize: 0x40 }
  - { offsetInCU: 0x8D56, offset: 0x2FC7F, size: 0x8, addend: 0x0, symName: __ZNSt3__130__uninitialized_allocator_copyB7v160006INS_9allocatorIP6SectorEEPS3_S5_S5_EET2_RT_T0_T1_S6_, symObjAddr: 0xBE30, symBinAddr: 0x100012A94, symSize: 0xF4 }
  - { offsetInCU: 0x8DF6, offset: 0x2FD1F, size: 0x8, addend: 0x0, symName: __ZNSt3__122__make_exception_guardB7v160006INS_29_AllocatorDestroyRangeReverseINS_9allocatorIP6SectorEEPS4_EEEENS_28__exception_guard_exceptionsIT_EES9_, symObjAddr: 0xBF24, symBinAddr: 0x100012B88, symSize: 0x4C }
  - { offsetInCU: 0x8E2C, offset: 0x2FD55, size: 0x8, addend: 0x0, symName: __ZNSt3__119__allocator_destroyB7v160006INS_9allocatorIP6SectorEENS_16reverse_iteratorIPS3_EES7_EEvRT_T0_T1_, symObjAddr: 0xC1AC, symBinAddr: 0x100012E10, symSize: 0x70 }
  - { offsetInCU: 0x8E8F, offset: 0x2FDB8, size: 0x8, addend: 0x0, symName: __ZNSt3__112__to_addressB7v160006INS_16reverse_iteratorIPP6SectorEEvEENS_5decayIDTclsr19__to_address_helperIT_EE6__callclsr3stdE7declvalIRKS7_EEEEE4typeES9_, symObjAddr: 0xC21C, symBinAddr: 0x100012E80, symSize: 0x24 }
  - { offsetInCU: 0xB6C5, offset: 0x325EE, size: 0x8, addend: 0x0, symName: __ZN16SpaceSectorLLRBTC2Ev, symObjAddr: 0x0, symBinAddr: 0x100010C88, symSize: 0x34 }
  - { offsetInCU: 0xB6EF, offset: 0x32618, size: 0x8, addend: 0x0, symName: __ZN16SpaceSectorLLRBTC1Ev, symObjAddr: 0x60, symBinAddr: 0x100010CBC, symSize: 0x2C }
  - { offsetInCU: 0xB719, offset: 0x32642, size: 0x8, addend: 0x0, symName: __ZN16SpaceSectorLLRBT19readSectorsFromFileERKNSt3__112basic_stringIcNS0_11char_traitsIcEENS0_9allocatorIcEEEE, symObjAddr: 0x8C, symBinAddr: 0x100010CE8, symSize: 0x238 }
  - { offsetInCU: 0xB8EF, offset: 0x32818, size: 0x8, addend: 0x0, symName: __ZN16SpaceSectorLLRBT25insertSectorByCoordinatesEiii, symObjAddr: 0x7E0, symBinAddr: 0x100010F20, symSize: 0x54 }
  - { offsetInCU: 0xB949, offset: 0x32872, size: 0x8, addend: 0x0, symName: __ZN16SpaceSectorLLRBTD2Ev, symObjAddr: 0x8B4, symBinAddr: 0x100010F74, symSize: 0x44 }
  - { offsetInCU: 0xB973, offset: 0x3289C, size: 0x8, addend: 0x0, symName: __ZN16SpaceSectorLLRBT10deleteTreeEP6Sector, symObjAddr: 0x8F8, symBinAddr: 0x100010FB8, symSize: 0x8C }
  - { offsetInCU: 0xB9A7, offset: 0x328D0, size: 0x8, addend: 0x0, symName: __ZN16SpaceSectorLLRBTD1Ev, symObjAddr: 0x9BC, symBinAddr: 0x100011044, symSize: 0x2C }
  - { offsetInCU: 0xB9D1, offset: 0x328FA, size: 0x8, addend: 0x0, symName: __ZN16SpaceSectorLLRBT12insertSectorEP6Sectoriii, symObjAddr: 0x9E8, symBinAddr: 0x100011070, symSize: 0x3A8 }
  - { offsetInCU: 0xBA5C, offset: 0x32985, size: 0x8, addend: 0x0, symName: __ZN16SpaceSectorLLRBT18compareCoordinatesEiiiPK6Sector, symObjAddr: 0xEAC, symBinAddr: 0x100011418, symSize: 0x11C }
  - { offsetInCU: 0xBABA, offset: 0x329E3, size: 0x8, addend: 0x0, symName: __ZN16SpaceSectorLLRBT5isRedEP6Sector, symObjAddr: 0xFC8, symBinAddr: 0x100011534, symSize: 0x54 }
  - { offsetInCU: 0xBAEE, offset: 0x32A17, size: 0x8, addend: 0x0, symName: __ZN16SpaceSectorLLRBT10rotateLeftEP6Sector, symObjAddr: 0x101C, symBinAddr: 0x100011588, symSize: 0x124 }
  - { offsetInCU: 0xBB30, offset: 0x32A59, size: 0x8, addend: 0x0, symName: __ZN16SpaceSectorLLRBT11rotateRightEP6Sector, symObjAddr: 0x1140, symBinAddr: 0x1000116AC, symSize: 0x124 }
  - { offsetInCU: 0xBB72, offset: 0x32A9B, size: 0x8, addend: 0x0, symName: __ZN16SpaceSectorLLRBT10flipColorsEP6Sector, symObjAddr: 0x1264, symBinAddr: 0x1000117D0, symSize: 0x38 }
  - { offsetInCU: 0xBBA6, offset: 0x32ACF, size: 0x8, addend: 0x0, symName: __ZN16SpaceSectorLLRBT21displaySectorsInOrderEv, symObjAddr: 0x129C, symBinAddr: 0x100011808, symSize: 0x64 }
  - { offsetInCU: 0xBBCC, offset: 0x32AF5, size: 0x8, addend: 0x0, symName: __ZN16SpaceSectorLLRBT15traverseInorderEP6Sector, symObjAddr: 0x1384, symBinAddr: 0x10001186C, symSize: 0xBC }
  - { offsetInCU: 0xBC00, offset: 0x32B29, size: 0x8, addend: 0x0, symName: __ZN16SpaceSectorLLRBT22displaySectorsPreOrderEv, symObjAddr: 0x148C, symBinAddr: 0x100011928, symSize: 0x64 }
  - { offsetInCU: 0xBC26, offset: 0x32B4F, size: 0x8, addend: 0x0, symName: __ZN16SpaceSectorLLRBT16traversePreorderEP6Sector, symObjAddr: 0x14F0, symBinAddr: 0x10001198C, symSize: 0xBC }
  - { offsetInCU: 0xBC5A, offset: 0x32B83, size: 0x8, addend: 0x0, symName: __ZN16SpaceSectorLLRBT23displaySectorsPostOrderEv, symObjAddr: 0x15AC, symBinAddr: 0x100011A48, symSize: 0x64 }
  - { offsetInCU: 0xBC80, offset: 0x32BA9, size: 0x8, addend: 0x0, symName: __ZN16SpaceSectorLLRBT17traversePostorderEP6Sector, symObjAddr: 0x1610, symBinAddr: 0x100011AAC, symSize: 0xBC }
  - { offsetInCU: 0xBCB4, offset: 0x32BDD, size: 0x8, addend: 0x0, symName: __ZN16SpaceSectorLLRBT14getStellarPathERKNSt3__112basic_stringIcNS0_11char_traitsIcEENS0_9allocatorIcEEEE, symObjAddr: 0x16CC, symBinAddr: 0x100011B68, symSize: 0x6BC }
  - { offsetInCU: 0xBE4D, offset: 0x32D76, size: 0x8, addend: 0x0, symName: __ZNSt3__16vectorIP6SectorNS_9allocatorIS2_EEEC1B7v160006EOS5_, symObjAddr: 0x1DE0, symBinAddr: 0x100012224, symSize: 0x34 }
  - { offsetInCU: 0xBE87, offset: 0x32DB0, size: 0x8, addend: 0x0, symName: __ZN16SpaceSectorLLRBT15deepFirstSearchEP6SectorS1_NSt3__16vectorIS1_NS2_9allocatorIS1_EEEE, symObjAddr: 0x1F20, symBinAddr: 0x100012258, symSize: 0x210 }
  - { offsetInCU: 0xBEFF, offset: 0x32E28, size: 0x8, addend: 0x0, symName: __ZNSt3__16vectorIP6SectorNS_9allocatorIS2_EEEixB7v160006Em, symObjAddr: 0x21D8, symBinAddr: 0x100012468, symSize: 0x24 }
  - { offsetInCU: 0xBF35, offset: 0x32E5E, size: 0x8, addend: 0x0, symName: __ZNSt3__16vectorIP6SectorNS_9allocatorIS2_EEEC1ERKS5_, symObjAddr: 0x2268, symBinAddr: 0x10001248C, symSize: 0x34 }
  - { offsetInCU: 0xBF6F, offset: 0x32E98, size: 0x8, addend: 0x0, symName: __ZN16SpaceSectorLLRBT16printStellarPathERKNSt3__16vectorIP6SectorNS0_9allocatorIS3_EEEE, symObjAddr: 0x229C, symBinAddr: 0x1000124C0, symSize: 0x114 }
  - { offsetInCU: 0xC01A, offset: 0x32F43, size: 0x8, addend: 0x0, symName: __ZNSt3__16vectorIP6SectorNS_9allocatorIS2_EEEC2B7v160006EOS5_, symObjAddr: 0x957C, symBinAddr: 0x1000125D4, symSize: 0xDC }
  - { offsetInCU: 0xC059, offset: 0x32F82, size: 0x8, addend: 0x0, symName: __ZNSt3__117__compressed_pairIPP6SectorNS_9allocatorIS2_EEEC1B7v160006IDnS5_EEOT_OT0_, symObjAddr: 0x9658, symBinAddr: 0x1000126B0, symSize: 0x3C }
  - { offsetInCU: 0xC0AF, offset: 0x32FD8, size: 0x8, addend: 0x0, symName: __ZNSt3__117__compressed_pairIPP6SectorNS_9allocatorIS2_EEEC2B7v160006IDnS5_EEOT_OT0_, symObjAddr: 0x96D0, symBinAddr: 0x100012700, symSize: 0x44 }
  - { offsetInCU: 0xC105, offset: 0x3302E, size: 0x8, addend: 0x0, symName: __ZNSt3__122__compressed_pair_elemINS_9allocatorIP6SectorEELi1ELb1EEC2B7v160006IS4_vEEOT_, symObjAddr: 0x9714, symBinAddr: 0x100012744, symSize: 0x18 }
  - { offsetInCU: 0xC177, offset: 0x330A0, size: 0x8, addend: 0x0, symName: __ZNSt3__16vectorIP6SectorNS_9allocatorIS2_EEEC2ERKS5_, symObjAddr: 0xBAF8, symBinAddr: 0x10001275C, symSize: 0x110 }
  - { offsetInCU: 0xC1D8, offset: 0x33101, size: 0x8, addend: 0x0, symName: __ZNSt3__116allocator_traitsINS_9allocatorIP6SectorEEE37select_on_container_copy_constructionB7v160006IS4_vvEES4_RKS4_, symObjAddr: 0xBC08, symBinAddr: 0x10001286C, symSize: 0x10 }
  - { offsetInCU: 0xC206, offset: 0x3312F, size: 0x8, addend: 0x0, symName: __ZNSt3__16vectorIP6SectorNS_9allocatorIS2_EEE11__vallocateB7v160006Em, symObjAddr: 0xBC58, symBinAddr: 0x1000128BC, symSize: 0xAC }
  - { offsetInCU: 0xC249, offset: 0x33172, size: 0x8, addend: 0x0, symName: __ZNSt3__16vectorIP6SectorNS_9allocatorIS2_EEE18__construct_at_endIPS2_Li0EEEvT_S8_m, symObjAddr: 0xBD04, symBinAddr: 0x100012968, symSize: 0x8C }
  - { offsetInCU: 0xC2BC, offset: 0x331E5, size: 0x8, addend: 0x0, symName: __ZNSt3__128__exception_guard_exceptionsINS_6vectorIP6SectorNS_9allocatorIS3_EEE16__destroy_vectorEE10__completeB7v160006Ev, symObjAddr: 0xBD90, symBinAddr: 0x1000129F4, symSize: 0x1C }
  - { offsetInCU: 0xC2E0, offset: 0x33209, size: 0x8, addend: 0x0, symName: __ZNSt3__128__exception_guard_exceptionsINS_6vectorIP6SectorNS_9allocatorIS3_EEE16__destroy_vectorEED1B7v160006Ev, symObjAddr: 0xBDAC, symBinAddr: 0x100012A10, symSize: 0x2C }
  - { offsetInCU: 0xC308, offset: 0x33231, size: 0x8, addend: 0x0, symName: __ZNSt3__128__exception_guard_exceptionsINS_6vectorIP6SectorNS_9allocatorIS3_EEE16__destroy_vectorEEC1B7v160006ES7_, symObjAddr: 0xBDD8, symBinAddr: 0x100012A3C, symSize: 0x34 }
  - { offsetInCU: 0xC33E, offset: 0x33267, size: 0x8, addend: 0x0, symName: __ZNSt3__128__exception_guard_exceptionsINS_6vectorIP6SectorNS_9allocatorIS3_EEE16__destroy_vectorEEC2B7v160006ES7_, symObjAddr: 0xBE0C, symBinAddr: 0x100012A70, symSize: 0x24 }
  - { offsetInCU: 0xC374, offset: 0x3329D, size: 0x8, addend: 0x0, symName: __ZNSt3__129_AllocatorDestroyRangeReverseINS_9allocatorIP6SectorEEPS3_EC1B7v160006ERS4_RS5_S8_, symObjAddr: 0xBF70, symBinAddr: 0x100012BD4, symSize: 0x44 }
  - { offsetInCU: 0xC3C9, offset: 0x332F2, size: 0x8, addend: 0x0, symName: __ZNSt3__116allocator_traitsINS_9allocatorIP6SectorEEE9constructB7v160006IS3_JRS3_EvEEvRS4_PT_DpOT0_, symObjAddr: 0xBFB4, symBinAddr: 0x100012C18, symSize: 0x34 }
  - { offsetInCU: 0xC41F, offset: 0x33348, size: 0x8, addend: 0x0, symName: __ZNSt3__128__exception_guard_exceptionsINS_29_AllocatorDestroyRangeReverseINS_9allocatorIP6SectorEEPS4_EEE10__completeB7v160006Ev, symObjAddr: 0xBFE8, symBinAddr: 0x100012C4C, symSize: 0x1C }
  - { offsetInCU: 0xC443, offset: 0x3336C, size: 0x8, addend: 0x0, symName: __ZNSt3__128__exception_guard_exceptionsINS_29_AllocatorDestroyRangeReverseINS_9allocatorIP6SectorEEPS4_EEED1B7v160006Ev, symObjAddr: 0xC004, symBinAddr: 0x100012C68, symSize: 0x2C }
  - { offsetInCU: 0xC46B, offset: 0x33394, size: 0x8, addend: 0x0, symName: __ZNSt3__128__exception_guard_exceptionsINS_29_AllocatorDestroyRangeReverseINS_9allocatorIP6SectorEEPS4_EEEC1B7v160006ES7_, symObjAddr: 0xC030, symBinAddr: 0x100012C94, symSize: 0x34 }
  - { offsetInCU: 0xC4A2, offset: 0x333CB, size: 0x8, addend: 0x0, symName: __ZNSt3__128__exception_guard_exceptionsINS_29_AllocatorDestroyRangeReverseINS_9allocatorIP6SectorEEPS4_EEEC2B7v160006ES7_, symObjAddr: 0xC064, symBinAddr: 0x100012CC8, symSize: 0x30 }
  - { offsetInCU: 0xC4D9, offset: 0x33402, size: 0x8, addend: 0x0, symName: __ZNSt3__129_AllocatorDestroyRangeReverseINS_9allocatorIP6SectorEEPS3_EC2B7v160006ERS4_RS5_S8_, symObjAddr: 0xC094, symBinAddr: 0x100012CF8, symSize: 0x38 }
  - { offsetInCU: 0xC52E, offset: 0x33457, size: 0x8, addend: 0x0, symName: __ZNSt3__19allocatorIP6SectorE9constructB7v160006IS2_JRS2_EEEvPT_DpOT0_, symObjAddr: 0xC0CC, symBinAddr: 0x100012D30, symSize: 0x28 }
  - { offsetInCU: 0xC582, offset: 0x334AB, size: 0x8, addend: 0x0, symName: __ZNSt3__128__exception_guard_exceptionsINS_29_AllocatorDestroyRangeReverseINS_9allocatorIP6SectorEEPS4_EEED2B7v160006Ev, symObjAddr: 0xC0F4, symBinAddr: 0x100012D58, symSize: 0x50 }
  - { offsetInCU: 0xC5AA, offset: 0x334D3, size: 0x8, addend: 0x0, symName: __ZNKSt3__129_AllocatorDestroyRangeReverseINS_9allocatorIP6SectorEEPS3_EclB7v160006Ev, symObjAddr: 0xC144, symBinAddr: 0x100012DA8, symSize: 0x68 }
  - { offsetInCU: 0xC5D3, offset: 0x334FC, size: 0x8, addend: 0x0, symName: __ZNSt3__119__to_address_helperINS_16reverse_iteratorIPP6SectorEEvE6__callB7v160006ERKS5_, symObjAddr: 0xC240, symBinAddr: 0x100012EA4, symSize: 0x38 }
  - { offsetInCU: 0xC5F5, offset: 0x3351E, size: 0x8, addend: 0x0, symName: __ZNKSt3__116reverse_iteratorIPP6SectorEptB7v160006Ev, symObjAddr: 0xC278, symBinAddr: 0x100012EDC, symSize: 0x24 }
  - { offsetInCU: 0xC619, offset: 0x33542, size: 0x8, addend: 0x0, symName: __ZNSt3__128__exception_guard_exceptionsINS_6vectorIP6SectorNS_9allocatorIS3_EEE16__destroy_vectorEED2B7v160006Ev, symObjAddr: 0xC29C, symBinAddr: 0x100012F00, symSize: 0x50 }
  - { offsetInCU: 0x52, offset: 0x335E3, size: 0x8, addend: 0x0, symName: _whitespaces, symObjAddr: 0x4BC00, symBinAddr: 0x100064000, symSize: 0x0 }
  - { offsetInCU: 0x6D, offset: 0x335FE, size: 0x8, addend: 0x0, symName: _TESTS_PATH, symObjAddr: 0x235498, symBinAddr: 0x100064008, symSize: 0x0 }
  - { offsetInCU: 0xAB07, offset: 0x3E098, size: 0x8, addend: 0x0, symName: __ZNSt3__110__function10__not_nullB7v160006INS_6__bindIM14SpaceSectorBSTFvvEJPS3_EEEEEbRKT_, symObjAddr: 0x427FC, symBinAddr: 0x1000518AC, symSize: 0x18 }
  - { offsetInCU: 0xAB38, offset: 0x3E0C9, size: 0x8, addend: 0x0, symName: '__ZNSt3__110__function10__not_nullB7v160006IZ11test_outputvE3$_0EEbRKT_', symObjAddr: 0x44C70, symBinAddr: 0x100053D20, symSize: 0x18 }
  - { offsetInCU: 0xD871, offset: 0x40E02, size: 0x8, addend: 0x0, symName: __ZNSt3__1L19piecewise_constructE, symObjAddr: 0x4B576, symBinAddr: 0x10005858E, symSize: 0x0 }
  - { offsetInCU: 0x1224B, offset: 0x457DC, size: 0x8, addend: 0x0, symName: __ZNSt3__17advanceB7v160006INS_20__map_const_iteratorINS_21__tree_const_iteratorINS_12__value_typeINS_12basic_stringIcNS_11char_traitsIcEENS_9allocatorIcEEEEN8nlohmann16json_abi_v3_11_310basic_jsonINS_3mapENS_6vectorES9_bxydS7_NSB_14adl_serializerENSE_IhNS7_IhEEEEvEEEEPNS_11__tree_nodeISJ_PvEElEEEEllvEEvRT_T0_, symObjAddr: 0x1C828, symBinAddr: 0x10002E2AC, symSize: 0x50 }
  - { offsetInCU: 0x13617, offset: 0x46BA8, size: 0x8, addend: 0x0, symName: __ZNSt3__17advanceB7v160006INS_11__wrap_iterIPKcEEiivEEvRT_T0_, symObjAddr: 0x231B0, symBinAddr: 0x100034C18, symSize: 0x58 }
  - { offsetInCU: 0x14B8F, offset: 0x48120, size: 0x8, addend: 0x0, symName: __ZNSt3__114__copy_alignedB7v160006INS_6vectorIbNS_9allocatorIbEEEELb0EEENS_14__bit_iteratorIT_Lb0EXLi0EEEENS5_IS6_XT0_EXLi0EEEES8_S7_, symObjAddr: 0x2A018, symBinAddr: 0x10003B8F8, symSize: 0x278 }
  - { offsetInCU: 0x14CC9, offset: 0x4825A, size: 0x8, addend: 0x0, symName: __ZNSt3__16copy_nB7v160006IPmmS1_EENS_9enable_ifIXsr33__is_cpp17_random_access_iteratorIT_EE5valueET1_E4typeES3_T0_S4_, symObjAddr: 0x2A7FC, symBinAddr: 0x10003C0DC, symSize: 0x44 }
  - { offsetInCU: 0x14D70, offset: 0x48301, size: 0x8, addend: 0x0, symName: __ZNSt3__116__copy_unalignedB7v160006INS_6vectorIbNS_9allocatorIbEEEELb0EEENS_14__bit_iteratorIT_Lb0EXLi0EEEENS5_IS6_XT0_EXLi0EEEES8_S7_, symObjAddr: 0x2A290, symBinAddr: 0x10003BB70, symSize: 0x540 }
  - { offsetInCU: 0x167C3, offset: 0x49D54, size: 0x8, addend: 0x0, symName: __ZNSt3__17advanceB7v160006INS_21__tree_const_iteratorINS_12__value_typeINS_12basic_stringIcNS_11char_traitsIcEENS_9allocatorIcEEEEN8nlohmann16json_abi_v3_11_310basic_jsonINS_3mapENS_6vectorES8_bxydS6_NSA_14adl_serializerENSD_IhNS6_IhEEEEvEEEEPNS_11__tree_nodeISI_PvEElEEllvEEvRT_T0_, symObjAddr: 0x30088, symBinAddr: 0x10004192C, symSize: 0x50 }
  - { offsetInCU: 0x1821B, offset: 0x4B7AC, size: 0x8, addend: 0x0, symName: __ZNSt3__17advanceB7v160006INS_14__map_iteratorINS_15__tree_iteratorINS_12__value_typeINS_12basic_stringIcNS_11char_traitsIcEENS_9allocatorIcEEEEN8nlohmann16json_abi_v3_11_310basic_jsonINS_3mapENS_6vectorES9_bxydS7_NSB_14adl_serializerENSE_IhNS7_IhEEEEvEEEEPNS_11__tree_nodeISJ_PvEElEEEEiivEEvRT_T0_, symObjAddr: 0x3A98C, symBinAddr: 0x10004BAA8, symSize: 0x58 }
  - { offsetInCU: 0x182AD, offset: 0x4B83E, size: 0x8, addend: 0x0, symName: __ZNSt3__17advanceB7v160006INS_11__wrap_iterIPN8nlohmann16json_abi_v3_11_310basic_jsonINS_3mapENS_6vectorENS_12basic_stringIcNS_11char_traitsIcEENS_9allocatorIcEEEEbxydSA_NS3_14adl_serializerENS6_IhNSA_IhEEEEvEEEEiivEEvRT_T0_, symObjAddr: 0x3A9E4, symBinAddr: 0x10004BB00, symSize: 0x58 }
  - { offsetInCU: 0x18ED9, offset: 0x4C46A, size: 0x8, addend: 0x0, symName: __ZNSt3__16copy_nB7v160006IPKcmPcEENS_9enable_ifIXsr33__is_cpp17_random_access_iteratorIT_EE5valueET1_E4typeES5_T0_S6_, symObjAddr: 0x40F20, symBinAddr: 0x100050030, symSize: 0x44 }
  - { offsetInCU: 0x1D767, offset: 0x50CF8, size: 0x8, addend: 0x0, symName: __ZNSt3__1neB7v160006IPKdEEbRKNS_11__wrap_iterIT_EES7_, symObjAddr: 0xCC0, symBinAddr: 0x100013C10, symSize: 0x34 }
  - { offsetInCU: 0x1D7AA, offset: 0x50D3B, size: 0x8, addend: 0x0, symName: __ZNSt3__1neB7v160006IPK5PointEEbRKNS_11__wrap_iterIT_EES8_, symObjAddr: 0x1080, symBinAddr: 0x100013FD0, symSize: 0x34 }
  - { offsetInCU: 0x1D7ED, offset: 0x50D7E, size: 0x8, addend: 0x0, symName: __ZNSt3__1neB7v160006IPKP6SectorEEbRKNS_11__wrap_iterIT_EES9_, symObjAddr: 0x1728, symBinAddr: 0x100014678, symSize: 0x34 }
  - { offsetInCU: 0x1E11A, offset: 0x516AB, size: 0x8, addend: 0x0, symName: __ZNSt3__1lsB7v160006IcNS_11char_traitsIcEEEERNS_13basic_ostreamIT_T0_EES7_RKNS_8__iom_t5E, symObjAddr: 0x4F90, symBinAddr: 0x100017B30, symSize: 0x40 }
  - { offsetInCU: 0x1E166, offset: 0x516F7, size: 0x8, addend: 0x0, symName: __ZNSt3__15fixedB7v160006ERNS_8ios_baseE, symObjAddr: 0x5010, symBinAddr: 0x100017BB0, symSize: 0x30 }
  - { offsetInCU: 0x1E194, offset: 0x51725, size: 0x8, addend: 0x0, symName: __ZNSt3__112setprecisionB7v160006Ei, symObjAddr: 0x5040, symBinAddr: 0x100017BE0, symSize: 0x2C }
  - { offsetInCU: 0x1E1C0, offset: 0x51751, size: 0x8, addend: 0x0, symName: __ZNSt3__1plB7v160006IcNS_11char_traitsIcEENS_9allocatorIcEEEENS_12basic_stringIT_T0_T1_EEOS9_PKS6_, symObjAddr: 0x591C, symBinAddr: 0x100018454, symSize: 0x40 }
  - { offsetInCU: 0x1E218, offset: 0x517A9, size: 0x8, addend: 0x0, symName: __ZNSt3__1plB7v160006IcNS_11char_traitsIcEENS_9allocatorIcEEEENS_12basic_stringIT_T0_T1_EEOS9_SA_, symObjAddr: 0x595C, symBinAddr: 0x100018494, symSize: 0x40 }
  - { offsetInCU: 0x1E270, offset: 0x51801, size: 0x8, addend: 0x0, symName: __ZNSt3__1plB7v160006IcNS_11char_traitsIcEENS_9allocatorIcEEEENS_12basic_stringIT_T0_T1_EERKS9_PKS6_, symObjAddr: 0x599C, symBinAddr: 0x1000184D4, symSize: 0x11C }
  - { offsetInCU: 0x1E5CC, offset: 0x51B5D, size: 0x8, addend: 0x0, symName: __ZNSt3__14bindB7v160006IM14SpaceSectorBSTFvvEJPS1_EEENS_6__bindIT_JDpT0_EEEOS6_DpOS7_, symObjAddr: 0x7358, symBinAddr: 0x100019CFC, symSize: 0x38 }
  - { offsetInCU: 0x1E61D, offset: 0x51BAE, size: 0x8, addend: 0x0, symName: __ZNSt3__1neB7v160006IPP6SectorEEbRKNS_11__wrap_iterIT_EES8_, symObjAddr: 0x8790, symBinAddr: 0x10001B0E8, symSize: 0x34 }
  - { offsetInCU: 0x1E660, offset: 0x51BF1, size: 0x8, addend: 0x0, symName: __ZNSt3__1eqB7v160006IPKdEEbRKNS_11__wrap_iterIT_EES7_, symObjAddr: 0x9094, symBinAddr: 0x10001B9EC, symSize: 0x48 }
  - { offsetInCU: 0x1E6A3, offset: 0x51C34, size: 0x8, addend: 0x0, symName: __ZNSt3__1eqB7v160006IPK5PointEEbRKNS_11__wrap_iterIT_EES8_, symObjAddr: 0x90F4, symBinAddr: 0x10001BA4C, symSize: 0x48 }
  - { offsetInCU: 0x1E6E6, offset: 0x51C77, size: 0x8, addend: 0x0, symName: __ZNSt3__1eqB7v160006IPKP6SectorEEbRKNS_11__wrap_iterIT_EES9_, symObjAddr: 0x9154, symBinAddr: 0x10001BAAC, symSize: 0x48 }
  - { offsetInCU: 0x1E729, offset: 0x51CBA, size: 0x8, addend: 0x0, symName: __ZNSt3__122__make_exception_guardB7v160006INS_6vectorIdNS_9allocatorIdEEE16__destroy_vectorEEENS_28__exception_guard_exceptionsIT_EES7_, symObjAddr: 0x93E0, symBinAddr: 0x10001BD38, symSize: 0x40 }
  - { offsetInCU: 0x1E75F, offset: 0x51CF0, size: 0x8, addend: 0x0, symName: __ZNSt3__119__debug_db_insert_cB7v160006INS_6vectorIdNS_9allocatorIdEEEEEEvPT_, symObjAddr: 0x9454, symBinAddr: 0x10001BDAC, symSize: 0x10 }
  - { offsetInCU: 0x1E78F, offset: 0x51D20, size: 0x8, addend: 0x0, symName: __ZNSt3__119__allocate_at_leastB7v160006INS_9allocatorIdEEEENS_19__allocation_resultINS_16allocator_traitsIT_E7pointerEEERS5_m, symObjAddr: 0x97B0, symBinAddr: 0x10001C108, symSize: 0x40 }
  - { offsetInCU: 0x1E7D2, offset: 0x51D63, size: 0x8, addend: 0x0, symName: __ZNSt3__112__to_addressB7v160006IdEEPT_S2_, symObjAddr: 0x9CB4, symBinAddr: 0x10001C3CC, symSize: 0x14 }
  - { offsetInCU: 0x1E807, offset: 0x51D98, size: 0x8, addend: 0x0, symName: __ZNSt3__130__uninitialized_allocator_copyB7v160006INS_9allocatorIdEEPdS3_S3_EET2_RT_T0_T1_S4_, symObjAddr: 0x9D64, symBinAddr: 0x10001C47C, symSize: 0xF4 }
  - { offsetInCU: 0x1E8A7, offset: 0x51E38, size: 0x8, addend: 0x0, symName: __ZNSt3__122__make_exception_guardB7v160006INS_29_AllocatorDestroyRangeReverseINS_9allocatorIdEEPdEEEENS_28__exception_guard_exceptionsIT_EES7_, symObjAddr: 0x9EC8, symBinAddr: 0x10001C5E0, symSize: 0x4C }
  - { offsetInCU: 0x1E8DE, offset: 0x51E6F, size: 0x8, addend: 0x0, symName: __ZNSt3__119__allocator_destroyB7v160006INS_9allocatorIdEENS_16reverse_iteratorIPdEES5_EEvRT_T0_T1_, symObjAddr: 0xA150, symBinAddr: 0x10001C868, symSize: 0x70 }
  - { offsetInCU: 0x1E940, offset: 0x51ED1, size: 0x8, addend: 0x0, symName: __ZNSt3__1neB7v160006IPdS1_EEbRKNS_16reverse_iteratorIT_EERKNS2_IT0_EE, symObjAddr: 0xA1F4, symBinAddr: 0x10001C90C, symSize: 0x48 }
  - { offsetInCU: 0x1E98C, offset: 0x51F1D, size: 0x8, addend: 0x0, symName: __ZNSt3__112__to_addressB7v160006INS_16reverse_iteratorIPdEEvEENS_5decayIDTclsr19__to_address_helperIT_EE6__callclsr3stdE7declvalIRKS5_EEEEE4typeES7_, symObjAddr: 0xA268, symBinAddr: 0x10001C980, symSize: 0x24 }
  - { offsetInCU: 0x1E9ED, offset: 0x51F7E, size: 0x8, addend: 0x0, symName: __ZNSt3__118__debug_db_erase_cB7v160006INS_6vectorIdNS_9allocatorIdEEEEEEvPT_, symObjAddr: 0xA548, symBinAddr: 0x10001CC60, symSize: 0x10 }
  - { offsetInCU: 0x1EA1E, offset: 0x51FAF, size: 0x8, addend: 0x0, symName: __ZNSt3__119__debug_db_insert_cB7v160006INS_6vectorI5PointNS_9allocatorIS2_EEEEEEvPT_, symObjAddr: 0xA7F4, symBinAddr: 0x10001CE90, symSize: 0x10 }
  - { offsetInCU: 0x1EA4F, offset: 0x51FE0, size: 0x8, addend: 0x0, symName: __ZNSt3__118__debug_db_erase_cB7v160006INS_6vectorI5PointNS_9allocatorIS2_EEEEEEvPT_, symObjAddr: 0xAB70, symBinAddr: 0x10001D20C, symSize: 0x10 }
  - { offsetInCU: 0x1EA7F, offset: 0x52010, size: 0x8, addend: 0x0, symName: __ZNSt3__112__to_addressB7v160006I5PointEEPT_S3_, symObjAddr: 0xACB4, symBinAddr: 0x10001D350, symSize: 0x14 }
  - { offsetInCU: 0x1EAB4, offset: 0x52045, size: 0x8, addend: 0x0, symName: __ZNSt3__122__make_exception_guardB7v160006INS_6vectorI5PointNS_9allocatorIS2_EEE16__destroy_vectorEEENS_28__exception_guard_exceptionsIT_EES8_, symObjAddr: 0xB0EC, symBinAddr: 0x10001D788, symSize: 0x40 }
  - { offsetInCU: 0x1EAE9, offset: 0x5207A, size: 0x8, addend: 0x0, symName: __ZNSt3__119__allocate_at_leastB7v160006INS_9allocatorI5PointEEEENS_19__allocation_resultINS_16allocator_traitsIT_E7pointerEEERS6_m, symObjAddr: 0xB41C, symBinAddr: 0x10001DAB8, symSize: 0x40 }
  - { offsetInCU: 0x1EB2C, offset: 0x520BD, size: 0x8, addend: 0x0, symName: __ZNSt3__130__uninitialized_allocator_copyB7v160006INS_9allocatorI5PointEEPS2_S4_S4_EET2_RT_T0_T1_S5_, symObjAddr: 0xB658, symBinAddr: 0x10001DCF4, symSize: 0xF4 }
  - { offsetInCU: 0x1EBCC, offset: 0x5215D, size: 0x8, addend: 0x0, symName: __ZNSt3__122__make_exception_guardB7v160006INS_29_AllocatorDestroyRangeReverseINS_9allocatorI5PointEEPS3_EEEENS_28__exception_guard_exceptionsIT_EES8_, symObjAddr: 0xB7C4, symBinAddr: 0x10001DE60, symSize: 0x4C }
  - { offsetInCU: 0x1EC03, offset: 0x52194, size: 0x8, addend: 0x0, symName: __ZNSt3__119__allocator_destroyB7v160006INS_9allocatorI5PointEENS_16reverse_iteratorIPS2_EES6_EEvRT_T0_T1_, symObjAddr: 0xBAF8, symBinAddr: 0x10001E194, symSize: 0x70 }
  - { offsetInCU: 0x1EC65, offset: 0x521F6, size: 0x8, addend: 0x0, symName: __ZNSt3__1neB7v160006IP5PointS2_EEbRKNS_16reverse_iteratorIT_EERKNS3_IT0_EE, symObjAddr: 0xBB9C, symBinAddr: 0x10001E238, symSize: 0x48 }
  - { offsetInCU: 0x1ECB1, offset: 0x52242, size: 0x8, addend: 0x0, symName: __ZNSt3__112__to_addressB7v160006INS_16reverse_iteratorIP5PointEEvEENS_5decayIDTclsr19__to_address_helperIT_EE6__callclsr3stdE7declvalIRKS6_EEEEE4typeES8_, symObjAddr: 0xBBE4, symBinAddr: 0x10001E280, symSize: 0x24 }
  - { offsetInCU: 0x1ED11, offset: 0x522A2, size: 0x8, addend: 0x0, symName: __ZNSt3__122__make_exception_guardB7v160006INS_6vectorINS_12basic_stringIcNS_11char_traitsIcEENS_9allocatorIcEEEENS5_IS7_EEE16__destroy_vectorEEENS_28__exception_guard_exceptionsIT_EESC_, symObjAddr: 0xBEE4, symBinAddr: 0x10001E580, symSize: 0x40 }
  - { offsetInCU: 0x1ED47, offset: 0x522D8, size: 0x8, addend: 0x0, symName: __ZNSt3__119__debug_db_insert_cB7v160006INS_6vectorINS_12basic_stringIcNS_11char_traitsIcEENS_9allocatorIcEEEENS5_IS7_EEEEEEvPT_, symObjAddr: 0xBF58, symBinAddr: 0x10001E5F4, symSize: 0x10 }
  - { offsetInCU: 0x1ED77, offset: 0x52308, size: 0x8, addend: 0x0, symName: __ZNSt3__119__allocate_at_leastB7v160006INS_9allocatorINS_12basic_stringIcNS_11char_traitsIcEENS1_IcEEEEEEEENS_19__allocation_resultINS_16allocator_traitsIT_E7pointerEEERSA_m, symObjAddr: 0xC294, symBinAddr: 0x10001E930, symSize: 0x40 }
  - { offsetInCU: 0x1EDBA, offset: 0x5234B, size: 0x8, addend: 0x0, symName: __ZNSt3__112__to_addressB7v160006INS_12basic_stringIcNS_11char_traitsIcEENS_9allocatorIcEEEEEEPT_S8_, symObjAddr: 0xC57C, symBinAddr: 0x10001EC18, symSize: 0x14 }
  - { offsetInCU: 0x1EDEF, offset: 0x52380, size: 0x8, addend: 0x0, symName: __ZNSt3__130__uninitialized_allocator_copyB7v160006INS_9allocatorINS_12basic_stringIcNS_11char_traitsIcEENS1_IcEEEEEEPS6_S8_S8_EET2_RT_T0_T1_S9_, symObjAddr: 0xC62C, symBinAddr: 0x10001ECC8, symSize: 0xF4 }
  - { offsetInCU: 0x1EE8F, offset: 0x52420, size: 0x8, addend: 0x0, symName: __ZNSt3__122__make_exception_guardB7v160006INS_29_AllocatorDestroyRangeReverseINS_9allocatorINS_12basic_stringIcNS_11char_traitsIcEENS2_IcEEEEEEPS7_EEEENS_28__exception_guard_exceptionsIT_EESC_, symObjAddr: 0xC798, symBinAddr: 0x10001EE34, symSize: 0x4C }
  - { offsetInCU: 0x1EEC6, offset: 0x52457, size: 0x8, addend: 0x0, symName: __ZNSt3__119__allocator_destroyB7v160006INS_9allocatorINS_12basic_stringIcNS_11char_traitsIcEENS1_IcEEEEEENS_16reverse_iteratorIPS6_EESA_EEvRT_T0_T1_, symObjAddr: 0xCA28, symBinAddr: 0x10001F0C4, symSize: 0x70 }
  - { offsetInCU: 0x1EF28, offset: 0x524B9, size: 0x8, addend: 0x0, symName: __ZNSt3__1neB7v160006IPNS_12basic_stringIcNS_11char_traitsIcEENS_9allocatorIcEEEES7_EEbRKNS_16reverse_iteratorIT_EERKNS8_IT0_EE, symObjAddr: 0xCACC, symBinAddr: 0x10001F168, symSize: 0x48 }
  - { offsetInCU: 0x1EF74, offset: 0x52505, size: 0x8, addend: 0x0, symName: __ZNSt3__112__to_addressB7v160006INS_16reverse_iteratorIPNS_12basic_stringIcNS_11char_traitsIcEENS_9allocatorIcEEEEEEvEENS_5decayIDTclsr19__to_address_helperIT_EE6__callclsr3stdE7declvalIRKSB_EEEEE4typeESD_, symObjAddr: 0xCB40, symBinAddr: 0x10001F1DC, symSize: 0x24 }
  - { offsetInCU: 0x1EFD5, offset: 0x52566, size: 0x8, addend: 0x0, symName: __ZNSt3__118__debug_db_erase_cB7v160006INS_6vectorINS_12basic_stringIcNS_11char_traitsIcEENS_9allocatorIcEEEENS5_IS7_EEEEEEvPT_, symObjAddr: 0xCE50, symBinAddr: 0x10001F4EC, symSize: 0x10 }
  - { offsetInCU: 0x1F005, offset: 0x52596, size: 0x8, addend: 0x0, symName: __ZNSt3__123__str_find_first_not_ofB7v160006IcmNS_11char_traitsIcEELm18446744073709551615EEET0_PKT_S3_S6_S3_S3_, symObjAddr: 0xD5C8, symBinAddr: 0x10001FB64, symSize: 0xDC }
  - { offsetInCU: 0x1F0DB, offset: 0x5266C, size: 0x8, addend: 0x0, symName: __ZNSt3__123__constexpr_char_memchrB7v160006EPKcim, symObjAddr: 0xD7C4, symBinAddr: 0x10001FCB0, symSize: 0x34 }
  - { offsetInCU: 0x1F123, offset: 0x526B4, size: 0x8, addend: 0x0, symName: __ZNSt3__122__str_find_last_not_ofB7v160006IcmNS_11char_traitsIcEELm18446744073709551615EEET0_PKT_S3_S6_S3_S3_, symObjAddr: 0xDA28, symBinAddr: 0x10001FD58, symSize: 0xDC }
  - { offsetInCU: 0x1F1DA, offset: 0x5276B, size: 0x8, addend: 0x0, symName: __ZNSt3__1eqB7v160006IPP6SectorEEbRKNS_11__wrap_iterIT_EES8_, symObjAddr: 0xDB90, symBinAddr: 0x10001FEC0, symSize: 0x48 }
  - { offsetInCU: 0x1F21D, offset: 0x527AE, size: 0x8, addend: 0x0, symName: __ZNSt3__14moveB7v160006INS_11__wrap_iterIPN8nlohmann16json_abi_v3_11_310basic_jsonINS_3mapENS_6vectorENS_12basic_stringIcNS_11char_traitsIcEENS_9allocatorIcEEEEbxydSA_NS3_14adl_serializerENS6_IhNSA_IhEEEEvEEEENS_20back_insert_iteratorINS6_ISG_NSA_ISG_EEEEEEEET0_T_SO_SN_, symObjAddr: 0xEBBC, symBinAddr: 0x10002098C, symSize: 0x60 }
  - { offsetInCU: 0x1F277, offset: 0x52808, size: 0x8, addend: 0x0, symName: __ZNSt3__113back_inserterB7v160006INS_6vectorIN8nlohmann16json_abi_v3_11_310basic_jsonINS_3mapES1_NS_12basic_stringIcNS_11char_traitsIcEENS_9allocatorIcEEEEbxydS9_NS3_14adl_serializerENS1_IhNS9_IhEEEEvEENS9_ISF_EEEEEENS_20back_insert_iteratorIT_EERSJ_, symObjAddr: 0xEC7C, symBinAddr: 0x100020A4C, symSize: 0x2C }
  - { offsetInCU: 0x1F2AC, offset: 0x5283D, size: 0x8, addend: 0x0, symName: __ZNSt3__1neB7v160006ERKNS_14__map_iteratorINS_15__tree_iteratorINS_12__value_typeINS_12basic_stringIcNS_11char_traitsIcEENS_9allocatorIcEEEEN8nlohmann16json_abi_v3_11_310basic_jsonINS_3mapENS_6vectorES8_bxydS6_NSA_14adl_serializerENSD_IhNS6_IhEEEEvEEEEPNS_11__tree_nodeISI_PvEElEEEESQ_, symObjAddr: 0xED40, symBinAddr: 0x100020B10, symSize: 0x30 }
  - { offsetInCU: 0x1FAC7, offset: 0x53058, size: 0x8, addend: 0x0, symName: __ZNSt3__119__debug_db_insert_cB7v160006INS_6vectorIN8nlohmann16json_abi_v3_11_310basic_jsonINS_3mapES1_NS_12basic_stringIcNS_11char_traitsIcEENS_9allocatorIcEEEEbxydS9_NS3_14adl_serializerENS1_IhNS9_IhEEEEvEENS9_ISF_EEEEEEvPT_, symObjAddr: 0xF21C, symBinAddr: 0x100020FEC, symSize: 0x10 }
  - { offsetInCU: 0x1FAF7, offset: 0x53088, size: 0x8, addend: 0x0, symName: __ZNSt3__119__allocate_at_leastB7v160006INS_9allocatorIN8nlohmann16json_abi_v3_11_310basic_jsonINS_3mapENS_6vectorENS_12basic_stringIcNS_11char_traitsIcEENS1_IcEEEEbxydS1_NS3_14adl_serializerENS6_IhNS1_IhEEEEvEEEEEENS_19__allocation_resultINS_16allocator_traitsIT_E7pointerEEERSJ_m, symObjAddr: 0xF7A0, symBinAddr: 0x100021570, symSize: 0x40 }
  - { offsetInCU: 0x1FB3A, offset: 0x530CB, size: 0x8, addend: 0x0, symName: __ZNSt3__142__uninitialized_allocator_move_if_noexceptB7v160006INS_9allocatorIN8nlohmann16json_abi_v3_11_310basic_jsonINS_3mapENS_6vectorENS_12basic_stringIcNS_11char_traitsIcEENS1_IcEEEEbxydS1_NS3_14adl_serializerENS6_IhNS1_IhEEEEvEEEENS_16reverse_iteratorIPSF_EESJ_SJ_EET2_RT_T0_T1_SK_, symObjAddr: 0xFA20, symBinAddr: 0x1000217F0, symSize: 0x12C }
  - { offsetInCU: 0x1FBDC, offset: 0x5316D, size: 0x8, addend: 0x0, symName: __ZNSt3__14swapB7v160006IPN8nlohmann16json_abi_v3_11_310basic_jsonINS_3mapENS_6vectorENS_12basic_stringIcNS_11char_traitsIcEENS_9allocatorIcEEEEbxydS9_NS2_14adl_serializerENS5_IhNS9_IhEEEEvEEEENS_9enable_ifIXaasr21is_move_constructibleIT_EE5valuesr18is_move_assignableISI_EE5valueEvE4typeERSI_SL_, symObjAddr: 0xFB98, symBinAddr: 0x100021968, symSize: 0x3C }
  - { offsetInCU: 0x1FC2E, offset: 0x531BF, size: 0x8, addend: 0x0, symName: __ZNSt3__125__debug_db_invalidate_allB7v160006INS_6vectorIN8nlohmann16json_abi_v3_11_310basic_jsonINS_3mapES1_NS_12basic_stringIcNS_11char_traitsIcEENS_9allocatorIcEEEEbxydS9_NS3_14adl_serializerENS1_IhNS9_IhEEEEvEENS9_ISF_EEEEEEvPT_, symObjAddr: 0xFCA8, symBinAddr: 0x100021A78, symSize: 0x10 }
  - { offsetInCU: 0x1FC5E, offset: 0x531EF, size: 0x8, addend: 0x0, symName: __ZNSt3__112__to_addressB7v160006IN8nlohmann16json_abi_v3_11_310basic_jsonINS_3mapENS_6vectorENS_12basic_stringIcNS_11char_traitsIcEENS_9allocatorIcEEEEbxydS9_NS2_14adl_serializerENS5_IhNS9_IhEEEEvEEEEPT_SH_, symObjAddr: 0xFD00, symBinAddr: 0x100021AD0, symSize: 0x14 }
  - { offsetInCU: 0x1FC93, offset: 0x53224, size: 0x8, addend: 0x0, symName: __ZNSt3__122__make_exception_guardB7v160006INS_29_AllocatorDestroyRangeReverseINS_9allocatorIN8nlohmann16json_abi_v3_11_310basic_jsonINS_3mapENS_6vectorENS_12basic_stringIcNS_11char_traitsIcEENS2_IcEEEEbxydS2_NS4_14adl_serializerENS7_IhNS2_IhEEEEvEEEENS_16reverse_iteratorIPSG_EEEEEENS_28__exception_guard_exceptionsIT_EESN_, symObjAddr: 0xFD14, symBinAddr: 0x100021AE4, symSize: 0x4C }
  - { offsetInCU: 0x1FCC9, offset: 0x5325A, size: 0x8, addend: 0x0, symName: __ZNSt3__1neB7v160006IPN8nlohmann16json_abi_v3_11_310basic_jsonINS_3mapENS_6vectorENS_12basic_stringIcNS_11char_traitsIcEENS_9allocatorIcEEEEbxydS9_NS2_14adl_serializerENS5_IhNS9_IhEEEEvEESG_EEbRKNS_16reverse_iteratorIT_EERKNSH_IT0_EE, symObjAddr: 0xFDA4, symBinAddr: 0x100021B74, symSize: 0x48 }
  - { offsetInCU: 0x1FD15, offset: 0x532A6, size: 0x8, addend: 0x0, symName: __ZNSt3__112__to_addressB7v160006INS_16reverse_iteratorIPN8nlohmann16json_abi_v3_11_310basic_jsonINS_3mapENS_6vectorENS_12basic_stringIcNS_11char_traitsIcEENS_9allocatorIcEEEEbxydSA_NS3_14adl_serializerENS6_IhNSA_IhEEEEvEEEEvEENS_5decayIDTclsr19__to_address_helperIT_EE6__callclsr3stdE7declvalIRKSK_EEEEE4typeESM_, symObjAddr: 0xFE20, symBinAddr: 0x100021BF0, symSize: 0x24 }
  - { offsetInCU: 0x1FD76, offset: 0x53307, size: 0x8, addend: 0x0, symName: __ZNSt3__119__allocator_destroyB7v160006INS_9allocatorIN8nlohmann16json_abi_v3_11_310basic_jsonINS_3mapENS_6vectorENS_12basic_stringIcNS_11char_traitsIcEENS1_IcEEEEbxydS1_NS3_14adl_serializerENS6_IhNS1_IhEEEEvEEEENS_16reverse_iteratorINSH_IPSF_EEEESK_EEvRT_T0_T1_, symObjAddr: 0x10100, symBinAddr: 0x100021ED0, symSize: 0x70 }
  - { offsetInCU: 0x1FDDA, offset: 0x5336B, size: 0x8, addend: 0x0, symName: __ZNSt3__1neB7v160006INS_16reverse_iteratorIPN8nlohmann16json_abi_v3_11_310basic_jsonINS_3mapENS_6vectorENS_12basic_stringIcNS_11char_traitsIcEENS_9allocatorIcEEEEbxydSA_NS3_14adl_serializerENS6_IhNSA_IhEEEEvEEEESI_EEbRKNS1_IT_EERKNS1_IT0_EE, symObjAddr: 0x101AC, symBinAddr: 0x100021F7C, symSize: 0x60 }
  - { offsetInCU: 0x1FE26, offset: 0x533B7, size: 0x8, addend: 0x0, symName: __ZNSt3__112__to_addressB7v160006INS_16reverse_iteratorINS1_IPN8nlohmann16json_abi_v3_11_310basic_jsonINS_3mapENS_6vectorENS_12basic_stringIcNS_11char_traitsIcEENS_9allocatorIcEEEEbxydSA_NS3_14adl_serializerENS6_IhNSA_IhEEEEvEEEEEEvEENS_5decayIDTclsr19__to_address_helperIT_EE6__callclsr3stdE7declvalIRKSL_EEEEE4typeESN_, symObjAddr: 0x10238, symBinAddr: 0x100022008, symSize: 0x24 }
  - { offsetInCU: 0x1FE86, offset: 0x53417, size: 0x8, addend: 0x0, symName: __ZNSt3__16__moveB7v160006INS_17_ClassicAlgPolicyENS_11__wrap_iterIPN8nlohmann16json_abi_v3_11_310basic_jsonINS_3mapENS_6vectorENS_12basic_stringIcNS_11char_traitsIcEENS_9allocatorIcEEEEbxydSB_NS4_14adl_serializerENS7_IhNSB_IhEEEEvEEEESJ_NS_20back_insert_iteratorINS7_ISH_NSB_ISH_EEEEEEEENS_4pairIT0_T2_EESP_T1_SQ_, symObjAddr: 0x10660, symBinAddr: 0x100022430, symSize: 0x5C }
  - { offsetInCU: 0x1FEF2, offset: 0x53483, size: 0x8, addend: 0x0, symName: __ZNSt3__123__dispatch_copy_or_moveB7v160006INS_17_ClassicAlgPolicyENS_11__move_loopIS1_EENS_14__move_trivialENS_11__wrap_iterIPN8nlohmann16json_abi_v3_11_310basic_jsonINS_3mapENS_6vectorENS_12basic_stringIcNS_11char_traitsIcEENS_9allocatorIcEEEEbxydSE_NS7_14adl_serializerENSA_IhNSE_IhEEEEvEEEESM_NS_20back_insert_iteratorINSA_ISK_NSE_ISK_EEEEEEEENS_4pairIT2_T4_EESS_T3_ST_, symObjAddr: 0x106BC, symBinAddr: 0x10002248C, symSize: 0x5C }
  - { offsetInCU: 0x1FF70, offset: 0x53501, size: 0x8, addend: 0x0, symName: __ZNSt3__121__unwrap_and_dispatchB7v160006INS_10__overloadINS_11__move_loopINS_17_ClassicAlgPolicyEEENS_14__move_trivialEEENS_11__wrap_iterIPN8nlohmann16json_abi_v3_11_310basic_jsonINS_3mapENS_6vectorENS_12basic_stringIcNS_11char_traitsIcEENS_9allocatorIcEEEEbxydSG_NS9_14adl_serializerENSC_IhNSG_IhEEEEvEEEESO_NS_20back_insert_iteratorINSC_ISM_NSG_ISM_EEEEEELi0EEENS_4pairIT0_T2_EESU_T1_SV_, symObjAddr: 0x10718, symBinAddr: 0x1000224E8, symSize: 0xE8 }
  - { offsetInCU: 0x20000, offset: 0x53591, size: 0x8, addend: 0x0, symName: __ZNSt3__114__unwrap_rangeB7v160006INS_11__wrap_iterIPN8nlohmann16json_abi_v3_11_310basic_jsonINS_3mapENS_6vectorENS_12basic_stringIcNS_11char_traitsIcEENS_9allocatorIcEEEEbxydSA_NS3_14adl_serializerENS6_IhNSA_IhEEEEvEEEESH_EENS_4pairIT0_SK_EET_SM_, symObjAddr: 0x10800, symBinAddr: 0x1000225D0, symSize: 0x70 }
  - { offsetInCU: 0x202AD, offset: 0x5383E, size: 0x8, addend: 0x0, symName: __ZNSt3__113__unwrap_iterB7v160006INS_20back_insert_iteratorINS_6vectorIN8nlohmann16json_abi_v3_11_310basic_jsonINS_3mapES2_NS_12basic_stringIcNS_11char_traitsIcEENS_9allocatorIcEEEEbxydSA_NS4_14adl_serializerENS2_IhNSA_IhEEEEvEENSA_ISG_EEEEEENS_18__unwrap_iter_implISJ_Lb0EEELi0EEEDTclsrT0_8__unwrapclsr3stdE7declvalIT_EEEESN_, symObjAddr: 0x10908, symBinAddr: 0x1000226D8, symSize: 0x34 }
  - { offsetInCU: 0x202F2, offset: 0x53883, size: 0x8, addend: 0x0, symName: __ZNSt3__19make_pairB7v160006INS_11__wrap_iterIPN8nlohmann16json_abi_v3_11_310basic_jsonINS_3mapENS_6vectorENS_12basic_stringIcNS_11char_traitsIcEENS_9allocatorIcEEEEbxydSA_NS3_14adl_serializerENS6_IhNSA_IhEEEEvEEEENS_20back_insert_iteratorINS6_ISG_NSA_ISG_EEEEEEEENS_4pairINS_18__unwrap_ref_decayIT_E4typeENSO_IT0_E4typeEEEOSP_OSS_, symObjAddr: 0x1093C, symBinAddr: 0x10002270C, symSize: 0x38 }
  - { offsetInCU: 0x20341, offset: 0x538D2, size: 0x8, addend: 0x0, symName: __ZNSt3__114__rewrap_rangeB7v160006INS_11__wrap_iterIPN8nlohmann16json_abi_v3_11_310basic_jsonINS_3mapENS_6vectorENS_12basic_stringIcNS_11char_traitsIcEENS_9allocatorIcEEEEbxydSA_NS3_14adl_serializerENS6_IhNSA_IhEEEEvEEEESH_EET_SJ_T0_, symObjAddr: 0x10974, symBinAddr: 0x100022744, symSize: 0x3C }
  - { offsetInCU: 0x2038D, offset: 0x5391E, size: 0x8, addend: 0x0, symName: __ZNSt3__113__rewrap_iterB7v160006INS_20back_insert_iteratorINS_6vectorIN8nlohmann16json_abi_v3_11_310basic_jsonINS_3mapES2_NS_12basic_stringIcNS_11char_traitsIcEENS_9allocatorIcEEEEbxydSA_NS4_14adl_serializerENS2_IhNSA_IhEEEEvEENSA_ISG_EEEEEESJ_NS_18__unwrap_iter_implISJ_Lb0EEEEET_SM_T0_, symObjAddr: 0x109B0, symBinAddr: 0x100022780, symSize: 0x54 }
  - { offsetInCU: 0x203E2, offset: 0x53973, size: 0x8, addend: 0x0, symName: __ZNSt3__19make_pairB7v160006IPN8nlohmann16json_abi_v3_11_310basic_jsonINS_3mapENS_6vectorENS_12basic_stringIcNS_11char_traitsIcEENS_9allocatorIcEEEEbxydS9_NS2_14adl_serializerENS5_IhNS9_IhEEEEvEESG_EENS_4pairINS_18__unwrap_ref_decayIT_E4typeENSI_IT0_E4typeEEEOSJ_OSM_, symObjAddr: 0x10A04, symBinAddr: 0x1000227D4, symSize: 0x38 }
  - { offsetInCU: 0x20431, offset: 0x539C2, size: 0x8, addend: 0x0, symName: __ZNSt3__113__unwrap_iterB7v160006INS_11__wrap_iterIPN8nlohmann16json_abi_v3_11_310basic_jsonINS_3mapENS_6vectorENS_12basic_stringIcNS_11char_traitsIcEENS_9allocatorIcEEEEbxydSA_NS3_14adl_serializerENS6_IhNSA_IhEEEEvEEEENS_18__unwrap_iter_implISI_Lb1EEELi0EEEDTclsrT0_8__unwrapclsr3stdE7declvalIT_EEEESM_, symObjAddr: 0x10A3C, symBinAddr: 0x10002280C, symSize: 0x2C }
  - { offsetInCU: 0x2059E, offset: 0x53B2F, size: 0x8, addend: 0x0, symName: __ZNSt3__112__to_addressB7v160006INS_11__wrap_iterIPN8nlohmann16json_abi_v3_11_310basic_jsonINS_3mapENS_6vectorENS_12basic_stringIcNS_11char_traitsIcEENS_9allocatorIcEEEEbxydSA_NS3_14adl_serializerENS6_IhNSA_IhEEEEvEEEEvEENS_5decayIDTclsr19__to_address_helperIT_EE6__callclsr3stdE7declvalIRKSK_EEEEE4typeESM_, symObjAddr: 0x10B00, symBinAddr: 0x1000228D0, symSize: 0x24 }
  - { offsetInCU: 0x207B4, offset: 0x53D45, size: 0x8, addend: 0x0, symName: __ZNSt3__19make_pairB7v160006IPN8nlohmann16json_abi_v3_11_310basic_jsonINS_3mapENS_6vectorENS_12basic_stringIcNS_11char_traitsIcEENS_9allocatorIcEEEEbxydS9_NS2_14adl_serializerENS5_IhNS9_IhEEEEvEENS_20back_insert_iteratorINS5_ISF_NS9_ISF_EEEEEEEENS_4pairINS_18__unwrap_ref_decayIT_E4typeENSM_IT0_E4typeEEEOSN_OSQ_, symObjAddr: 0x10C20, symBinAddr: 0x1000229F0, symSize: 0x38 }
  - { offsetInCU: 0x20920, offset: 0x53EB1, size: 0x8, addend: 0x0, symName: __ZNSt3__113__rewrap_iterB7v160006INS_11__wrap_iterIPN8nlohmann16json_abi_v3_11_310basic_jsonINS_3mapENS_6vectorENS_12basic_stringIcNS_11char_traitsIcEENS_9allocatorIcEEEEbxydSA_NS3_14adl_serializerENS6_IhNSA_IhEEEEvEEEESH_NS_18__unwrap_iter_implISI_Lb1EEEEET_SL_T0_, symObjAddr: 0x10D58, symBinAddr: 0x100022B28, symSize: 0x4C }
  - { offsetInCU: 0x209A8, offset: 0x53F39, size: 0x8, addend: 0x0, symName: __ZNSt3__1neB7v160006ERKNS_15__tree_iteratorINS_12__value_typeINS_12basic_stringIcNS_11char_traitsIcEENS_9allocatorIcEEEEN8nlohmann16json_abi_v3_11_310basic_jsonINS_3mapENS_6vectorES7_bxydS5_NS9_14adl_serializerENSC_IhNS5_IhEEEEvEEEEPNS_11__tree_nodeISH_PvEElEESO_, symObjAddr: 0x11168, symBinAddr: 0x100022F24, symSize: 0x34 }
  - { offsetInCU: 0x209E6, offset: 0x53F77, size: 0x8, addend: 0x0, symName: __ZNSt3__1eqB7v160006ERKNS_15__tree_iteratorINS_12__value_typeINS_12basic_stringIcNS_11char_traitsIcEENS_9allocatorIcEEEEN8nlohmann16json_abi_v3_11_310basic_jsonINS_3mapENS_6vectorES7_bxydS5_NS9_14adl_serializerENSC_IhNS5_IhEEEEvEEEEPNS_11__tree_nodeISH_PvEElEESO_, symObjAddr: 0x1119C, symBinAddr: 0x100022F58, symSize: 0x30 }
  - { offsetInCU: 0x20A55, offset: 0x53FE6, size: 0x8, addend: 0x0, symName: __ZNSt3__116__tree_next_iterB7v160006IPNS_15__tree_end_nodeIPNS_16__tree_node_baseIPvEEEES5_EET_T0_, symObjAddr: 0x115D8, symBinAddr: 0x100023314, symSize: 0x90 }
  - { offsetInCU: 0x20A93, offset: 0x54024, size: 0x8, addend: 0x0, symName: __ZNSt3__110__tree_minB7v160006IPNS_16__tree_node_baseIPvEEEET_S5_, symObjAddr: 0x11668, symBinAddr: 0x1000233A4, symSize: 0x40 }
  - { offsetInCU: 0x20AC8, offset: 0x54059, size: 0x8, addend: 0x0, symName: __ZNSt3__120__tree_is_left_childB7v160006IPNS_16__tree_node_baseIPvEEEEbT_, symObjAddr: 0x116A8, symBinAddr: 0x1000233E4, symSize: 0x2C }
  - { offsetInCU: 0x20AFE, offset: 0x5408F, size: 0x8, addend: 0x0, symName: __ZNSt3__118__debug_db_erase_cB7v160006INS_6vectorIN8nlohmann16json_abi_v3_11_310basic_jsonINS_3mapES1_NS_12basic_stringIcNS_11char_traitsIcEENS_9allocatorIcEEEEbxydS9_NS3_14adl_serializerENS1_IhNS9_IhEEEEvEENS9_ISF_EEEEEEvPT_, symObjAddr: 0x11E20, symBinAddr: 0x100023B48, symSize: 0x10 }
  - { offsetInCU: 0x20B2F, offset: 0x540C0, size: 0x8, addend: 0x0, symName: __ZNSt3__118__debug_db_erase_cB7v160006INS_6vectorIhNS_9allocatorIhEEEEEEvPT_, symObjAddr: 0x12330, symBinAddr: 0x100024058, symSize: 0x10 }
  - { offsetInCU: 0x20B5F, offset: 0x540F0, size: 0x8, addend: 0x0, symName: __ZNSt3__112__to_addressB7v160006IhEEPT_S2_, symObjAddr: 0x12464, symBinAddr: 0x10002418C, symSize: 0x14 }
  - { offsetInCU: 0x20F94, offset: 0x54525, size: 0x8, addend: 0x0, symName: __ZNSt3__1neB7v160006INS_3mapINS_12basic_stringIcNS_11char_traitsIcEENS_9allocatorIcEEEEN8nlohmann16json_abi_v3_11_310basic_jsonIS1_NS_6vectorES7_bxydS5_NS9_14adl_serializerENSB_IhNS5_IhEEEEvEENS_4lessIS7_EENS5_INS_4pairIKS7_SF_EEEEEEZNSF_6createISM_JEEEPT_DpOT0_EUlPSM_E_EEbRKNS_10unique_ptrISO_T0_EEDn, symObjAddr: 0x130D8, symBinAddr: 0x100024E00, symSize: 0x2C }
  - { offsetInCU: 0x213DF, offset: 0x54970, size: 0x8, addend: 0x0, symName: __ZNSt3__1neB7v160006INS_6vectorIN8nlohmann16json_abi_v3_11_310basic_jsonINS_3mapES1_NS_12basic_stringIcNS_11char_traitsIcEENS_9allocatorIcEEEEbxydS9_NS3_14adl_serializerENS1_IhNS9_IhEEEEvEENS9_ISF_EEEEZNSF_6createISH_JEEEPT_DpOT0_EUlPSH_E_EEbRKNS_10unique_ptrISJ_T0_EEDn, symObjAddr: 0x1391C, symBinAddr: 0x100025620, symSize: 0x2C }
  - { offsetInCU: 0x21776, offset: 0x54D07, size: 0x8, addend: 0x0, symName: __ZNSt3__1neB7v160006INS_12basic_stringIcNS_11char_traitsIcEENS_9allocatorIcEEEEZN8nlohmann16json_abi_v3_11_310basic_jsonINS_3mapENS_6vectorES6_bxydS4_NS8_14adl_serializerENSB_IhNS4_IhEEEEvE6createIS6_JRA1_KcEEEPT_DpOT0_EUlPS6_E_EEbRKNS_10unique_ptrISK_T0_EEDn, symObjAddr: 0x13E14, symBinAddr: 0x100025B18, symSize: 0x2C }
  - { offsetInCU: 0x21BC1, offset: 0x55152, size: 0x8, addend: 0x0, symName: __ZNSt3__1neB7v160006IN8nlohmann16json_abi_v3_11_327byte_container_with_subtypeINS_6vectorIhNS_9allocatorIhEEEEEEZNS2_10basic_jsonINS_3mapES4_NS_12basic_stringIcNS_11char_traitsIcEENS5_IcEEEEbxydS5_NS2_14adl_serializerES7_vE6createIS8_JEEEPT_DpOT0_EUlPS8_E_EEbRKNS_10unique_ptrISJ_T0_EEDn, symObjAddr: 0x1424C, symBinAddr: 0x100025F50, symSize: 0x2C }
  - { offsetInCU: 0x21C0D, offset: 0x5519E, size: 0x8, addend: 0x0, symName: __ZNSt3__119__debug_db_insert_cB7v160006INS_6vectorIhNS_9allocatorIhEEEEEEvPT_, symObjAddr: 0x145B0, symBinAddr: 0x1000262B4, symSize: 0x10 }
  - { offsetInCU: 0x21C61, offset: 0x551F2, size: 0x8, addend: 0x0, symName: __ZNSt3__1ltB7v160006IcNS_11char_traitsIcEENS_9allocatorIcEEEEbRKNS_12basic_stringIT_T0_T1_EESB_, symObjAddr: 0x15EC8, symBinAddr: 0x100027B5C, symSize: 0x38 }
  - { offsetInCU: 0x21CFC, offset: 0x5528D, size: 0x8, addend: 0x0, symName: __ZNSt3__127__tree_balance_after_insertB7v160006IPNS_16__tree_node_baseIPvEEEEvT_S5_, symObjAddr: 0x1671C, symBinAddr: 0x100028248, symSize: 0x27C }
  - { offsetInCU: 0x21D7C, offset: 0x5530D, size: 0x8, addend: 0x0, symName: __ZNSt3__118__tree_left_rotateB7v160006IPNS_16__tree_node_baseIPvEEEEvT_, symObjAddr: 0x16998, symBinAddr: 0x1000284C4, symSize: 0xD8 }
  - { offsetInCU: 0x21DBF, offset: 0x55350, size: 0x8, addend: 0x0, symName: __ZNSt3__119__tree_right_rotateB7v160006IPNS_16__tree_node_baseIPvEEEEvT_, symObjAddr: 0x16A70, symBinAddr: 0x10002859C, symSize: 0xCC }
  - { offsetInCU: 0x21E34, offset: 0x553C5, size: 0x8, addend: 0x0, symName: __ZNSt3__14swapB7v160006IN8nlohmann16json_abi_v3_11_36detail7value_tEEENS_9enable_ifIXaasr21is_move_constructibleIT_EE5valuesr18is_move_assignableIS6_EE5valueEvE4typeERS6_S9_, symObjAddr: 0x1715C, symBinAddr: 0x100028C88, symSize: 0x3C }
  - { offsetInCU: 0x21E85, offset: 0x55416, size: 0x8, addend: 0x0, symName: __ZNSt3__14swapB7v160006IN8nlohmann16json_abi_v3_11_310basic_jsonINS_3mapENS_6vectorENS_12basic_stringIcNS_11char_traitsIcEENS_9allocatorIcEEEEbxydS9_NS2_14adl_serializerENS5_IhNS9_IhEEEEvE10json_valueEEENS_9enable_ifIXaasr21is_move_constructibleIT_EE5valuesr18is_move_assignableISI_EE5valueEvE4typeERSI_SL_, symObjAddr: 0x17198, symBinAddr: 0x100028CC4, symSize: 0x3C }
  - { offsetInCU: 0x22217, offset: 0x557A8, size: 0x8, addend: 0x0, symName: __ZNSt3__1neB7v160006INS_12basic_stringIcNS_11char_traitsIcEENS_9allocatorIcEEEEZN8nlohmann16json_abi_v3_11_310basic_jsonINS_3mapENS_6vectorES6_bxydS4_NS8_14adl_serializerENSB_IhNS4_IhEEEEvE6createIS6_JRKS6_EEEPT_DpOT0_EUlPS6_E_EEbRKNS_10unique_ptrISJ_T0_EEDn, symObjAddr: 0x17700, symBinAddr: 0x10002922C, symSize: 0x2C }
  - { offsetInCU: 0x22262, offset: 0x557F3, size: 0x8, addend: 0x0, symName: __ZNSt3__111make_sharedB7v160006IN8nlohmann16json_abi_v3_11_36detail21output_string_adapterIcNS_12basic_stringIcNS_11char_traitsIcEENS_9allocatorIcEEEEEEJRSA_EvEENS_10shared_ptrIT_EEDpOT0_, symObjAddr: 0x191DC, symBinAddr: 0x10002AD08, symSize: 0x40 }
  - { offsetInCU: 0x22490, offset: 0x55A21, size: 0x8, addend: 0x0, symName: __ZNSt3__115allocate_sharedB7v160006IN8nlohmann16json_abi_v3_11_36detail21output_string_adapterIcNS_12basic_stringIcNS_11char_traitsIcEENS_9allocatorIcEEEEEENS8_ISB_EEJRSA_EvEENS_10shared_ptrIT_EERKT0_DpOT1_, symObjAddr: 0x1927C, symBinAddr: 0x10002ADA8, symSize: 0x98 }
  - { offsetInCU: 0x227D3, offset: 0x55D64, size: 0x8, addend: 0x0, symName: __ZNSt3__134__libcpp_atomic_refcount_decrementB7v160006IlEET_RS1_, symObjAddr: 0x19EC8, symBinAddr: 0x10002B9F4, symSize: 0x30 }
  - { offsetInCU: 0x22808, offset: 0x55D99, size: 0x8, addend: 0x0, symName: __ZNSt3__134__libcpp_atomic_refcount_incrementB7v160006IlEET_RS1_, symObjAddr: 0x19FE8, symBinAddr: 0x10002BB14, symSize: 0x30 }
  - { offsetInCU: 0x2283D, offset: 0x55DCE, size: 0x8, addend: 0x0, symName: __ZNSt3__1neB7v160006ERKNS_20__map_const_iteratorINS_21__tree_const_iteratorINS_12__value_typeINS_12basic_stringIcNS_11char_traitsIcEENS_9allocatorIcEEEEN8nlohmann16json_abi_v3_11_310basic_jsonINS_3mapENS_6vectorES8_bxydS6_NSA_14adl_serializerENSD_IhNS6_IhEEEEvEEEEPNS_11__tree_nodeISI_PvEElEEEESQ_, symObjAddr: 0x1B054, symBinAddr: 0x10002CAD8, symSize: 0x30 }
  - { offsetInCU: 0x2287A, offset: 0x55E0B, size: 0x8, addend: 0x0, symName: __ZNSt3__1eqB7v160006ERKNS_20__map_const_iteratorINS_21__tree_const_iteratorINS_12__value_typeINS_12basic_stringIcNS_11char_traitsIcEENS_9allocatorIcEEEEN8nlohmann16json_abi_v3_11_310basic_jsonINS_3mapENS_6vectorES8_bxydS6_NSA_14adl_serializerENSD_IhNS6_IhEEEEvEEEEPNS_11__tree_nodeISI_PvEElEEEESQ_, symObjAddr: 0x1B0B0, symBinAddr: 0x10002CB34, symSize: 0x30 }
  - { offsetInCU: 0x228B7, offset: 0x55E48, size: 0x8, addend: 0x0, symName: __ZNSt3__14nextB7v160006INS_20__map_const_iteratorINS_21__tree_const_iteratorINS_12__value_typeINS_12basic_stringIcNS_11char_traitsIcEENS_9allocatorIcEEEEN8nlohmann16json_abi_v3_11_310basic_jsonINS_3mapENS_6vectorES9_bxydS7_NSB_14adl_serializerENSE_IhNS7_IhEEEEvEEEEPNS_11__tree_nodeISJ_PvEElEEEEEENS_9enable_ifIXsr25__is_cpp17_input_iteratorIT_EE5valueESR_E4typeESR_NS_15iterator_traitsISR_E15difference_typeE, symObjAddr: 0x1B0E0, symBinAddr: 0x10002CB64, symSize: 0x50 }
  - { offsetInCU: 0x228FA, offset: 0x55E8B, size: 0x8, addend: 0x0, symName: __ZNSt3__1neB7v160006IPKN8nlohmann16json_abi_v3_11_310basic_jsonINS_3mapENS_6vectorENS_12basic_stringIcNS_11char_traitsIcEENS_9allocatorIcEEEEbxydS9_NS2_14adl_serializerENS5_IhNS9_IhEEEEvEEEEbRKNS_11__wrap_iterIT_EESM_, symObjAddr: 0x1B15C, symBinAddr: 0x10002CBE0, symSize: 0x34 }
  - { offsetInCU: 0x2293D, offset: 0x55ECE, size: 0x8, addend: 0x0, symName: __ZNSt3__1neB7v160006IPKhEEbRKNS_11__wrap_iterIT_EES7_, symObjAddr: 0x1B284, symBinAddr: 0x10002CD08, symSize: 0x34 }
  - { offsetInCU: 0x229E6, offset: 0x55F77, size: 0x8, addend: 0x0, symName: __ZNSt3__1neB7v160006ERKNS_21__tree_const_iteratorINS_12__value_typeINS_12basic_stringIcNS_11char_traitsIcEENS_9allocatorIcEEEEN8nlohmann16json_abi_v3_11_310basic_jsonINS_3mapENS_6vectorES7_bxydS5_NS9_14adl_serializerENSC_IhNS5_IhEEEEvEEEEPNS_11__tree_nodeISH_PvEElEESO_, symObjAddr: 0x1C758, symBinAddr: 0x10002E1DC, symSize: 0x34 }
  - { offsetInCU: 0x22A24, offset: 0x55FB5, size: 0x8, addend: 0x0, symName: __ZNSt3__1eqB7v160006ERKNS_21__tree_const_iteratorINS_12__value_typeINS_12basic_stringIcNS_11char_traitsIcEENS_9allocatorIcEEEEN8nlohmann16json_abi_v3_11_310basic_jsonINS_3mapENS_6vectorES7_bxydS5_NS9_14adl_serializerENSC_IhNS5_IhEEEEvEEEEPNS_11__tree_nodeISH_PvEElEESO_, symObjAddr: 0x1C78C, symBinAddr: 0x10002E210, symSize: 0x30 }
  - { offsetInCU: 0x22A60, offset: 0x55FF1, size: 0x8, addend: 0x0, symName: __ZNSt3__121__convert_to_integralB7v160006El, symObjAddr: 0x1C878, symBinAddr: 0x10002E2FC, symSize: 0x14 }
  - { offsetInCU: 0x22A8C, offset: 0x5601D, size: 0x8, addend: 0x0, symName: __ZNSt3__19__advanceB7v160006INS_20__map_const_iteratorINS_21__tree_const_iteratorINS_12__value_typeINS_12basic_stringIcNS_11char_traitsIcEENS_9allocatorIcEEEEN8nlohmann16json_abi_v3_11_310basic_jsonINS_3mapENS_6vectorES9_bxydS7_NSB_14adl_serializerENSE_IhNS7_IhEEEEvEEEEPNS_11__tree_nodeISJ_PvEElEEEEEEvRT_NS_15iterator_traitsISQ_E15difference_typeENS_26bidirectional_iterator_tagE, symObjAddr: 0x1C88C, symBinAddr: 0x10002E310, symSize: 0xA4 }
  - { offsetInCU: 0x22AD6, offset: 0x56067, size: 0x8, addend: 0x0, symName: __ZNSt3__116__tree_prev_iterB7v160006IPNS_16__tree_node_baseIPvEEPNS_15__tree_end_nodeIS4_EEEET_T0_, symObjAddr: 0x1C994, symBinAddr: 0x10002E418, symSize: 0x88 }
  - { offsetInCU: 0x22B22, offset: 0x560B3, size: 0x8, addend: 0x0, symName: __ZNSt3__110__tree_maxB7v160006IPNS_16__tree_node_baseIPvEEEET_S5_, symObjAddr: 0x1CA1C, symBinAddr: 0x10002E4A0, symSize: 0x40 }
  - { offsetInCU: 0x22B57, offset: 0x560E8, size: 0x8, addend: 0x0, symName: __ZNSt3__1eqB7v160006IPKN8nlohmann16json_abi_v3_11_310basic_jsonINS_3mapENS_6vectorENS_12basic_stringIcNS_11char_traitsIcEENS_9allocatorIcEEEEbxydS9_NS2_14adl_serializerENS5_IhNS9_IhEEEEvEEEEbRKNS_11__wrap_iterIT_EESM_, symObjAddr: 0x1CB20, symBinAddr: 0x10002E5A4, symSize: 0x48 }
  - { offsetInCU: 0x22B9A, offset: 0x5612B, size: 0x8, addend: 0x0, symName: __ZNSt3__1eqB7v160006IPKhEEbRKNS_11__wrap_iterIT_EES7_, symObjAddr: 0x1CCD8, symBinAddr: 0x10002E75C, symSize: 0x48 }
  - { offsetInCU: 0x23019, offset: 0x565AA, size: 0x8, addend: 0x0, symName: __ZNSt3__119__debug_db_insert_cB7v160006INS_6vectorIcNS_9allocatorIcEEEEEEvPT_, symObjAddr: 0x20DA8, symBinAddr: 0x100032824, symSize: 0x10 }
  - { offsetInCU: 0x235CF, offset: 0x56B60, size: 0x8, addend: 0x0, symName: __ZNSt3__1neB7v160006IPKcEEbRKNS_11__wrap_iterIT_EES7_, symObjAddr: 0x23150, symBinAddr: 0x100034BCC, symSize: 0x34 }
  - { offsetInCU: 0x23612, offset: 0x56BA3, size: 0x8, addend: 0x0, symName: __ZNSt3__1eqB7v160006IPKcEEbRKNS_11__wrap_iterIT_EES7_, symObjAddr: 0x23208, symBinAddr: 0x100034C70, symSize: 0x48 }
  - { offsetInCU: 0x23655, offset: 0x56BE6, size: 0x8, addend: 0x0, symName: __ZNSt3__121__convert_to_integralB7v160006Ei, symObjAddr: 0x23268, symBinAddr: 0x100034CD0, symSize: 0x14 }
  - { offsetInCU: 0x23681, offset: 0x56C12, size: 0x8, addend: 0x0, symName: __ZNSt3__19__advanceB7v160006INS_11__wrap_iterIPKcEEEEvRT_NS_15iterator_traitsIS5_E15difference_typeENS_26random_access_iterator_tagE, symObjAddr: 0x2327C, symBinAddr: 0x100034CE4, symSize: 0x2C }
  - { offsetInCU: 0x236CB, offset: 0x56C5C, size: 0x8, addend: 0x0, symName: __ZNSt3__112__to_addressB7v160006IcEEPT_S2_, symObjAddr: 0x23530, symBinAddr: 0x100034F98, symSize: 0x14 }
  - { offsetInCU: 0x23700, offset: 0x56C91, size: 0x8, addend: 0x0, symName: __ZNSt3__119__allocate_at_leastB7v160006INS_9allocatorIcEEEENS_19__allocation_resultINS_16allocator_traitsIT_E7pointerEEERS5_m, symObjAddr: 0x23B38, symBinAddr: 0x100035554, symSize: 0x40 }
  - { offsetInCU: 0x23743, offset: 0x56CD4, size: 0x8, addend: 0x0, symName: __ZNSt3__142__uninitialized_allocator_move_if_noexceptB7v160006INS_9allocatorIcEENS_16reverse_iteratorIPcEES5_cvEET1_RT_T0_S9_S6_, symObjAddr: 0x23DA4, symBinAddr: 0x1000357C0, symSize: 0x78 }
  - { offsetInCU: 0x237C0, offset: 0x56D51, size: 0x8, addend: 0x0, symName: __ZNSt3__14swapB7v160006IPcEENS_9enable_ifIXaasr21is_move_constructibleIT_EE5valuesr18is_move_assignableIS3_EE5valueEvE4typeERS3_S6_, symObjAddr: 0x23E68, symBinAddr: 0x100035884, symSize: 0x3C }
  - { offsetInCU: 0x23812, offset: 0x56DA3, size: 0x8, addend: 0x0, symName: __ZNSt3__125__debug_db_invalidate_allB7v160006INS_6vectorIcNS_9allocatorIcEEEEEEvPT_, symObjAddr: 0x23F50, symBinAddr: 0x10003596C, symSize: 0x10 }
  - { offsetInCU: 0x23842, offset: 0x56DD3, size: 0x8, addend: 0x0, symName: __ZNSt3__14moveB7v160006INS_16reverse_iteratorIPcEES3_EET0_T_S5_S4_, symObjAddr: 0x23FA8, symBinAddr: 0x1000359C4, symSize: 0x78 }
  - { offsetInCU: 0x2389C, offset: 0x56E2D, size: 0x8, addend: 0x0, symName: __ZNSt3__16__moveB7v160006INS_17_ClassicAlgPolicyENS_16reverse_iteratorIPcEES4_S4_EENS_4pairIT0_T2_EES6_T1_S7_, symObjAddr: 0x24020, symBinAddr: 0x100035A3C, symSize: 0x64 }
  - { offsetInCU: 0x23908, offset: 0x56E99, size: 0x8, addend: 0x0, symName: __ZNSt3__123__dispatch_copy_or_moveB7v160006INS_17_ClassicAlgPolicyENS_11__move_loopIS1_EENS_14__move_trivialENS_16reverse_iteratorIPcEES7_S7_EENS_4pairIT2_T4_EES9_T3_SA_, symObjAddr: 0x24084, symBinAddr: 0x100035AA0, symSize: 0x64 }
  - { offsetInCU: 0x23986, offset: 0x56F17, size: 0x8, addend: 0x0, symName: __ZNSt3__121__unwrap_and_dispatchB7v160006INS_10__overloadINS_11__move_loopINS_17_ClassicAlgPolicyEEENS_14__move_trivialEEENS_16reverse_iteratorIPcEES9_S9_Li0EEENS_4pairIT0_T2_EESB_T1_SC_, symObjAddr: 0x240E8, symBinAddr: 0x100035B04, symSize: 0x12C }
  - { offsetInCU: 0x23A17, offset: 0x56FA8, size: 0x8, addend: 0x0, symName: __ZNSt3__114__unwrap_rangeB7v160006INS_16reverse_iteratorIPcEES3_EENS_4pairIT0_S5_EET_S7_, symObjAddr: 0x24214, symBinAddr: 0x100035C30, symSize: 0x84 }
  - { offsetInCU: 0x23B37, offset: 0x570C8, size: 0x8, addend: 0x0, symName: __ZNSt3__113__unwrap_iterB7v160006INS_16reverse_iteratorIPcEENS_18__unwrap_iter_implIS3_Lb0EEELi0EEEDTclsrT0_8__unwrapclsr3stdE7declvalIT_EEEES7_, symObjAddr: 0x24338, symBinAddr: 0x100035D54, symSize: 0x44 }
  - { offsetInCU: 0x23B7C, offset: 0x5710D, size: 0x8, addend: 0x0, symName: __ZNSt3__19make_pairB7v160006INS_16reverse_iteratorIPcEES3_EENS_4pairINS_18__unwrap_ref_decayIT_E4typeENS5_IT0_E4typeEEEOS6_OS9_, symObjAddr: 0x2437C, symBinAddr: 0x100035D98, symSize: 0x38 }
  - { offsetInCU: 0x23BCB, offset: 0x5715C, size: 0x8, addend: 0x0, symName: __ZNSt3__114__rewrap_rangeB7v160006INS_16reverse_iteratorIPcEES3_EET_S4_T0_, symObjAddr: 0x243B4, symBinAddr: 0x100035DD0, symSize: 0x5C }
  - { offsetInCU: 0x23C17, offset: 0x571A8, size: 0x8, addend: 0x0, symName: __ZNSt3__113__rewrap_iterB7v160006INS_16reverse_iteratorIPcEES3_NS_18__unwrap_iter_implIS3_Lb0EEEEET_S6_T0_, symObjAddr: 0x24410, symBinAddr: 0x100035E2C, symSize: 0x74 }
  - { offsetInCU: 0x23C6C, offset: 0x571FD, size: 0x8, addend: 0x0, symName: __ZNSt3__1neB7v160006IPcS1_EEbRKNS_16reverse_iteratorIT_EERKNS2_IT0_EE, symObjAddr: 0x24484, symBinAddr: 0x100035EA0, symSize: 0x48 }
  - { offsetInCU: 0x23D26, offset: 0x572B7, size: 0x8, addend: 0x0, symName: __ZNSt3__118__debug_db_erase_cB7v160006INS_6vectorIcNS_9allocatorIcEEEEEEvPT_, symObjAddr: 0x25308, symBinAddr: 0x100036C04, symSize: 0x10 }
  - { offsetInCU: 0x23D56, offset: 0x572E7, size: 0x8, addend: 0x0, symName: __ZNSt3__15beginB7v160006INS_12basic_stringIcNS_11char_traitsIcEENS_9allocatorIcEEEEEEDTcldtfp_5beginEERKT_, symObjAddr: 0x253B4, symBinAddr: 0x100036CB0, symSize: 0x2C }
  - { offsetInCU: 0x23D8B, offset: 0x5731C, size: 0x8, addend: 0x0, symName: __ZNSt3__13endB7v160006INS_12basic_stringIcNS_11char_traitsIcEENS_9allocatorIcEEEEEEDTcldtfp_3endEERKT_, symObjAddr: 0x253E0, symBinAddr: 0x100036CDC, symSize: 0x2C }
  - { offsetInCU: 0x23DC1, offset: 0x57352, size: 0x8, addend: 0x0, symName: __ZNSt3__119__debug_db_insert_cB7v160006INS_6vectorIPN8nlohmann16json_abi_v3_11_310basic_jsonINS_3mapES1_NS_12basic_stringIcNS_11char_traitsIcEENS_9allocatorIcEEEEbxydS9_NS3_14adl_serializerENS1_IhNS9_IhEEEEvEENS9_ISG_EEEEEEvPT_, symObjAddr: 0x29088, symBinAddr: 0x10003A984, symSize: 0x10 }
  - { offsetInCU: 0x23DF2, offset: 0x57383, size: 0x8, addend: 0x0, symName: __ZNSt3__125__debug_db_invalidate_allB7v160006INS_6vectorIbNS_9allocatorIbEEEEEEvPT_, symObjAddr: 0x29980, symBinAddr: 0x10003B27C, symSize: 0x10 }
  - { offsetInCU: 0x23E22, offset: 0x573B3, size: 0x8, addend: 0x0, symName: __ZNSt3__119__allocate_at_leastB7v160006INS_9allocatorImEEEENS_19__allocation_resultINS_16allocator_traitsIT_E7pointerEEERS5_m, symObjAddr: 0x29C24, symBinAddr: 0x10003B504, symSize: 0x40 }
  - { offsetInCU: 0x23E65, offset: 0x573F6, size: 0x8, addend: 0x0, symName: __ZNSt3__18distanceB7v160006INS_14__bit_iteratorINS_6vectorIbNS_9allocatorIbEEEELb0ELm0EEEEENS_15iterator_traitsIT_E15difference_typeES8_S8_, symObjAddr: 0x29D8C, symBinAddr: 0x10003B66C, symSize: 0x5C }
  - { offsetInCU: 0x23EAA, offset: 0x5743B, size: 0x8, addend: 0x0, symName: __ZNSt3__14copyB7v160006INS_6vectorIbNS_9allocatorIbEEEELb0EEENS_14__bit_iteratorIT_Lb0EXLi0EEEENS5_IS6_XT0_EXLi0EEEES8_S7_, symObjAddr: 0x29E1C, symBinAddr: 0x10003B6FC, symSize: 0xE8 }
  - { offsetInCU: 0x23F0C, offset: 0x5749D, size: 0x8, addend: 0x0, symName: __ZNSt3__110__distanceB7v160006INS_14__bit_iteratorINS_6vectorIbNS_9allocatorIbEEEELb0ELm0EEEEENS_15iterator_traitsIT_E15difference_typeES8_S8_NS_26random_access_iterator_tagE, symObjAddr: 0x29F68, symBinAddr: 0x10003B848, symSize: 0x38 }
  - { offsetInCU: 0x23F5C, offset: 0x574ED, size: 0x8, addend: 0x0, symName: __ZNSt3__1miB7v160006ERKNS_14__bit_iteratorINS_6vectorIbNS_9allocatorIbEEEELb0ELm0EEES7_, symObjAddr: 0x29FA0, symBinAddr: 0x10003B880, symSize: 0x48 }
  - { offsetInCU: 0x23F98, offset: 0x57529, size: 0x8, addend: 0x0, symName: __ZNSt3__13minB7v160006IlEERKT_S3_S3_, symObjAddr: 0x2A7D0, symBinAddr: 0x10003C0B0, symSize: 0x2C }
  - { offsetInCU: 0x23FDB, offset: 0x5756C, size: 0x8, addend: 0x0, symName: __ZNSt3__112__to_addressB7v160006ImEEPT_S2_, symObjAddr: 0x2A840, symBinAddr: 0x10003C120, symSize: 0x14 }
  - { offsetInCU: 0x24010, offset: 0x575A1, size: 0x8, addend: 0x0, symName: __ZNSt3__13minB7v160006IlNS_6__lessIllEEEERKT_S5_S5_T0_, symObjAddr: 0x2A854, symBinAddr: 0x10003C134, symSize: 0x54 }
  - { offsetInCU: 0x240A5, offset: 0x57636, size: 0x8, addend: 0x0, symName: __ZNSt3__14copyB7v160006IPmS1_EET0_T_S3_S2_, symObjAddr: 0x2A8DC, symBinAddr: 0x10003C1BC, symSize: 0x40 }
  - { offsetInCU: 0x240FF, offset: 0x57690, size: 0x8, addend: 0x0, symName: __ZNSt3__16__copyB7v160006INS_17_ClassicAlgPolicyEPmS2_S2_EENS_4pairIT0_T2_EES4_T1_S5_, symObjAddr: 0x2A91C, symBinAddr: 0x10003C1FC, symSize: 0x44 }
  - { offsetInCU: 0x2416B, offset: 0x576FC, size: 0x8, addend: 0x0, symName: __ZNSt3__123__dispatch_copy_or_moveB7v160006INS_17_ClassicAlgPolicyENS_11__copy_loopIS1_EENS_14__copy_trivialEPmS5_S5_EENS_4pairIT2_T4_EES7_T3_S8_, symObjAddr: 0x2A960, symBinAddr: 0x10003C240, symSize: 0x44 }
  - { offsetInCU: 0x241E9, offset: 0x5777A, size: 0x8, addend: 0x0, symName: __ZNSt3__121__unwrap_and_dispatchB7v160006INS_10__overloadINS_11__copy_loopINS_17_ClassicAlgPolicyEEENS_14__copy_trivialEEEPmS7_S7_Li0EEENS_4pairIT0_T2_EES9_T1_SA_, symObjAddr: 0x2A9A4, symBinAddr: 0x10003C284, symSize: 0xB4 }
  - { offsetInCU: 0x24278, offset: 0x57809, size: 0x8, addend: 0x0, symName: __ZNSt3__114__unwrap_rangeB7v160006IPmS1_EENS_4pairIT0_S3_EET_S5_, symObjAddr: 0x2AA58, symBinAddr: 0x10003C338, symSize: 0x60 }
  - { offsetInCU: 0x2444B, offset: 0x579DC, size: 0x8, addend: 0x0, symName: __ZNSt3__113__unwrap_iterB7v160006IPmNS_18__unwrap_iter_implIS1_Lb1EEELi0EEEDTclsrT0_8__unwrapclsr3stdE7declvalIT_EEEES5_, symObjAddr: 0x2AB00, symBinAddr: 0x10003C3E0, symSize: 0x24 }
  - { offsetInCU: 0x24490, offset: 0x57A21, size: 0x8, addend: 0x0, symName: __ZNSt3__19make_pairB7v160006IPmS1_EENS_4pairINS_18__unwrap_ref_decayIT_E4typeENS3_IT0_E4typeEEEOS4_OS7_, symObjAddr: 0x2AB24, symBinAddr: 0x10003C404, symSize: 0x38 }
  - { offsetInCU: 0x244DF, offset: 0x57A70, size: 0x8, addend: 0x0, symName: __ZNSt3__114__rewrap_rangeB7v160006IPmS1_EET_S2_T0_, symObjAddr: 0x2AB5C, symBinAddr: 0x10003C43C, symSize: 0x2C }
  - { offsetInCU: 0x2452B, offset: 0x57ABC, size: 0x8, addend: 0x0, symName: __ZNSt3__113__rewrap_iterB7v160006IPmS1_NS_18__unwrap_iter_implIS1_Lb1EEEEET_S4_T0_, symObjAddr: 0x2AB88, symBinAddr: 0x10003C468, symSize: 0x3C }
  - { offsetInCU: 0x24580, offset: 0x57B11, size: 0x8, addend: 0x0, symName: __ZNSt3__119__copy_trivial_implB7v160006ImmEENS_4pairIPT_PT0_EES3_S3_S5_, symObjAddr: 0x2ABC4, symBinAddr: 0x10003C4A4, symSize: 0x84 }
  - { offsetInCU: 0x245E8, offset: 0x57B79, size: 0x8, addend: 0x0, symName: __ZNSt3__19make_pairB7v160006IRPmS1_EENS_4pairINS_18__unwrap_ref_decayIT_E4typeENS4_IT0_E4typeEEEOS5_OS8_, symObjAddr: 0x2AC48, symBinAddr: 0x10003C528, symSize: 0x38 }
  - { offsetInCU: 0x2468B, offset: 0x57C1C, size: 0x8, addend: 0x0, symName: __ZNSt3__14swapB7v160006IPmEENS_9enable_ifIXaasr21is_move_constructibleIT_EE5valuesr18is_move_assignableIS3_EE5valueEvE4typeERS3_S6_, symObjAddr: 0x2AE3C, symBinAddr: 0x10003C71C, symSize: 0x3C }
  - { offsetInCU: 0x246DD, offset: 0x57C6E, size: 0x8, addend: 0x0, symName: __ZNSt3__116__swap_allocatorB7v160006INS_9allocatorImEEEEvRT_S4_NS_17integral_constantIbLb0EEE, symObjAddr: 0x2AEB4, symBinAddr: 0x10003C758, symSize: 0x14 }
  - { offsetInCU: 0x2471E, offset: 0x57CAF, size: 0x8, addend: 0x0, symName: __ZNSt3__125__debug_db_invalidate_allB7v160006INS_6vectorIbNS_9allocatorIbEEE16__destroy_vectorEEEvPT_, symObjAddr: 0x2B0FC, symBinAddr: 0x10003C9A0, symSize: 0x10 }
  - { offsetInCU: 0x2474F, offset: 0x57CE0, size: 0x8, addend: 0x0, symName: __ZNSt3__118__debug_db_erase_cB7v160006INS_6vectorIPN8nlohmann16json_abi_v3_11_310basic_jsonINS_3mapES1_NS_12basic_stringIcNS_11char_traitsIcEENS_9allocatorIcEEEEbxydS9_NS3_14adl_serializerENS1_IhNS9_IhEEEEvEENS9_ISG_EEEEEEvPT_, symObjAddr: 0x2B338, symBinAddr: 0x10003CBDC, symSize: 0x10 }
  - { offsetInCU: 0x2477F, offset: 0x57D10, size: 0x8, addend: 0x0, symName: __ZNSt3__112__to_addressB7v160006IPN8nlohmann16json_abi_v3_11_310basic_jsonINS_3mapENS_6vectorENS_12basic_stringIcNS_11char_traitsIcEENS_9allocatorIcEEEEbxydS9_NS2_14adl_serializerENS5_IhNS9_IhEEEEvEEEEPT_SI_, symObjAddr: 0x2B47C, symBinAddr: 0x10003CD20, symSize: 0x14 }
  - { offsetInCU: 0x248E7, offset: 0x57E78, size: 0x8, addend: 0x0, symName: __ZNSt3__125__throw_bad_function_callB7v160006Ev, symObjAddr: 0x2CE60, symBinAddr: 0x10003E704, symSize: 0x38 }
  - { offsetInCU: 0x24938, offset: 0x57EC9, size: 0x8, addend: 0x0, symName: __ZNSt3__119__allocate_at_leastB7v160006INS_9allocatorIPN8nlohmann16json_abi_v3_11_310basic_jsonINS_3mapENS_6vectorENS_12basic_stringIcNS_11char_traitsIcEENS1_IcEEEEbxydS1_NS3_14adl_serializerENS6_IhNS1_IhEEEEvEEEEEENS_19__allocation_resultINS_16allocator_traitsIT_E7pointerEEERSK_m, symObjAddr: 0x2D9A0, symBinAddr: 0x10003F244, symSize: 0x40 }
  - { offsetInCU: 0x2497B, offset: 0x57F0C, size: 0x8, addend: 0x0, symName: __ZNSt3__142__uninitialized_allocator_move_if_noexceptB7v160006INS_9allocatorIPN8nlohmann16json_abi_v3_11_310basic_jsonINS_3mapENS_6vectorENS_12basic_stringIcNS_11char_traitsIcEENS1_IcEEEEbxydS1_NS3_14adl_serializerENS6_IhNS1_IhEEEEvEEEENS_16reverse_iteratorIPSG_EESK_SG_vEET1_RT_T0_SO_SL_, symObjAddr: 0x2DB54, symBinAddr: 0x10003F3F8, symSize: 0x78 }
  - { offsetInCU: 0x249F8, offset: 0x57F89, size: 0x8, addend: 0x0, symName: __ZNSt3__14swapB7v160006IPPN8nlohmann16json_abi_v3_11_310basic_jsonINS_3mapENS_6vectorENS_12basic_stringIcNS_11char_traitsIcEENS_9allocatorIcEEEEbxydS9_NS2_14adl_serializerENS5_IhNS9_IhEEEEvEEEENS_9enable_ifIXaasr21is_move_constructibleIT_EE5valuesr18is_move_assignableISJ_EE5valueEvE4typeERSJ_SM_, symObjAddr: 0x2DC18, symBinAddr: 0x10003F4BC, symSize: 0x3C }
  - { offsetInCU: 0x24A4A, offset: 0x57FDB, size: 0x8, addend: 0x0, symName: __ZNSt3__125__debug_db_invalidate_allB7v160006INS_6vectorIPN8nlohmann16json_abi_v3_11_310basic_jsonINS_3mapES1_NS_12basic_stringIcNS_11char_traitsIcEENS_9allocatorIcEEEEbxydS9_NS3_14adl_serializerENS1_IhNS9_IhEEEEvEENS9_ISG_EEEEEEvPT_, symObjAddr: 0x2DD00, symBinAddr: 0x10003F5A4, symSize: 0x10 }
  - { offsetInCU: 0x24A7A, offset: 0x5800B, size: 0x8, addend: 0x0, symName: __ZNSt3__14moveB7v160006INS_16reverse_iteratorIPPN8nlohmann16json_abi_v3_11_310basic_jsonINS_3mapENS_6vectorENS_12basic_stringIcNS_11char_traitsIcEENS_9allocatorIcEEEEbxydSA_NS3_14adl_serializerENS6_IhNSA_IhEEEEvEEEESJ_EET0_T_SL_SK_, symObjAddr: 0x2DD10, symBinAddr: 0x10003F5B4, symSize: 0x78 }
  - { offsetInCU: 0x24AD4, offset: 0x58065, size: 0x8, addend: 0x0, symName: __ZNSt3__16__moveB7v160006INS_17_ClassicAlgPolicyENS_16reverse_iteratorIPPN8nlohmann16json_abi_v3_11_310basic_jsonINS_3mapENS_6vectorENS_12basic_stringIcNS_11char_traitsIcEENS_9allocatorIcEEEEbxydSB_NS4_14adl_serializerENS7_IhNSB_IhEEEEvEEEESK_SK_EENS_4pairIT0_T2_EESM_T1_SN_, symObjAddr: 0x2DD88, symBinAddr: 0x10003F62C, symSize: 0x64 }
  - { offsetInCU: 0x24B40, offset: 0x580D1, size: 0x8, addend: 0x0, symName: __ZNSt3__123__dispatch_copy_or_moveB7v160006INS_17_ClassicAlgPolicyENS_11__move_loopIS1_EENS_14__move_trivialENS_16reverse_iteratorIPPN8nlohmann16json_abi_v3_11_310basic_jsonINS_3mapENS_6vectorENS_12basic_stringIcNS_11char_traitsIcEENS_9allocatorIcEEEEbxydSE_NS7_14adl_serializerENSA_IhNSE_IhEEEEvEEEESN_SN_EENS_4pairIT2_T4_EESP_T3_SQ_, symObjAddr: 0x2DDEC, symBinAddr: 0x10003F690, symSize: 0x64 }
  - { offsetInCU: 0x24BBE, offset: 0x5814F, size: 0x8, addend: 0x0, symName: __ZNSt3__121__unwrap_and_dispatchB7v160006INS_10__overloadINS_11__move_loopINS_17_ClassicAlgPolicyEEENS_14__move_trivialEEENS_16reverse_iteratorIPPN8nlohmann16json_abi_v3_11_310basic_jsonINS_3mapENS_6vectorENS_12basic_stringIcNS_11char_traitsIcEENS_9allocatorIcEEEEbxydSG_NS9_14adl_serializerENSC_IhNSG_IhEEEEvEEEESP_SP_Li0EEENS_4pairIT0_T2_EESR_T1_SS_, symObjAddr: 0x2DE50, symBinAddr: 0x10003F6F4, symSize: 0x12C }
  - { offsetInCU: 0x24C4F, offset: 0x581E0, size: 0x8, addend: 0x0, symName: __ZNSt3__114__unwrap_rangeB7v160006INS_16reverse_iteratorIPPN8nlohmann16json_abi_v3_11_310basic_jsonINS_3mapENS_6vectorENS_12basic_stringIcNS_11char_traitsIcEENS_9allocatorIcEEEEbxydSA_NS3_14adl_serializerENS6_IhNSA_IhEEEEvEEEESJ_EENS_4pairIT0_SL_EET_SN_, symObjAddr: 0x2DF7C, symBinAddr: 0x10003F820, symSize: 0x84 }
  - { offsetInCU: 0x24D6F, offset: 0x58300, size: 0x8, addend: 0x0, symName: __ZNSt3__113__unwrap_iterB7v160006INS_16reverse_iteratorIPPN8nlohmann16json_abi_v3_11_310basic_jsonINS_3mapENS_6vectorENS_12basic_stringIcNS_11char_traitsIcEENS_9allocatorIcEEEEbxydSA_NS3_14adl_serializerENS6_IhNSA_IhEEEEvEEEENS_18__unwrap_iter_implISJ_Lb0EEELi0EEEDTclsrT0_8__unwrapclsr3stdE7declvalIT_EEEESN_, symObjAddr: 0x2E0A0, symBinAddr: 0x10003F944, symSize: 0x44 }
  - { offsetInCU: 0x24DB4, offset: 0x58345, size: 0x8, addend: 0x0, symName: __ZNSt3__19make_pairB7v160006INS_16reverse_iteratorIPPN8nlohmann16json_abi_v3_11_310basic_jsonINS_3mapENS_6vectorENS_12basic_stringIcNS_11char_traitsIcEENS_9allocatorIcEEEEbxydSA_NS3_14adl_serializerENS6_IhNSA_IhEEEEvEEEESJ_EENS_4pairINS_18__unwrap_ref_decayIT_E4typeENSL_IT0_E4typeEEEOSM_OSP_, symObjAddr: 0x2E0E4, symBinAddr: 0x10003F988, symSize: 0x38 }
  - { offsetInCU: 0x24E03, offset: 0x58394, size: 0x8, addend: 0x0, symName: __ZNSt3__114__rewrap_rangeB7v160006INS_16reverse_iteratorIPPN8nlohmann16json_abi_v3_11_310basic_jsonINS_3mapENS_6vectorENS_12basic_stringIcNS_11char_traitsIcEENS_9allocatorIcEEEEbxydSA_NS3_14adl_serializerENS6_IhNSA_IhEEEEvEEEESJ_EET_SK_T0_, symObjAddr: 0x2E11C, symBinAddr: 0x10003F9C0, symSize: 0x5C }
  - { offsetInCU: 0x24E4F, offset: 0x583E0, size: 0x8, addend: 0x0, symName: __ZNSt3__113__rewrap_iterB7v160006INS_16reverse_iteratorIPPN8nlohmann16json_abi_v3_11_310basic_jsonINS_3mapENS_6vectorENS_12basic_stringIcNS_11char_traitsIcEENS_9allocatorIcEEEEbxydSA_NS3_14adl_serializerENS6_IhNSA_IhEEEEvEEEESJ_NS_18__unwrap_iter_implISJ_Lb0EEEEET_SM_T0_, symObjAddr: 0x2E178, symBinAddr: 0x10003FA1C, symSize: 0x74 }
  - { offsetInCU: 0x24EA4, offset: 0x58435, size: 0x8, addend: 0x0, symName: __ZNSt3__1neB7v160006IPPN8nlohmann16json_abi_v3_11_310basic_jsonINS_3mapENS_6vectorENS_12basic_stringIcNS_11char_traitsIcEENS_9allocatorIcEEEEbxydS9_NS2_14adl_serializerENS5_IhNS9_IhEEEEvEESH_EEbRKNS_16reverse_iteratorIT_EERKNSI_IT0_EE, symObjAddr: 0x2E1EC, symBinAddr: 0x10003FA90, symSize: 0x48 }
  - { offsetInCU: 0x2529E, offset: 0x5882F, size: 0x8, addend: 0x0, symName: __ZNSt3__1neB7v160006INS_3mapINS_12basic_stringIcNS_11char_traitsIcEENS_9allocatorIcEEEEN8nlohmann16json_abi_v3_11_310basic_jsonIS1_NS_6vectorES7_bxydS5_NS9_14adl_serializerENSB_IhNS5_IhEEEEvEENS_4lessIS7_EENS5_INS_4pairIKS7_SF_EEEEEEZNSF_6createISM_JRKSM_EEEPT_DpOT0_EUlPSM_E_EEbRKNS_10unique_ptrISQ_T0_EEDn, symObjAddr: 0x2F4B8, symBinAddr: 0x100040D5C, symSize: 0x2C }
  - { offsetInCU: 0x2530D, offset: 0x5889E, size: 0x8, addend: 0x0, symName: __ZNSt3__14nextB7v160006INS_21__tree_const_iteratorINS_12__value_typeINS_12basic_stringIcNS_11char_traitsIcEENS_9allocatorIcEEEEN8nlohmann16json_abi_v3_11_310basic_jsonINS_3mapENS_6vectorES8_bxydS6_NSA_14adl_serializerENSD_IhNS6_IhEEEEvEEEEPNS_11__tree_nodeISI_PvEElEEEENS_9enable_ifIXsr25__is_cpp17_input_iteratorIT_EE5valueESP_E4typeESP_NS_15iterator_traitsISP_E15difference_typeE, symObjAddr: 0x30018, symBinAddr: 0x1000418BC, symSize: 0x50 }
  - { offsetInCU: 0x25350, offset: 0x588E1, size: 0x8, addend: 0x0, symName: __ZNSt3__19__advanceB7v160006INS_21__tree_const_iteratorINS_12__value_typeINS_12basic_stringIcNS_11char_traitsIcEENS_9allocatorIcEEEEN8nlohmann16json_abi_v3_11_310basic_jsonINS_3mapENS_6vectorES8_bxydS6_NSA_14adl_serializerENSD_IhNS6_IhEEEEvEEEEPNS_11__tree_nodeISI_PvEElEEEEvRT_NS_15iterator_traitsISO_E15difference_typeENS_26bidirectional_iterator_tagE, symObjAddr: 0x300D8, symBinAddr: 0x10004197C, symSize: 0xA4 }
  - { offsetInCU: 0x256DB, offset: 0x58C6C, size: 0x8, addend: 0x0, symName: __ZNSt3__1neB7v160006INS_6vectorIN8nlohmann16json_abi_v3_11_310basic_jsonINS_3mapES1_NS_12basic_stringIcNS_11char_traitsIcEENS_9allocatorIcEEEEbxydS9_NS3_14adl_serializerENS1_IhNS9_IhEEEEvEENS9_ISF_EEEEZNSF_6createISH_JRKSH_EEEPT_DpOT0_EUlPSH_E_EEbRKNS_10unique_ptrISL_T0_EEDn, symObjAddr: 0x305E8, symBinAddr: 0x100041E8C, symSize: 0x2C }
  - { offsetInCU: 0x25726, offset: 0x58CB7, size: 0x8, addend: 0x0, symName: __ZNSt3__122__make_exception_guardB7v160006INS_6vectorIN8nlohmann16json_abi_v3_11_310basic_jsonINS_3mapES1_NS_12basic_stringIcNS_11char_traitsIcEENS_9allocatorIcEEEEbxydS9_NS3_14adl_serializerENS1_IhNS9_IhEEEEvEENS9_ISF_EEE16__destroy_vectorEEENS_28__exception_guard_exceptionsIT_EESK_, symObjAddr: 0x30934, symBinAddr: 0x1000421D8, symSize: 0x40 }
  - { offsetInCU: 0x2575B, offset: 0x58CEC, size: 0x8, addend: 0x0, symName: __ZNSt3__130__uninitialized_allocator_copyB7v160006INS_9allocatorIN8nlohmann16json_abi_v3_11_310basic_jsonINS_3mapENS_6vectorENS_12basic_stringIcNS_11char_traitsIcEENS1_IcEEEEbxydS1_NS3_14adl_serializerENS6_IhNS1_IhEEEEvEEEEPSF_SH_SH_EET2_RT_T0_T1_SI_, symObjAddr: 0x30BA8, symBinAddr: 0x10004244C, symSize: 0xF4 }
  - { offsetInCU: 0x257FB, offset: 0x58D8C, size: 0x8, addend: 0x0, symName: __ZNSt3__122__make_exception_guardB7v160006INS_29_AllocatorDestroyRangeReverseINS_9allocatorIN8nlohmann16json_abi_v3_11_310basic_jsonINS_3mapENS_6vectorENS_12basic_stringIcNS_11char_traitsIcEENS2_IcEEEEbxydS2_NS4_14adl_serializerENS7_IhNS2_IhEEEEvEEEEPSG_EEEENS_28__exception_guard_exceptionsIT_EESL_, symObjAddr: 0x30C9C, symBinAddr: 0x100042540, symSize: 0x4C }
  - { offsetInCU: 0x25832, offset: 0x58DC3, size: 0x8, addend: 0x0, symName: __ZNSt3__119__allocator_destroyB7v160006INS_9allocatorIN8nlohmann16json_abi_v3_11_310basic_jsonINS_3mapENS_6vectorENS_12basic_stringIcNS_11char_traitsIcEENS1_IcEEEEbxydS1_NS3_14adl_serializerENS6_IhNS1_IhEEEEvEEEENS_16reverse_iteratorIPSF_EESJ_EEvRT_T0_T1_, symObjAddr: 0x30F2C, symBinAddr: 0x1000427D0, symSize: 0x70 }
  - { offsetInCU: 0x25BD5, offset: 0x59166, size: 0x8, addend: 0x0, symName: __ZNSt3__1neB7v160006IN8nlohmann16json_abi_v3_11_327byte_container_with_subtypeINS_6vectorIhNS_9allocatorIhEEEEEEZNS2_10basic_jsonINS_3mapES4_NS_12basic_stringIcNS_11char_traitsIcEENS5_IcEEEEbxydS5_NS2_14adl_serializerES7_vE6createIS8_JRKS8_EEEPT_DpOT0_EUlPS8_E_EEbRKNS_10unique_ptrISL_T0_EEDn, symObjAddr: 0x31370, symBinAddr: 0x100042C14, symSize: 0x2C }
  - { offsetInCU: 0x25C20, offset: 0x591B1, size: 0x8, addend: 0x0, symName: __ZNSt3__122__make_exception_guardB7v160006INS_6vectorIhNS_9allocatorIhEEE16__destroy_vectorEEENS_28__exception_guard_exceptionsIT_EES7_, symObjAddr: 0x3172C, symBinAddr: 0x100042FD0, symSize: 0x40 }
  - { offsetInCU: 0x25C55, offset: 0x591E6, size: 0x8, addend: 0x0, symName: __ZNSt3__119__allocate_at_leastB7v160006INS_9allocatorIhEEEENS_19__allocation_resultINS_16allocator_traitsIT_E7pointerEEERS5_m, symObjAddr: 0x31A54, symBinAddr: 0x1000432F8, symSize: 0x40 }
  - { offsetInCU: 0x25C98, offset: 0x59229, size: 0x8, addend: 0x0, symName: __ZNSt3__130__uninitialized_allocator_copyB7v160006INS_9allocatorIhEEPhS3_S3_EET2_RT_T0_T1_S4_, symObjAddr: 0x31C6C, symBinAddr: 0x100043510, symSize: 0xF4 }
  - { offsetInCU: 0x25D38, offset: 0x592C9, size: 0x8, addend: 0x0, symName: __ZNSt3__122__make_exception_guardB7v160006INS_29_AllocatorDestroyRangeReverseINS_9allocatorIhEEPhEEEENS_28__exception_guard_exceptionsIT_EES7_, symObjAddr: 0x31DD0, symBinAddr: 0x100043674, symSize: 0x4C }
  - { offsetInCU: 0x25D6F, offset: 0x59300, size: 0x8, addend: 0x0, symName: __ZNSt3__119__allocator_destroyB7v160006INS_9allocatorIhEENS_16reverse_iteratorIPhEES5_EEvRT_T0_T1_, symObjAddr: 0x32058, symBinAddr: 0x1000438FC, symSize: 0x70 }
  - { offsetInCU: 0x25DD1, offset: 0x59362, size: 0x8, addend: 0x0, symName: __ZNSt3__1neB7v160006IPhS1_EEbRKNS_16reverse_iteratorIT_EERKNS2_IT0_EE, symObjAddr: 0x320FC, symBinAddr: 0x1000439A0, symSize: 0x48 }
  - { offsetInCU: 0x25E1D, offset: 0x593AE, size: 0x8, addend: 0x0, symName: __ZNSt3__112__to_addressB7v160006INS_16reverse_iteratorIPhEEvEENS_5decayIDTclsr19__to_address_helperIT_EE6__callclsr3stdE7declvalIRKS5_EEEEE4typeES7_, symObjAddr: 0x32144, symBinAddr: 0x1000439E8, symSize: 0x24 }
  - { offsetInCU: 0x25E7D, offset: 0x5940E, size: 0x8, addend: 0x0, symName: __ZNSt3__1neB7v160006IPN8nlohmann16json_abi_v3_11_310basic_jsonINS_3mapENS_6vectorENS_12basic_stringIcNS_11char_traitsIcEENS_9allocatorIcEEEEbxydS9_NS2_14adl_serializerENS5_IhNS9_IhEEEEvEEEEbRKNS_11__wrap_iterIT_EESL_, symObjAddr: 0x32580, symBinAddr: 0x100043E24, symSize: 0x34 }
  - { offsetInCU: 0x25EC0, offset: 0x59451, size: 0x8, addend: 0x0, symName: __ZNSt3__1eqB7v160006IPN8nlohmann16json_abi_v3_11_310basic_jsonINS_3mapENS_6vectorENS_12basic_stringIcNS_11char_traitsIcEENS_9allocatorIcEEEEbxydS9_NS2_14adl_serializerENS5_IhNS9_IhEEEEvEEEEbRKNS_11__wrap_iterIT_EESL_, symObjAddr: 0x3274C, symBinAddr: 0x100043FF0, symSize: 0x48 }
  - { offsetInCU: 0x25F04, offset: 0x59495, size: 0x8, addend: 0x0, symName: __ZNSt3__113__tree_removeB7v160006IPNS_16__tree_node_baseIPvEEEEvT_S5_, symObjAddr: 0x32BE8, symBinAddr: 0x10004448C, symSize: 0x6E0 }
  - { offsetInCU: 0x25F85, offset: 0x59516, size: 0x8, addend: 0x0, symName: __ZNSt3__111__tree_nextB7v160006IPNS_16__tree_node_baseIPvEEEET_S5_, symObjAddr: 0x332C8, symBinAddr: 0x100044B6C, symSize: 0x80 }
  - { offsetInCU: 0x25FBA, offset: 0x5954B, size: 0x8, addend: 0x0, symName: __ZNSt3__1miB7v160006IPKN8nlohmann16json_abi_v3_11_310basic_jsonINS_3mapENS_6vectorENS_12basic_stringIcNS_11char_traitsIcEENS_9allocatorIcEEEEbxydS9_NS2_14adl_serializerENS5_IhNS9_IhEEEEvEESH_EEDTmicldtfp_4baseEcldtfp0_4baseEERKNS_11__wrap_iterIT_EERKNSJ_IT0_EE, symObjAddr: 0x33348, symBinAddr: 0x100044BEC, symSize: 0x48 }
  - { offsetInCU: 0x26006, offset: 0x59597, size: 0x8, addend: 0x0, symName: __ZNSt3__14moveB7v160006IPN8nlohmann16json_abi_v3_11_310basic_jsonINS_3mapENS_6vectorENS_12basic_stringIcNS_11char_traitsIcEENS_9allocatorIcEEEEbxydS9_NS2_14adl_serializerENS5_IhNS9_IhEEEEvEESG_EET0_T_SI_SH_, symObjAddr: 0x33390, symBinAddr: 0x100044C34, symSize: 0x40 }
  - { offsetInCU: 0x26060, offset: 0x595F1, size: 0x8, addend: 0x0, symName: __ZNSt3__16__moveB7v160006INS_17_ClassicAlgPolicyEPN8nlohmann16json_abi_v3_11_310basic_jsonINS_3mapENS_6vectorENS_12basic_stringIcNS_11char_traitsIcEENS_9allocatorIcEEEEbxydSA_NS3_14adl_serializerENS6_IhNSA_IhEEEEvEESH_SH_EENS_4pairIT0_T2_EESJ_T1_SK_, symObjAddr: 0x333D0, symBinAddr: 0x100044C74, symSize: 0x44 }
  - { offsetInCU: 0x260CC, offset: 0x5965D, size: 0x8, addend: 0x0, symName: __ZNSt3__123__dispatch_copy_or_moveB7v160006INS_17_ClassicAlgPolicyENS_11__move_loopIS1_EENS_14__move_trivialEPN8nlohmann16json_abi_v3_11_310basic_jsonINS_3mapENS_6vectorENS_12basic_stringIcNS_11char_traitsIcEENS_9allocatorIcEEEEbxydSD_NS6_14adl_serializerENS9_IhNSD_IhEEEEvEESK_SK_EENS_4pairIT2_T4_EESM_T3_SN_, symObjAddr: 0x33414, symBinAddr: 0x100044CB8, symSize: 0x44 }
  - { offsetInCU: 0x2614A, offset: 0x596DB, size: 0x8, addend: 0x0, symName: __ZNSt3__121__unwrap_and_dispatchB7v160006INS_10__overloadINS_11__move_loopINS_17_ClassicAlgPolicyEEENS_14__move_trivialEEEPN8nlohmann16json_abi_v3_11_310basic_jsonINS_3mapENS_6vectorENS_12basic_stringIcNS_11char_traitsIcEENS_9allocatorIcEEEEbxydSF_NS8_14adl_serializerENSB_IhNSF_IhEEEEvEESM_SM_Li0EEENS_4pairIT0_T2_EESO_T1_SP_, symObjAddr: 0x33458, symBinAddr: 0x100044CFC, symSize: 0xB4 }
  - { offsetInCU: 0x261D9, offset: 0x5976A, size: 0x8, addend: 0x0, symName: __ZNSt3__114__unwrap_rangeB7v160006IPN8nlohmann16json_abi_v3_11_310basic_jsonINS_3mapENS_6vectorENS_12basic_stringIcNS_11char_traitsIcEENS_9allocatorIcEEEEbxydS9_NS2_14adl_serializerENS5_IhNS9_IhEEEEvEESG_EENS_4pairIT0_SI_EET_SK_, symObjAddr: 0x3350C, symBinAddr: 0x100044DB0, symSize: 0x60 }
  - { offsetInCU: 0x26225, offset: 0x597B6, size: 0x8, addend: 0x0, symName: __ZNSt3__113__unwrap_iterB7v160006IPN8nlohmann16json_abi_v3_11_310basic_jsonINS_3mapENS_6vectorENS_12basic_stringIcNS_11char_traitsIcEENS_9allocatorIcEEEEbxydS9_NS2_14adl_serializerENS5_IhNS9_IhEEEEvEENS_18__unwrap_iter_implISG_Lb1EEELi0EEEDTclsrT0_8__unwrapclsr3stdE7declvalIT_EEEESK_, symObjAddr: 0x33614, symBinAddr: 0x100044EB8, symSize: 0x24 }
  - { offsetInCU: 0x2626A, offset: 0x597FB, size: 0x8, addend: 0x0, symName: __ZNSt3__114__rewrap_rangeB7v160006IPN8nlohmann16json_abi_v3_11_310basic_jsonINS_3mapENS_6vectorENS_12basic_stringIcNS_11char_traitsIcEENS_9allocatorIcEEEEbxydS9_NS2_14adl_serializerENS5_IhNS9_IhEEEEvEESG_EET_SH_T0_, symObjAddr: 0x33638, symBinAddr: 0x100044EDC, symSize: 0x2C }
  - { offsetInCU: 0x262B6, offset: 0x59847, size: 0x8, addend: 0x0, symName: __ZNSt3__113__rewrap_iterB7v160006IPN8nlohmann16json_abi_v3_11_310basic_jsonINS_3mapENS_6vectorENS_12basic_stringIcNS_11char_traitsIcEENS_9allocatorIcEEEEbxydS9_NS2_14adl_serializerENS5_IhNS9_IhEEEEvEESG_NS_18__unwrap_iter_implISG_Lb1EEEEET_SJ_T0_, symObjAddr: 0x33664, symBinAddr: 0x100044F08, symSize: 0x3C }
  - { offsetInCU: 0x26623, offset: 0x59BB4, size: 0x8, addend: 0x0, symName: __ZNSt3__119__debug_db_insert_iB7v160006INS_11__wrap_iterIPN8nlohmann16json_abi_v3_11_310basic_jsonINS_3mapENS_6vectorENS_12basic_stringIcNS_11char_traitsIcEENS_9allocatorIcEEEEbxydSA_NS3_14adl_serializerENS6_IhNSA_IhEEEEvEEEEEEvPT_, symObjAddr: 0x3A534, symBinAddr: 0x10004B650, symSize: 0x10 }
  - { offsetInCU: 0x26653, offset: 0x59BE4, size: 0x8, addend: 0x0, symName: __ZNSt3__1eqB7v160006ERKNS_14__map_iteratorINS_15__tree_iteratorINS_12__value_typeINS_12basic_stringIcNS_11char_traitsIcEENS_9allocatorIcEEEEN8nlohmann16json_abi_v3_11_310basic_jsonINS_3mapENS_6vectorES8_bxydS6_NSA_14adl_serializerENSD_IhNS6_IhEEEEvEEEEPNS_11__tree_nodeISI_PvEElEEEESQ_, symObjAddr: 0x3A934, symBinAddr: 0x10004BA50, symSize: 0x30 }
  - { offsetInCU: 0x26690, offset: 0x59C21, size: 0x8, addend: 0x0, symName: __ZNSt3__19__advanceB7v160006INS_14__map_iteratorINS_15__tree_iteratorINS_12__value_typeINS_12basic_stringIcNS_11char_traitsIcEENS_9allocatorIcEEEEN8nlohmann16json_abi_v3_11_310basic_jsonINS_3mapENS_6vectorES9_bxydS7_NSB_14adl_serializerENSE_IhNS7_IhEEEEvEEEEPNS_11__tree_nodeISJ_PvEElEEEEEEvRT_NS_15iterator_traitsISQ_E15difference_typeENS_26bidirectional_iterator_tagE, symObjAddr: 0x3AA5C, symBinAddr: 0x10004BB78, symSize: 0xA4 }
  - { offsetInCU: 0x266DA, offset: 0x59C6B, size: 0x8, addend: 0x0, symName: __ZNSt3__19__advanceB7v160006INS_11__wrap_iterIPN8nlohmann16json_abi_v3_11_310basic_jsonINS_3mapENS_6vectorENS_12basic_stringIcNS_11char_traitsIcEENS_9allocatorIcEEEEbxydSA_NS3_14adl_serializerENS6_IhNSA_IhEEEEvEEEEEEvRT_NS_15iterator_traitsISJ_E15difference_typeENS_26random_access_iterator_tagE, symObjAddr: 0x3AB64, symBinAddr: 0x10004BC80, symSize: 0x2C }
  - { offsetInCU: 0x267F8, offset: 0x59D89, size: 0x8, addend: 0x0, symName: __ZNSt3__142__uninitialized_allocator_move_if_noexceptB7v160006INS_9allocatorIdEENS_16reverse_iteratorIPdEES5_dvEET1_RT_T0_S9_S6_, symObjAddr: 0x3CE08, symBinAddr: 0x10004CDBC, symSize: 0x78 }
  - { offsetInCU: 0x26875, offset: 0x59E06, size: 0x8, addend: 0x0, symName: __ZNSt3__14swapB7v160006IPdEENS_9enable_ifIXaasr21is_move_constructibleIT_EE5valuesr18is_move_assignableIS3_EE5valueEvE4typeERS3_S6_, symObjAddr: 0x3CE80, symBinAddr: 0x10004CE34, symSize: 0x3C }
  - { offsetInCU: 0x268C7, offset: 0x59E58, size: 0x8, addend: 0x0, symName: __ZNSt3__125__debug_db_invalidate_allB7v160006INS_6vectorIdNS_9allocatorIdEEEEEEvPT_, symObjAddr: 0x3CEBC, symBinAddr: 0x10004CE70, symSize: 0x10 }
  - { offsetInCU: 0x268F7, offset: 0x59E88, size: 0x8, addend: 0x0, symName: __ZNSt3__14moveB7v160006INS_16reverse_iteratorIPdEES3_EET0_T_S5_S4_, symObjAddr: 0x3CECC, symBinAddr: 0x10004CE80, symSize: 0x78 }
  - { offsetInCU: 0x26951, offset: 0x59EE2, size: 0x8, addend: 0x0, symName: __ZNSt3__16__moveB7v160006INS_17_ClassicAlgPolicyENS_16reverse_iteratorIPdEES4_S4_EENS_4pairIT0_T2_EES6_T1_S7_, symObjAddr: 0x3CF44, symBinAddr: 0x10004CEF8, symSize: 0x64 }
  - { offsetInCU: 0x269BD, offset: 0x59F4E, size: 0x8, addend: 0x0, symName: __ZNSt3__123__dispatch_copy_or_moveB7v160006INS_17_ClassicAlgPolicyENS_11__move_loopIS1_EENS_14__move_trivialENS_16reverse_iteratorIPdEES7_S7_EENS_4pairIT2_T4_EES9_T3_SA_, symObjAddr: 0x3CFA8, symBinAddr: 0x10004CF5C, symSize: 0x64 }
  - { offsetInCU: 0x26A3B, offset: 0x59FCC, size: 0x8, addend: 0x0, symName: __ZNSt3__121__unwrap_and_dispatchB7v160006INS_10__overloadINS_11__move_loopINS_17_ClassicAlgPolicyEEENS_14__move_trivialEEENS_16reverse_iteratorIPdEES9_S9_Li0EEENS_4pairIT0_T2_EESB_T1_SC_, symObjAddr: 0x3D00C, symBinAddr: 0x10004CFC0, symSize: 0x12C }
  - { offsetInCU: 0x26ACC, offset: 0x5A05D, size: 0x8, addend: 0x0, symName: __ZNSt3__114__unwrap_rangeB7v160006INS_16reverse_iteratorIPdEES3_EENS_4pairIT0_S5_EET_S7_, symObjAddr: 0x3D138, symBinAddr: 0x10004D0EC, symSize: 0x84 }
  - { offsetInCU: 0x26BEC, offset: 0x5A17D, size: 0x8, addend: 0x0, symName: __ZNSt3__113__unwrap_iterB7v160006INS_16reverse_iteratorIPdEENS_18__unwrap_iter_implIS3_Lb0EEELi0EEEDTclsrT0_8__unwrapclsr3stdE7declvalIT_EEEES7_, symObjAddr: 0x3D25C, symBinAddr: 0x10004D210, symSize: 0x44 }
  - { offsetInCU: 0x26C31, offset: 0x5A1C2, size: 0x8, addend: 0x0, symName: __ZNSt3__19make_pairB7v160006INS_16reverse_iteratorIPdEES3_EENS_4pairINS_18__unwrap_ref_decayIT_E4typeENS5_IT0_E4typeEEEOS6_OS9_, symObjAddr: 0x3D2A0, symBinAddr: 0x10004D254, symSize: 0x38 }
  - { offsetInCU: 0x26C80, offset: 0x5A211, size: 0x8, addend: 0x0, symName: __ZNSt3__114__rewrap_rangeB7v160006INS_16reverse_iteratorIPdEES3_EET_S4_T0_, symObjAddr: 0x3D2D8, symBinAddr: 0x10004D28C, symSize: 0x5C }
  - { offsetInCU: 0x26CCC, offset: 0x5A25D, size: 0x8, addend: 0x0, symName: __ZNSt3__113__rewrap_iterB7v160006INS_16reverse_iteratorIPdEES3_NS_18__unwrap_iter_implIS3_Lb0EEEEET_S6_T0_, symObjAddr: 0x3D334, symBinAddr: 0x10004D2E8, symSize: 0x74 }
  - { offsetInCU: 0x26D8F, offset: 0x5A320, size: 0x8, addend: 0x0, symName: __ZNSt3__115__debug_db_swapB7v160006INS_6vectorIdNS_9allocatorIdEEEEEEvPT_S6_, symObjAddr: 0x3DC28, symBinAddr: 0x10004DBDC, symSize: 0x14 }
  - { offsetInCU: 0x26DCD, offset: 0x5A35E, size: 0x8, addend: 0x0, symName: __ZNSt3__142__uninitialized_allocator_move_if_noexceptB7v160006INS_9allocatorI5PointEENS_16reverse_iteratorIPS2_EES6_S6_EET2_RT_T0_T1_S7_, symObjAddr: 0x3E0B0, symBinAddr: 0x10004E064, symSize: 0x11C }
  - { offsetInCU: 0x26E6F, offset: 0x5A400, size: 0x8, addend: 0x0, symName: __ZNSt3__14swapB7v160006IP5PointEENS_9enable_ifIXaasr21is_move_constructibleIT_EE5valuesr18is_move_assignableIS4_EE5valueEvE4typeERS4_S7_, symObjAddr: 0x3E1CC, symBinAddr: 0x10004E180, symSize: 0x3C }
  - { offsetInCU: 0x26EC1, offset: 0x5A452, size: 0x8, addend: 0x0, symName: __ZNSt3__125__debug_db_invalidate_allB7v160006INS_6vectorI5PointNS_9allocatorIS2_EEEEEEvPT_, symObjAddr: 0x3E208, symBinAddr: 0x10004E1BC, symSize: 0x10 }
  - { offsetInCU: 0x26EF1, offset: 0x5A482, size: 0x8, addend: 0x0, symName: __ZNSt3__122__make_exception_guardB7v160006INS_29_AllocatorDestroyRangeReverseINS_9allocatorI5PointEENS_16reverse_iteratorIPS3_EEEEEENS_28__exception_guard_exceptionsIT_EESA_, symObjAddr: 0x3E218, symBinAddr: 0x10004E1CC, symSize: 0x4C }
  - { offsetInCU: 0x26F28, offset: 0x5A4B9, size: 0x8, addend: 0x0, symName: __ZNSt3__119__allocator_destroyB7v160006INS_9allocatorI5PointEENS_16reverse_iteratorINS4_IPS2_EEEES7_EEvRT_T0_T1_, symObjAddr: 0x3E490, symBinAddr: 0x10004E444, symSize: 0x70 }
  - { offsetInCU: 0x26F8C, offset: 0x5A51D, size: 0x8, addend: 0x0, symName: __ZNSt3__1neB7v160006INS_16reverse_iteratorIP5PointEES4_EEbRKNS1_IT_EERKNS1_IT0_EE, symObjAddr: 0x3E53C, symBinAddr: 0x10004E4F0, symSize: 0x60 }
  - { offsetInCU: 0x26FD8, offset: 0x5A569, size: 0x8, addend: 0x0, symName: __ZNSt3__112__to_addressB7v160006INS_16reverse_iteratorINS1_IP5PointEEEEvEENS_5decayIDTclsr19__to_address_helperIT_EE6__callclsr3stdE7declvalIRKS7_EEEEE4typeES9_, symObjAddr: 0x3E59C, symBinAddr: 0x10004E550, symSize: 0x24 }
  - { offsetInCU: 0x27038, offset: 0x5A5C9, size: 0x8, addend: 0x0, symName: __ZNSt3__142__uninitialized_allocator_move_if_noexceptB7v160006INS_9allocatorINS_12basic_stringIcNS_11char_traitsIcEENS1_IcEEEEEENS_16reverse_iteratorIPS6_EESA_SA_EET2_RT_T0_T1_SB_, symObjAddr: 0x3F6B4, symBinAddr: 0x10004EE6C, symSize: 0x11C }
  - { offsetInCU: 0x270DA, offset: 0x5A66B, size: 0x8, addend: 0x0, symName: __ZNSt3__14swapB7v160006IPNS_12basic_stringIcNS_11char_traitsIcEENS_9allocatorIcEEEEEENS_9enable_ifIXaasr21is_move_constructibleIT_EE5valuesr18is_move_assignableIS9_EE5valueEvE4typeERS9_SC_, symObjAddr: 0x3F7D0, symBinAddr: 0x10004EF88, symSize: 0x3C }
  - { offsetInCU: 0x2712C, offset: 0x5A6BD, size: 0x8, addend: 0x0, symName: __ZNSt3__125__debug_db_invalidate_allB7v160006INS_6vectorINS_12basic_stringIcNS_11char_traitsIcEENS_9allocatorIcEEEENS5_IS7_EEEEEEvPT_, symObjAddr: 0x3F80C, symBinAddr: 0x10004EFC4, symSize: 0x10 }
  - { offsetInCU: 0x2715C, offset: 0x5A6ED, size: 0x8, addend: 0x0, symName: __ZNSt3__122__make_exception_guardB7v160006INS_29_AllocatorDestroyRangeReverseINS_9allocatorINS_12basic_stringIcNS_11char_traitsIcEENS2_IcEEEEEENS_16reverse_iteratorIPS7_EEEEEENS_28__exception_guard_exceptionsIT_EESE_, symObjAddr: 0x3F81C, symBinAddr: 0x10004EFD4, symSize: 0x4C }
  - { offsetInCU: 0x27193, offset: 0x5A724, size: 0x8, addend: 0x0, symName: __ZNSt3__119__allocator_destroyB7v160006INS_9allocatorINS_12basic_stringIcNS_11char_traitsIcEENS1_IcEEEEEENS_16reverse_iteratorINS8_IPS6_EEEESB_EEvRT_T0_T1_, symObjAddr: 0x3FAF8, symBinAddr: 0x10004F2B0, symSize: 0x70 }
  - { offsetInCU: 0x271F7, offset: 0x5A788, size: 0x8, addend: 0x0, symName: __ZNSt3__1neB7v160006INS_16reverse_iteratorIPNS_12basic_stringIcNS_11char_traitsIcEENS_9allocatorIcEEEEEES9_EEbRKNS1_IT_EERKNS1_IT0_EE, symObjAddr: 0x3FBA4, symBinAddr: 0x10004F35C, symSize: 0x60 }
  - { offsetInCU: 0x27243, offset: 0x5A7D4, size: 0x8, addend: 0x0, symName: __ZNSt3__112__to_addressB7v160006INS_16reverse_iteratorINS1_IPNS_12basic_stringIcNS_11char_traitsIcEENS_9allocatorIcEEEEEEEEvEENS_5decayIDTclsr19__to_address_helperIT_EE6__callclsr3stdE7declvalIRKSC_EEEEE4typeESE_, symObjAddr: 0x3FC04, symBinAddr: 0x10004F3BC, symSize: 0x24 }
  - { offsetInCU: 0x272A3, offset: 0x5A834, size: 0x8, addend: 0x0, symName: __ZNSt3__110__str_findB7v160006IcmNS_11char_traitsIcEELm18446744073709551615EEET0_PKT_S3_S6_S3_S3_, symObjAddr: 0x406D4, symBinAddr: 0x10004F89C, symSize: 0xE4 }
  - { offsetInCU: 0x2734B, offset: 0x5A8DC, size: 0x8, addend: 0x0, symName: __ZNSt3__118__search_substringB7v160006IcNS_11char_traitsIcEEEEPKT_S5_S5_S5_S5_, symObjAddr: 0x407B8, symBinAddr: 0x10004F980, symSize: 0x154 }
  - { offsetInCU: 0x273E8, offset: 0x5A979, size: 0x8, addend: 0x0, symName: __ZNSt3__14copyB7v160006IPKcPcEET0_T_S5_S4_, symObjAddr: 0x40F64, symBinAddr: 0x100050074, symSize: 0x40 }
  - { offsetInCU: 0x27442, offset: 0x5A9D3, size: 0x8, addend: 0x0, symName: __ZNSt3__16__copyB7v160006INS_17_ClassicAlgPolicyEPKcS3_PcEENS_4pairIT0_T2_EES6_T1_S7_, symObjAddr: 0x40FA4, symBinAddr: 0x1000500B4, symSize: 0x44 }
  - { offsetInCU: 0x274AE, offset: 0x5AA3F, size: 0x8, addend: 0x0, symName: __ZNSt3__123__dispatch_copy_or_moveB7v160006INS_17_ClassicAlgPolicyENS_11__copy_loopIS1_EENS_14__copy_trivialEPKcS6_PcEENS_4pairIT2_T4_EES9_T3_SA_, symObjAddr: 0x40FE8, symBinAddr: 0x1000500F8, symSize: 0x44 }
  - { offsetInCU: 0x2752C, offset: 0x5AABD, size: 0x8, addend: 0x0, symName: __ZNSt3__121__unwrap_and_dispatchB7v160006INS_10__overloadINS_11__copy_loopINS_17_ClassicAlgPolicyEEENS_14__copy_trivialEEEPKcS8_PcLi0EEENS_4pairIT0_T2_EESB_T1_SC_, symObjAddr: 0x4102C, symBinAddr: 0x10005013C, symSize: 0xB4 }
  - { offsetInCU: 0x275BB, offset: 0x5AB4C, size: 0x8, addend: 0x0, symName: __ZNSt3__114__unwrap_rangeB7v160006IPKcS2_EENS_4pairIT0_S4_EET_S6_, symObjAddr: 0x410E0, symBinAddr: 0x1000501F0, symSize: 0x60 }
  - { offsetInCU: 0x2770A, offset: 0x5AC9B, size: 0x8, addend: 0x0, symName: __ZNSt3__113__unwrap_iterB7v160006IPcNS_18__unwrap_iter_implIS1_Lb1EEELi0EEEDTclsrT0_8__unwrapclsr3stdE7declvalIT_EEEES5_, symObjAddr: 0x41188, symBinAddr: 0x100050298, symSize: 0x24 }
  - { offsetInCU: 0x2774F, offset: 0x5ACE0, size: 0x8, addend: 0x0, symName: __ZNSt3__19make_pairB7v160006IPKcPcEENS_4pairINS_18__unwrap_ref_decayIT_E4typeENS5_IT0_E4typeEEEOS6_OS9_, symObjAddr: 0x411AC, symBinAddr: 0x1000502BC, symSize: 0x38 }
  - { offsetInCU: 0x2779E, offset: 0x5AD2F, size: 0x8, addend: 0x0, symName: __ZNSt3__114__rewrap_rangeB7v160006IPKcS2_EET_S3_T0_, symObjAddr: 0x411E4, symBinAddr: 0x1000502F4, symSize: 0x2C }
  - { offsetInCU: 0x277EA, offset: 0x5AD7B, size: 0x8, addend: 0x0, symName: __ZNSt3__113__rewrap_iterB7v160006IPcS1_NS_18__unwrap_iter_implIS1_Lb1EEEEET_S4_T0_, symObjAddr: 0x41210, symBinAddr: 0x100050320, symSize: 0x3C }
  - { offsetInCU: 0x2783F, offset: 0x5ADD0, size: 0x8, addend: 0x0, symName: __ZNSt3__19make_pairB7v160006IPKcS2_EENS_4pairINS_18__unwrap_ref_decayIT_E4typeENS4_IT0_E4typeEEEOS5_OS8_, symObjAddr: 0x4124C, symBinAddr: 0x10005035C, symSize: 0x38 }
  - { offsetInCU: 0x2788E, offset: 0x5AE1F, size: 0x8, addend: 0x0, symName: __ZNSt3__113__unwrap_iterB7v160006IPKcNS_18__unwrap_iter_implIS2_Lb1EEELi0EEEDTclsrT0_8__unwrapclsr3stdE7declvalIT_EEEES6_, symObjAddr: 0x41284, symBinAddr: 0x100050394, symSize: 0x24 }
  - { offsetInCU: 0x279FB, offset: 0x5AF8C, size: 0x8, addend: 0x0, symName: __ZNSt3__119__copy_trivial_implB7v160006IKccEENS_4pairIPT_PT0_EES4_S4_S6_, symObjAddr: 0x4133C, symBinAddr: 0x10005044C, symSize: 0x7C }
  - { offsetInCU: 0x27A63, offset: 0x5AFF4, size: 0x8, addend: 0x0, symName: __ZNSt3__19make_pairB7v160006IRPKcPcEENS_4pairINS_18__unwrap_ref_decayIT_E4typeENS6_IT0_E4typeEEEOS7_OSA_, symObjAddr: 0x413B8, symBinAddr: 0x1000504C8, symSize: 0x38 }
  - { offsetInCU: 0x27B06, offset: 0x5B097, size: 0x8, addend: 0x0, symName: __ZNSt3__113__rewrap_iterB7v160006IPKcS2_NS_18__unwrap_iter_implIS2_Lb1EEEEET_S5_T0_, symObjAddr: 0x414F4, symBinAddr: 0x100050604, symSize: 0x3C }
  - { offsetInCU: 0x27B5B, offset: 0x5B0EC, size: 0x8, addend: 0x0, symName: __ZNSt3__16fill_nB7v160006IPcmcEET_S2_T0_RKT1_, symObjAddr: 0x415C0, symBinAddr: 0x1000506D0, symSize: 0x44 }
  - { offsetInCU: 0x27BBE, offset: 0x5B14F, size: 0x8, addend: 0x0, symName: __ZNSt3__18__fill_nB7v160006IPcmcEET_S2_T0_RKT1_, symObjAddr: 0x41604, symBinAddr: 0x100050714, symSize: 0x64 }
  - { offsetInCU: 0x27C21, offset: 0x5B1B2, size: 0x8, addend: 0x0, symName: __ZNSt3__121__convert_to_integralB7v160006Em, symObjAddr: 0x41668, symBinAddr: 0x100050778, symSize: 0x14 }
  - { offsetInCU: 0x27C4D, offset: 0x5B1DE, size: 0x8, addend: 0x0, symName: __ZNSt3__1eqB7v160006IN8nlohmann16json_abi_v3_11_310basic_jsonINS_3mapENS_6vectorENS_12basic_stringIcNS_11char_traitsIcEENS_9allocatorIcEEEEbxydS9_NS2_14adl_serializerENS5_IhNS9_IhEEEEvEENS9_ISF_EEEEbRKNS5_IT_T0_EESL_, symObjAddr: 0x41694, symBinAddr: 0x1000507A4, symSize: 0x9C }
  - { offsetInCU: 0x27CAC, offset: 0x5B23D, size: 0x8, addend: 0x0, symName: __ZNSt3__1eqB7v160006INS_12basic_stringIcNS_11char_traitsIcEENS_9allocatorIcEEEEN8nlohmann16json_abi_v3_11_310basic_jsonINS_3mapENS_6vectorES6_bxydS4_NS8_14adl_serializerENSB_IhNS4_IhEEEEvEENS_4lessIS6_EENS4_INS_4pairIKS6_SF_EEEEEEbRKNSA_IT_T0_T1_T2_EESS_, symObjAddr: 0x41730, symBinAddr: 0x100050840, symSize: 0x98 }
  - { offsetInCU: 0x27D0D, offset: 0x5B29E, size: 0x8, addend: 0x0, symName: __ZNSt3__15equalB7v160006INS_11__wrap_iterIPKN8nlohmann16json_abi_v3_11_310basic_jsonINS_3mapENS_6vectorENS_12basic_stringIcNS_11char_traitsIcEENS_9allocatorIcEEEEbxydSA_NS3_14adl_serializerENS6_IhNSA_IhEEEEvEEEESJ_EEbT_SK_T0_, symObjAddr: 0x41924, symBinAddr: 0x100050A34, symSize: 0x50 }
  - { offsetInCU: 0x27D67, offset: 0x5B2F8, size: 0x8, addend: 0x0, symName: __ZNSt3__15equalB7v160006INS_11__wrap_iterIPKN8nlohmann16json_abi_v3_11_310basic_jsonINS_3mapENS_6vectorENS_12basic_stringIcNS_11char_traitsIcEENS_9allocatorIcEEEEbxydSA_NS3_14adl_serializerENS6_IhNSA_IhEEEEvEEEESJ_NS_10__equal_toEEEbT_SL_T0_T1_, symObjAddr: 0x41974, symBinAddr: 0x100050A84, symSize: 0xB0 }
  - { offsetInCU: 0x27E75, offset: 0x5B406, size: 0x8, addend: 0x0, symName: __ZNSt3__15equalB7v160006INS_20__map_const_iteratorINS_21__tree_const_iteratorINS_12__value_typeINS_12basic_stringIcNS_11char_traitsIcEENS_9allocatorIcEEEEN8nlohmann16json_abi_v3_11_310basic_jsonINS_3mapENS_6vectorES9_bxydS7_NSB_14adl_serializerENSE_IhNS7_IhEEEEvEEEEPNS_11__tree_nodeISJ_PvEElEEEESP_EEbT_SQ_T0_, symObjAddr: 0x41A58, symBinAddr: 0x100050B68, symSize: 0x50 }
  - { offsetInCU: 0x27ECF, offset: 0x5B460, size: 0x8, addend: 0x0, symName: __ZNSt3__15equalB7v160006INS_20__map_const_iteratorINS_21__tree_const_iteratorINS_12__value_typeINS_12basic_stringIcNS_11char_traitsIcEENS_9allocatorIcEEEEN8nlohmann16json_abi_v3_11_310basic_jsonINS_3mapENS_6vectorES9_bxydS7_NSB_14adl_serializerENSE_IhNS7_IhEEEEvEEEEPNS_11__tree_nodeISJ_PvEElEEEESP_NS_10__equal_toEEEbT_SR_T0_T1_, symObjAddr: 0x41AA8, symBinAddr: 0x100050BB8, symSize: 0xB0 }
  - { offsetInCU: 0x27F40, offset: 0x5B4D1, size: 0x8, addend: 0x0, symName: __ZNSt3__1eqB7v160006IKNS_12basic_stringIcNS_11char_traitsIcEENS_9allocatorIcEEEEN8nlohmann16json_abi_v3_11_310basic_jsonINS_3mapENS_6vectorES6_bxydS4_NS9_14adl_serializerENSC_IhNS4_IhEEEEvEEEEbRKNS_4pairIT_T0_EESM_, symObjAddr: 0x41B8C, symBinAddr: 0x100050C9C, symSize: 0x60 }
  - { offsetInCU: 0x27F8F, offset: 0x5B520, size: 0x8, addend: 0x0, symName: __ZNSt3__1eqB7v160006IJRKNS_6vectorIhNS_9allocatorIhEEEERKyRKbEJS6_S8_SA_EEEbRKNS_5tupleIJDpT_EEERKNSB_IJDpT0_EEE, symObjAddr: 0x41BEC, symBinAddr: 0x100050CFC, symSize: 0x34 }
  - { offsetInCU: 0x27FF6, offset: 0x5B587, size: 0x8, addend: 0x0, symName: __ZNSt3__13tieB7v160006IJKNS_6vectorIhNS_9allocatorIhEEEEKyKbEEENS_5tupleIJDpRT_EEESB_, symObjAddr: 0x41C20, symBinAddr: 0x100050D30, symSize: 0x40 }
  - { offsetInCU: 0x28616, offset: 0x5BBA7, size: 0x8, addend: 0x0, symName: __ZNSt3__13getB7v160006ILm2EJRKNS_6vectorIhNS_9allocatorIhEEEERKyRKbEEERKNS_13tuple_elementIXT_ENS_5tupleIJDpT0_EEEE4typeERKSF_, symObjAddr: 0x41D60, symBinAddr: 0x100050E70, symSize: 0x28 }
  - { offsetInCU: 0x286AA, offset: 0x5BC3B, size: 0x8, addend: 0x0, symName: __ZNSt3__13getB7v160006ILm1EJRKNS_6vectorIhNS_9allocatorIhEEEERKyRKbEEERKNS_13tuple_elementIXT_ENS_5tupleIJDpT0_EEEE4typeERKSF_, symObjAddr: 0x41DFC, symBinAddr: 0x100050F0C, symSize: 0x28 }
  - { offsetInCU: 0x2873E, offset: 0x5BCCF, size: 0x8, addend: 0x0, symName: __ZNSt3__1eqB7v160006IhNS_9allocatorIhEEEEbRKNS_6vectorIT_T0_EES8_, symObjAddr: 0x41E44, symBinAddr: 0x100050F54, symSize: 0x9C }
  - { offsetInCU: 0x2879D, offset: 0x5BD2E, size: 0x8, addend: 0x0, symName: __ZNSt3__13getB7v160006ILm0EJRKNS_6vectorIhNS_9allocatorIhEEEERKyRKbEEERKNS_13tuple_elementIXT_ENS_5tupleIJDpT0_EEEE4typeERKSF_, symObjAddr: 0x41EE0, symBinAddr: 0x100050FF0, symSize: 0x24 }
  - { offsetInCU: 0x287EA, offset: 0x5BD7B, size: 0x8, addend: 0x0, symName: __ZNSt3__15equalB7v160006INS_11__wrap_iterIPKhEES4_EEbT_S5_T0_, symObjAddr: 0x41F04, symBinAddr: 0x100051014, symSize: 0x50 }
  - { offsetInCU: 0x28844, offset: 0x5BDD5, size: 0x8, addend: 0x0, symName: __ZNSt3__15equalB7v160006INS_11__wrap_iterIPKhEES4_NS_10__equal_toEEEbT_S6_T0_T1_, symObjAddr: 0x41F54, symBinAddr: 0x100051064, symSize: 0xB0 }
  - { offsetInCU: 0x288D5, offset: 0x5BE66, size: 0x8, addend: 0x0, symName: __ZNSt3__120__throw_out_of_rangeB7v160006EPKc, symObjAddr: 0x42294, symBinAddr: 0x1000513A4, symSize: 0x64 }
  - { offsetInCU: 0x28F5C, offset: 0x5C4ED, size: 0x8, addend: 0x0, symName: __ZNSt3__116forward_as_tupleB7v160006IJNS_6__bindIM14SpaceSectorBSTFvvEJPS2_EEEEEENS_5tupleIJDpOT_EEESA_, symObjAddr: 0x43028, symBinAddr: 0x1000520D8, symSize: 0x2C }
  - { offsetInCU: 0x28F95, offset: 0x5C526, size: 0x8, addend: 0x0, symName: __ZNSt3__116forward_as_tupleB7v160006IJNS_9allocatorINS_6__bindIM14SpaceSectorBSTFvvEJPS3_EEEEEEEENS_5tupleIJDpOT_EEESC_, symObjAddr: 0x43054, symBinAddr: 0x100052104, symSize: 0x2C }
  - { offsetInCU: 0x28FF8, offset: 0x5C589, size: 0x8, addend: 0x0, symName: __ZNSt3__13getB7v160006ILm0EJONS_6__bindIM14SpaceSectorBSTFvvEJPS2_EEEEEERNS_13tuple_elementIXT_ENS_5tupleIJDpT0_EEEE4typeERSC_, symObjAddr: 0x43374, symBinAddr: 0x100052424, symSize: 0x24 }
  - { offsetInCU: 0x2903A, offset: 0x5C5CB, size: 0x8, addend: 0x0, symName: __ZNSt3__13getB7v160006ILm0EJONS_9allocatorINS_6__bindIM14SpaceSectorBSTFvvEJPS3_EEEEEEEERNS_13tuple_elementIXT_ENS_5tupleIJDpT0_EEEE4typeERSE_, symObjAddr: 0x433B0, symBinAddr: 0x100052460, symSize: 0x24 }
  - { offsetInCU: 0x29209, offset: 0x5C79A, size: 0x8, addend: 0x0, symName: __ZNSt3__116forward_as_tupleB7v160006IJRKNS_6__bindIM14SpaceSectorBSTFvvEJPS2_EEEEEENS_5tupleIJDpOT_EEESC_, symObjAddr: 0x437AC, symBinAddr: 0x10005285C, symSize: 0x2C }
  - { offsetInCU: 0x29257, offset: 0x5C7E8, size: 0x8, addend: 0x0, symName: __ZNSt3__13getB7v160006ILm0EJRKNS_6__bindIM14SpaceSectorBSTFvvEJPS2_EEEEEERNS_13tuple_elementIXT_ENS_5tupleIJDpT0_EEEE4typeERSD_, symObjAddr: 0x439A4, symBinAddr: 0x100052A54, symSize: 0x24 }
  - { offsetInCU: 0x29299, offset: 0x5C82A, size: 0x8, addend: 0x0, symName: __ZNSt3__116forward_as_tupleB7v160006IJRKNS_9allocatorINS_6__bindIM14SpaceSectorBSTFvvEJPS3_EEEEEEEENS_5tupleIJDpOT_EEESE_, symObjAddr: 0x43D00, symBinAddr: 0x100052DB0, symSize: 0x2C }
  - { offsetInCU: 0x292E7, offset: 0x5C878, size: 0x8, addend: 0x0, symName: __ZNSt3__13getB7v160006ILm0EJRKNS_9allocatorINS_6__bindIM14SpaceSectorBSTFvvEJPS3_EEEEEEEERNS_13tuple_elementIXT_ENS_5tupleIJDpT0_EEEE4typeERSF_, symObjAddr: 0x43EE4, symBinAddr: 0x100052F94, symSize: 0x24 }
  - { offsetInCU: 0x2937C, offset: 0x5C90D, size: 0x8, addend: 0x0, symName: __ZNSt3__18__invokeB7v160006IRNS_6__bindIM14SpaceSectorBSTFvvEJPS2_EEEJEEEDTclclsr3stdE7declvalIT_EEspclsr3stdE7declvalIT0_EEEEOS8_DpOS9_, symObjAddr: 0x43FA0, symBinAddr: 0x100053050, symSize: 0x24 }
  - { offsetInCU: 0x293EF, offset: 0x5C980, size: 0x8, addend: 0x0, symName: __ZNSt3__115__apply_functorB7v160006IM14SpaceSectorBSTFvvENS_5tupleIJPS1_EEEJLm0EENS4_IJEEEEENS_13__bind_returnIT_T0_T2_Xsr22__is_valid_bind_returnIS9_SA_SB_EE5valueEE4typeERS9_RSA_NS_15__tuple_indicesIJXspT1_EEEEOSB_, symObjAddr: 0x43FF4, symBinAddr: 0x1000530A4, symSize: 0x48 }
  - { offsetInCU: 0x2946E, offset: 0x5C9FF, size: 0x8, addend: 0x0, symName: __ZNSt3__18__invokeB7v160006IRM14SpaceSectorBSTFvvERPS1_JEvEEDTcldsdeclsr3stdE7declvalIT0_EEclsr3stdE7declvalIT_EEspclsr3stdE7declvalIT1_EEEEOS8_OS7_DpOS9_, symObjAddr: 0x4403C, symBinAddr: 0x1000530EC, symSize: 0x80 }
  - { offsetInCU: 0x294BE, offset: 0x5CA4F, size: 0x8, addend: 0x0, symName: __ZNSt3__14__muB7v160006IP14SpaceSectorBSTNS_5tupleIJEEEEENS_9enable_ifIXaaaantsr18is_bind_expressionIT_EE5valueeqsr14is_placeholderIS6_EE5valueLi0Entsr22__is_reference_wrapperIS6_EE5valueERS6_E4typeES7_RT0_, symObjAddr: 0x440BC, symBinAddr: 0x10005316C, symSize: 0x18 }
  - { offsetInCU: 0x29506, offset: 0x5CA97, size: 0x8, addend: 0x0, symName: __ZNSt3__13getB7v160006ILm0EJP14SpaceSectorBSTEEERNS_13tuple_elementIXT_ENS_5tupleIJDpT0_EEEE4typeERS7_, symObjAddr: 0x440D4, symBinAddr: 0x100053184, symSize: 0x24 }
  - { offsetInCU: 0x2988A, offset: 0x5CE1B, size: 0x8, addend: 0x0, symName: __ZNSt3__1neB7v160006INS_12basic_stringIcNS_11char_traitsIcEENS_9allocatorIcEEEEZN8nlohmann16json_abi_v3_11_310basic_jsonINS_3mapENS_6vectorES6_bxydS4_NS8_14adl_serializerENSB_IhNS4_IhEEEEvE6createIS6_JS6_EEEPT_DpOT0_EUlPS6_E_EEbRKNS_10unique_ptrISH_T0_EEDn, symObjAddr: 0x446F0, symBinAddr: 0x1000537A0, symSize: 0x2C }
  - { offsetInCU: 0x29A43, offset: 0x5CFD4, size: 0x8, addend: 0x0, symName: '__ZNSt3__116forward_as_tupleB7v160006IJZ11test_outputvE3$_0EEENS_5tupleIJDpOT_EEES5_', symObjAddr: 0x45190, symBinAddr: 0x100054240, symSize: 0x2C }
  - { offsetInCU: 0x29A7D, offset: 0x5D00E, size: 0x8, addend: 0x0, symName: '__ZNSt3__116forward_as_tupleB7v160006IJNS_9allocatorIZ11test_outputvE3$_0EEEEENS_5tupleIJDpOT_EEES7_', symObjAddr: 0x451BC, symBinAddr: 0x10005426C, symSize: 0x2C }
  - { offsetInCU: 0x29AE1, offset: 0x5D072, size: 0x8, addend: 0x0, symName: '__ZNSt3__13getB7v160006ILm0EJOZ11test_outputvE3$_0EEERNS_13tuple_elementIXT_ENS_5tupleIJDpT0_EEEE4typeERS7_', symObjAddr: 0x454D4, symBinAddr: 0x100054584, symSize: 0x24 }
  - { offsetInCU: 0x29B24, offset: 0x5D0B5, size: 0x8, addend: 0x0, symName: '__ZNSt3__13getB7v160006ILm0EJONS_9allocatorIZ11test_outputvE3$_0EEEEERNS_13tuple_elementIXT_ENS_5tupleIJDpT0_EEEE4typeERS9_', symObjAddr: 0x45510, symBinAddr: 0x1000545C0, symSize: 0x24 }
  - { offsetInCU: 0x2A070, offset: 0x5D601, size: 0x8, addend: 0x0, symName: '__ZNSt3__116forward_as_tupleB7v160006IJRKZ11test_outputvE3$_0EEENS_5tupleIJDpOT_EEES7_', symObjAddr: 0x45AA4, symBinAddr: 0x100054B54, symSize: 0x2C }
  - { offsetInCU: 0x2A0BF, offset: 0x5D650, size: 0x8, addend: 0x0, symName: '__ZNSt3__13getB7v160006ILm0EJRKZ11test_outputvE3$_0EEERNS_13tuple_elementIXT_ENS_5tupleIJDpT0_EEEE4typeERS8_', symObjAddr: 0x45C94, symBinAddr: 0x100054D44, symSize: 0x24 }
  - { offsetInCU: 0x2A102, offset: 0x5D693, size: 0x8, addend: 0x0, symName: '__ZNSt3__116forward_as_tupleB7v160006IJRKNS_9allocatorIZ11test_outputvE3$_0EEEEENS_5tupleIJDpOT_EEES9_', symObjAddr: 0x45FF0, symBinAddr: 0x1000550A0, symSize: 0x2C }
  - { offsetInCU: 0x2A151, offset: 0x5D6E2, size: 0x8, addend: 0x0, symName: '__ZNSt3__13getB7v160006ILm0EJRKNS_9allocatorIZ11test_outputvE3$_0EEEEERNS_13tuple_elementIXT_ENS_5tupleIJDpT0_EEEE4typeERSA_', symObjAddr: 0x461D4, symBinAddr: 0x100055284, symSize: 0x24 }
  - { offsetInCU: 0x2A194, offset: 0x5D725, size: 0x8, addend: 0x0, symName: '__ZNSt3__18__invokeB7v160006IRZ11test_outputvE3$_0JEEEDTclclsr3stdE7declvalIT_EEspclsr3stdE7declvalIT0_EEEEOS3_DpOS4_', symObjAddr: 0x46290, symBinAddr: 0x100055340, symSize: 0x24 }
  - { offsetInCU: 0x2ACFD, offset: 0x5E28E, size: 0x8, addend: 0x0, symName: _EXPECTED_INIT_BST_PATH, symObjAddr: 0x2354B0, symBinAddr: 0x100064020, symSize: 0x0 }
  - { offsetInCU: 0x2AD13, offset: 0x5E2A4, size: 0x8, addend: 0x0, symName: _EXPECTED_INIT_LLRBT_PATH, symObjAddr: 0x2354C8, symBinAddr: 0x100064038, symSize: 0x0 }
  - { offsetInCU: 0x2AD29, offset: 0x5E2BA, size: 0x8, addend: 0x0, symName: _NODES_TO_DELETE_BST_PATH, symObjAddr: 0x2354E0, symBinAddr: 0x100064050, symSize: 0x0 }
  - { offsetInCU: 0x2AD3F, offset: 0x5E2D0, size: 0x8, addend: 0x0, symName: _EXPECTED_DELETE_BST_PATH, symObjAddr: 0x2354F8, symBinAddr: 0x100064068, symSize: 0x0 }
  - { offsetInCU: 0x2AD55, offset: 0x5E2E6, size: 0x8, addend: 0x0, symName: _EXPECTED_TRAVERSALS_BST_PATH, symObjAddr: 0x235510, symBinAddr: 0x100064080, symSize: 0x0 }
  - { offsetInCU: 0x2AD6B, offset: 0x5E2FC, size: 0x8, addend: 0x0, symName: _NODES_TO_FIND_BST_PATH, symObjAddr: 0x235528, symBinAddr: 0x100064098, symSize: 0x0 }
  - { offsetInCU: 0x2AD81, offset: 0x5E312, size: 0x8, addend: 0x0, symName: _NODES_TO_FIND_LLRBT_PATH, symObjAddr: 0x235540, symBinAddr: 0x1000640B0, symSize: 0x0 }
  - { offsetInCU: 0x2AD97, offset: 0x5E328, size: 0x8, addend: 0x0, symName: _EXPECTED_STELLAR_PATH_BST_PATH, symObjAddr: 0x235558, symBinAddr: 0x1000640C8, symSize: 0x0 }
  - { offsetInCU: 0x2ADAD, offset: 0x5E33E, size: 0x8, addend: 0x0, symName: _EXPECTED_STELLAR_PATH_LLRBT_PATH, symObjAddr: 0x235570, symBinAddr: 0x1000640E0, symSize: 0x0 }
  - { offsetInCU: 0x2ADC3, offset: 0x5E354, size: 0x8, addend: 0x0, symName: _EXPECTED_OUTPUT_PATH, symObjAddr: 0x235588, symBinAddr: 0x1000640F8, symSize: 0x0 }
  - { offsetInCU: 0x2ADD9, offset: 0x5E36A, size: 0x8, addend: 0x0, symName: _NODES_TO_FIND_BST_OUTPUT_PATH, symObjAddr: 0x2355A0, symBinAddr: 0x100064110, symSize: 0x0 }
  - { offsetInCU: 0x2ADEF, offset: 0x5E380, size: 0x8, addend: 0x0, symName: _NODES_TO_FIND_LLRBT_OUTPUT_PATH, symObjAddr: 0x2355B8, symBinAddr: 0x100064128, symSize: 0x0 }
  - { offsetInCU: 0x2AE05, offset: 0x5E396, size: 0x8, addend: 0x0, symName: _BONUS_DATA_SIMPLE_FILE, symObjAddr: 0x2355D0, symBinAddr: 0x100064140, symSize: 0x0 }
  - { offsetInCU: 0x2AE1B, offset: 0x5E3AC, size: 0x8, addend: 0x0, symName: _BONUS_DATA_SIMPLE_FILE_EXPECTED, symObjAddr: 0x2355E8, symBinAddr: 0x100064158, symSize: 0x0 }
  - { offsetInCU: 0x2AE31, offset: 0x5E3C2, size: 0x8, addend: 0x0, symName: _BONUS_DATA_COMPLEX_FILE, symObjAddr: 0x235600, symBinAddr: 0x100064170, symSize: 0x0 }
  - { offsetInCU: 0x2AE47, offset: 0x5E3D8, size: 0x8, addend: 0x0, symName: _BONUS_DATA_COMPLEX_FILE_EXPECTED, symObjAddr: 0x235618, symBinAddr: 0x100064188, symSize: 0x0 }
  - { offsetInCU: 0x2AE67, offset: 0x5E3F8, size: 0x8, addend: 0x0, symName: __ZN8nlohmann16json_abi_v3_11_36detail12static_constINS1_10to_json_fnEE5valueE, symObjAddr: 0x4AA60, symBinAddr: 0x100057A78, symSize: 0x0 }
  - { offsetInCU: 0x2C1AB, offset: 0x5F73C, size: 0x8, addend: 0x0, symName: __ZN8nlohmann16json_abi_v3_11_36detail9dtoa_impl36get_cached_power_for_binary_exponentEi, symObjAddr: 0x1DE34, symBinAddr: 0x10002F8B8, symSize: 0x22C }
  - { offsetInCU: 0x2C1D7, offset: 0x5F768, size: 0x8, addend: 0x0, symName: __ZZN8nlohmann16json_abi_v3_11_36detail9dtoa_impl36get_cached_power_for_binary_exponentEiE13kCachedPowers, symObjAddr: 0x4AFB0, symBinAddr: 0x100057FC8, symSize: 0x0 }
  - { offsetInCU: 0x2C2B1, offset: 0x5F842, size: 0x8, addend: 0x0, symName: __ZN8nlohmann16json_abi_v3_11_36detail9dtoa_impl6grisu2IdEEvPcRiS5_T_, symObjAddr: 0x1D3A8, symBinAddr: 0x10002EE2C, symSize: 0xEC }
  - { offsetInCU: 0x2C321, offset: 0x5F8B2, size: 0x8, addend: 0x0, symName: __ZN8nlohmann16json_abi_v3_11_36detail9dtoa_impl13format_bufferEPciiii, symObjAddr: 0x1D494, symBinAddr: 0x10002EF18, symSize: 0x36C }
  - { offsetInCU: 0x2C3AB, offset: 0x5F93C, size: 0x8, addend: 0x0, symName: __ZN8nlohmann16json_abi_v3_11_36detail9dtoa_impl18compute_boundariesIdEENS2_10boundariesET_, symObjAddr: 0x1D800, symBinAddr: 0x10002F284, symSize: 0x24C }
  - { offsetInCU: 0x2C4C8, offset: 0x5FA59, size: 0x8, addend: 0x0, symName: __ZN8nlohmann16json_abi_v3_11_36detail9dtoa_impl6grisu2EPcRiS4_NS2_5diyfpES5_S5_, symObjAddr: 0x1DA4C, symBinAddr: 0x10002F4D0, symSize: 0x1C0 }
  - { offsetInCU: 0x2C5B7, offset: 0x5FB48, size: 0x8, addend: 0x0, symName: __ZN8nlohmann16json_abi_v3_11_36detail9dtoa_impl16reinterpret_bitsIydEET_T0_, symObjAddr: 0x1DC0C, symBinAddr: 0x10002F690, symSize: 0x1C }
  - { offsetInCU: 0x2C6BA, offset: 0x5FC4B, size: 0x8, addend: 0x0, symName: __ZN8nlohmann16json_abi_v3_11_36detail9dtoa_impl16grisu2_digit_genEPcRiS4_NS2_5diyfpES5_S5_, symObjAddr: 0x1E1A0, symBinAddr: 0x10002FC24, symSize: 0x4A4 }
  - { offsetInCU: 0x2C86B, offset: 0x5FDFC, size: 0x8, addend: 0x0, symName: __ZN8nlohmann16json_abi_v3_11_36detail9dtoa_impl18find_largest_pow10EjRj, symObjAddr: 0x1E760, symBinAddr: 0x1000301E4, symSize: 0x1F8 }
  - { offsetInCU: 0x2C8A8, offset: 0x5FE39, size: 0x8, addend: 0x0, symName: __ZN8nlohmann16json_abi_v3_11_36detail9dtoa_impl12grisu2_roundEPciyyyy, symObjAddr: 0x1E958, symBinAddr: 0x1000303DC, symSize: 0x24C }
  - { offsetInCU: 0x2C91C, offset: 0x5FEAD, size: 0x8, addend: 0x0, symName: __ZN8nlohmann16json_abi_v3_11_36detail9dtoa_impl15append_exponentEPci, symObjAddr: 0x1EBC0, symBinAddr: 0x100030644, symSize: 0x220 }
  - { offsetInCU: 0x2C9A3, offset: 0x5FF34, size: 0x8, addend: 0x0, symName: __ZN8nlohmann16json_abi_v3_11_36detail12static_constINS1_12from_json_fnEE5valueE, symObjAddr: 0x4B4A0, symBinAddr: 0x1000584B8, symSize: 0x0 }
  - { offsetInCU: 0x2D24C, offset: 0x607DD, size: 0x8, addend: 0x0, symName: __ZN8nlohmann16json_abi_v3_11_36detail6concatINSt3__112basic_stringIcNS3_11char_traitsIcEENS3_9allocatorIcEEEEJS9_S9_RKS9_EEET_DpOT0_, symObjAddr: 0x1484C, symBinAddr: 0x100026550, symSize: 0xD8 }
  - { offsetInCU: 0x2D2C7, offset: 0x60858, size: 0x8, addend: 0x0, symName: __ZN8nlohmann16json_abi_v3_11_36detail13concat_lengthINSt3__112basic_stringIcNS3_11char_traitsIcEENS3_9allocatorIcEEEEJS9_S9_EEEmRKT_DpRKT0_, symObjAddr: 0x14A60, symBinAddr: 0x100026740, symSize: 0x48 }
  - { offsetInCU: 0x2D32D, offset: 0x608BE, size: 0x8, addend: 0x0, symName: __ZN8nlohmann16json_abi_v3_11_36detail11concat_intoINSt3__112basic_stringIcNS3_11char_traitsIcEENS3_9allocatorIcEEEES9_JS9_RKS9_ELi0EEEvRT_OT0_DpOT1_, symObjAddr: 0x14AA8, symBinAddr: 0x100026788, symSize: 0x44 }
  - { offsetInCU: 0x2D3AC, offset: 0x6093D, size: 0x8, addend: 0x0, symName: __ZN8nlohmann16json_abi_v3_11_36detail13concat_lengthINSt3__112basic_stringIcNS3_11char_traitsIcEENS3_9allocatorIcEEEEJS9_EEEmRKT_DpRKT0_, symObjAddr: 0x14AEC, symBinAddr: 0x1000267CC, symSize: 0x40 }
  - { offsetInCU: 0x2D3FD, offset: 0x6098E, size: 0x8, addend: 0x0, symName: __ZN8nlohmann16json_abi_v3_11_36detail13concat_lengthINSt3__112basic_stringIcNS3_11char_traitsIcEENS3_9allocatorIcEEEEJEEEmRKT_DpRKT0_, symObjAddr: 0x14B2C, symBinAddr: 0x10002680C, symSize: 0x38 }
  - { offsetInCU: 0x2D43A, offset: 0x609CB, size: 0x8, addend: 0x0, symName: __ZN8nlohmann16json_abi_v3_11_36detail13concat_lengthEv, symObjAddr: 0x14B64, symBinAddr: 0x100026844, symSize: 0x8 }
  - { offsetInCU: 0x2D459, offset: 0x609EA, size: 0x8, addend: 0x0, symName: __ZN8nlohmann16json_abi_v3_11_36detail11concat_intoINSt3__112basic_stringIcNS3_11char_traitsIcEENS3_9allocatorIcEEEES9_JRKS9_ELi0EEEvRT_OT0_DpOT1_, symObjAddr: 0x14BB8, symBinAddr: 0x10002684C, symSize: 0x3C }
  - { offsetInCU: 0x2D4C5, offset: 0x60A56, size: 0x8, addend: 0x0, symName: __ZN8nlohmann16json_abi_v3_11_36detail11concat_intoINSt3__112basic_stringIcNS3_11char_traitsIcEENS3_9allocatorIcEEEERKS9_JELi0EEEvRT_OT0_DpOT1_, symObjAddr: 0x14BF4, symBinAddr: 0x100026888, symSize: 0x34 }
  - { offsetInCU: 0x2D51C, offset: 0x60AAD, size: 0x8, addend: 0x0, symName: __ZN8nlohmann16json_abi_v3_11_36detail11concat_intoINSt3__112basic_stringIcNS3_11char_traitsIcEENS3_9allocatorIcEEEEEEvRT_, symObjAddr: 0x14C28, symBinAddr: 0x1000268BC, symSize: 0x10 }
  - { offsetInCU: 0x2D54B, offset: 0x60ADC, size: 0x8, addend: 0x0, symName: __ZN8nlohmann16json_abi_v3_11_36detail6concatINSt3__112basic_stringIcNS3_11char_traitsIcEENS3_9allocatorIcEEEEJRA17_KcRKS9_cS9_RA3_SA_EEET_DpOT0_, symObjAddr: 0x14C38, symBinAddr: 0x1000268CC, symSize: 0xF0 }
  - { offsetInCU: 0x2D5EE, offset: 0x60B7F, size: 0x8, addend: 0x0, symName: __ZN8nlohmann16json_abi_v3_11_36detail13concat_lengthIJNSt3__112basic_stringIcNS3_11char_traitsIcEENS3_9allocatorIcEEEEcS9_A3_cEEEmPKcDpRKT_, symObjAddr: 0x14D28, symBinAddr: 0x1000269BC, symSize: 0x58 }
  - { offsetInCU: 0x2D673, offset: 0x60C04, size: 0x8, addend: 0x0, symName: __ZN8nlohmann16json_abi_v3_11_36detail11concat_intoINSt3__112basic_stringIcNS3_11char_traitsIcEENS3_9allocatorIcEEEERA17_KcJRKS9_cS9_RA3_SA_ELi0EEEvRT_OT0_DpOT1_, symObjAddr: 0x14D80, symBinAddr: 0x100026A14, symSize: 0x54 }
  - { offsetInCU: 0x2D71A, offset: 0x60CAB, size: 0x8, addend: 0x0, symName: __ZN8nlohmann16json_abi_v3_11_36detail13concat_lengthINSt3__112basic_stringIcNS3_11char_traitsIcEENS3_9allocatorIcEEEEJcS9_A3_cEEEmRKT_DpRKT0_, symObjAddr: 0x14DD4, symBinAddr: 0x100026A68, symSize: 0x54 }
  - { offsetInCU: 0x2D793, offset: 0x60D24, size: 0x8, addend: 0x0, symName: __ZN8nlohmann16json_abi_v3_11_36detail13concat_lengthIJNSt3__112basic_stringIcNS3_11char_traitsIcEENS3_9allocatorIcEEEEA3_cEEEmcDpRKT_, symObjAddr: 0x14E28, symBinAddr: 0x100026ABC, symSize: 0x34 }
  - { offsetInCU: 0x2D7EB, offset: 0x60D7C, size: 0x8, addend: 0x0, symName: __ZN8nlohmann16json_abi_v3_11_36detail13concat_lengthINSt3__112basic_stringIcNS3_11char_traitsIcEENS3_9allocatorIcEEEEJA3_cEEEmRKT_DpRKT0_, symObjAddr: 0x14E5C, symBinAddr: 0x100026AF0, symSize: 0x40 }
  - { offsetInCU: 0x2D83C, offset: 0x60DCD, size: 0x8, addend: 0x0, symName: __ZN8nlohmann16json_abi_v3_11_36detail13concat_lengthIJEEEmPKcDpRKT_, symObjAddr: 0x14E9C, symBinAddr: 0x100026B30, symSize: 0x38 }
  - { offsetInCU: 0x2D870, offset: 0x60E01, size: 0x8, addend: 0x0, symName: __ZN8nlohmann16json_abi_v3_11_36detail11concat_intoINSt3__112basic_stringIcNS3_11char_traitsIcEENS3_9allocatorIcEEEERKS9_JcS9_RA3_KcELi0EEEvRT_OT0_DpOT1_, symObjAddr: 0x14ED4, symBinAddr: 0x100026B68, symSize: 0x4C }
  - { offsetInCU: 0x2D904, offset: 0x60E95, size: 0x8, addend: 0x0, symName: __ZN8nlohmann16json_abi_v3_11_36detail11concat_intoINSt3__112basic_stringIcNS3_11char_traitsIcEENS3_9allocatorIcEEEEcJS9_RA3_KcELi0EEEvRT_OT0_DpOT1_, symObjAddr: 0x14F20, symBinAddr: 0x100026BB4, symSize: 0x48 }
  - { offsetInCU: 0x2D984, offset: 0x60F15, size: 0x8, addend: 0x0, symName: __ZN8nlohmann16json_abi_v3_11_36detail11concat_intoINSt3__112basic_stringIcNS3_11char_traitsIcEENS3_9allocatorIcEEEES9_JRA3_KcELi0EEEvRT_OT0_DpOT1_, symObjAddr: 0x14F9C, symBinAddr: 0x100026C30, symSize: 0x3C }
  - { offsetInCU: 0x2D9F0, offset: 0x60F81, size: 0x8, addend: 0x0, symName: __ZN8nlohmann16json_abi_v3_11_36detail11concat_intoINSt3__112basic_stringIcNS3_11char_traitsIcEENS3_9allocatorIcEEEERA3_KcJELi0EEEvRT_OT0_DpOT1_, symObjAddr: 0x14FD8, symBinAddr: 0x100026C6C, symSize: 0x34 }
  - { offsetInCU: 0x2DB1D, offset: 0x610AE, size: 0x8, addend: 0x0, symName: __ZN8nlohmann16json_abi_v3_11_36detail6concatINSt3__112basic_stringIcNS3_11char_traitsIcEENS3_9allocatorIcEEEEJRA51_KcPSA_EEET_DpOT0_, symObjAddr: 0x15590, symBinAddr: 0x100027224, symSize: 0xCC }
  - { offsetInCU: 0x2DB84, offset: 0x61115, size: 0x8, addend: 0x0, symName: __ZN8nlohmann16json_abi_v3_11_36detail13concat_lengthIJPKcEEEmS4_DpRKT_, symObjAddr: 0x16E7C, symBinAddr: 0x1000289A8, symSize: 0x44 }
  - { offsetInCU: 0x2DBCD, offset: 0x6115E, size: 0x8, addend: 0x0, symName: __ZN8nlohmann16json_abi_v3_11_36detail11concat_intoINSt3__112basic_stringIcNS3_11char_traitsIcEENS3_9allocatorIcEEEERA51_KcJPSA_ELi0EEEvRT_OT0_DpOT1_, symObjAddr: 0x16EC0, symBinAddr: 0x1000289EC, symSize: 0x3C }
  - { offsetInCU: 0x2DC39, offset: 0x611CA, size: 0x8, addend: 0x0, symName: __ZN8nlohmann16json_abi_v3_11_36detail11concat_intoINSt3__112basic_stringIcNS3_11char_traitsIcEENS3_9allocatorIcEEEEPKcJELi0EEEvRT_OT0_DpOT1_, symObjAddr: 0x16EFC, symBinAddr: 0x100028A28, symSize: 0x38 }
  - { offsetInCU: 0x2DC90, offset: 0x61221, size: 0x8, addend: 0x0, symName: __ZN8nlohmann16json_abi_v3_11_36detail7to_jsonINS0_10basic_jsonINSt3__13mapENS4_6vectorENS4_12basic_stringIcNS4_11char_traitsIcEENS4_9allocatorIcEEEEbxydSA_NS0_14adl_serializerENS6_IhNSA_IhEEEEvEEiLi0EEEvRT_T0_, symObjAddr: 0x1706C, symBinAddr: 0x100028B98, symSize: 0x2C }
  - { offsetInCU: 0x2DD13, offset: 0x612A4, size: 0x8, addend: 0x0, symName: __ZN8nlohmann16json_abi_v3_11_36detail7to_jsonINS0_10basic_jsonINSt3__13mapENS4_6vectorENS4_12basic_stringIcNS4_11char_traitsIcEENS4_9allocatorIcEEEEbxydSA_NS0_14adl_serializerENS6_IhNSA_IhEEEEvEEdLi0EEEvRT_T0_, symObjAddr: 0x17298, symBinAddr: 0x100028DC4, symSize: 0x2C }
  - { offsetInCU: 0x2DD96, offset: 0x61327, size: 0x8, addend: 0x0, symName: __ZN8nlohmann16json_abi_v3_11_36detail7to_jsonINS0_10basic_jsonINSt3__13mapENS4_6vectorENS4_12basic_stringIcNS4_11char_traitsIcEENS4_9allocatorIcEEEEbxydSA_NS0_14adl_serializerENS6_IhNSA_IhEEEEvEESC_Li0EEEvRT_RKT0_, symObjAddr: 0x17470, symBinAddr: 0x100028F9C, symSize: 0x2C }
  - { offsetInCU: 0x2DE39, offset: 0x613CA, size: 0x8, addend: 0x0, symName: __ZN8nlohmann16json_abi_v3_11_36detail7to_jsonINS0_10basic_jsonINSt3__13mapENS4_6vectorENS4_12basic_stringIcNS4_11char_traitsIcEENS4_9allocatorIcEEEEbxydSA_NS0_14adl_serializerENS6_IhNSA_IhEEEEvEEbLi0EEEvRT_T0_, symObjAddr: 0x17B20, symBinAddr: 0x10002964C, symSize: 0x38 }
  - { offsetInCU: 0x2DEBB, offset: 0x6144C, size: 0x8, addend: 0x0, symName: __ZN8nlohmann16json_abi_v3_11_36detail6concatINSt3__112basic_stringIcNS3_11char_traitsIcEENS3_9allocatorIcEEEEJRA29_KcPSA_EEET_DpOT0_, symObjAddr: 0x17CD8, symBinAddr: 0x100029804, symSize: 0xC4 }
  - { offsetInCU: 0x2DF23, offset: 0x614B4, size: 0x8, addend: 0x0, symName: __ZN8nlohmann16json_abi_v3_11_36detail11concat_intoINSt3__112basic_stringIcNS3_11char_traitsIcEENS3_9allocatorIcEEEERA29_KcJPSA_ELi0EEEvRT_OT0_DpOT1_, symObjAddr: 0x17D9C, symBinAddr: 0x1000298C8, symSize: 0x3C }
  - { offsetInCU: 0x2DF8E, offset: 0x6151F, size: 0x8, addend: 0x0, symName: __ZN8nlohmann16json_abi_v3_11_36detail6concatINSt3__112basic_stringIcNS3_11char_traitsIcEENS3_9allocatorIcEEEEJRA29_KcS9_RA5_SA_S9_EEET_DpOT0_, symObjAddr: 0x1C0E0, symBinAddr: 0x10002DB64, symSize: 0xE4 }
  - { offsetInCU: 0x2E414, offset: 0x619A5, size: 0x8, addend: 0x0, symName: __ZN8nlohmann16json_abi_v3_11_36detail6concatINSt3__112basic_stringIcNS3_11char_traitsIcEENS3_9allocatorIcEEEEJRA39_KcS9_EEET_DpOT0_, symObjAddr: 0x1C2D4, symBinAddr: 0x10002DD58, symSize: 0xCC }
  - { offsetInCU: 0x2E47B, offset: 0x61A0C, size: 0x8, addend: 0x0, symName: __ZN8nlohmann16json_abi_v3_11_36detail13concat_lengthIJNSt3__112basic_stringIcNS3_11char_traitsIcEENS3_9allocatorIcEEEEA5_cS9_EEEmPKcDpRKT_, symObjAddr: 0x1C41C, symBinAddr: 0x10002DEA0, symSize: 0x50 }
  - { offsetInCU: 0x2E4EC, offset: 0x61A7D, size: 0x8, addend: 0x0, symName: __ZN8nlohmann16json_abi_v3_11_36detail11concat_intoINSt3__112basic_stringIcNS3_11char_traitsIcEENS3_9allocatorIcEEEERA29_KcJS9_RA5_SA_S9_ELi0EEEvRT_OT0_DpOT1_, symObjAddr: 0x1C46C, symBinAddr: 0x10002DEF0, symSize: 0x4C }
  - { offsetInCU: 0x2E57F, offset: 0x61B10, size: 0x8, addend: 0x0, symName: __ZN8nlohmann16json_abi_v3_11_36detail13concat_lengthINSt3__112basic_stringIcNS3_11char_traitsIcEENS3_9allocatorIcEEEEJA5_cS9_EEEmRKT_DpRKT0_, symObjAddr: 0x1C4B8, symBinAddr: 0x10002DF3C, symSize: 0x48 }
  - { offsetInCU: 0x2E5E4, offset: 0x61B75, size: 0x8, addend: 0x0, symName: __ZN8nlohmann16json_abi_v3_11_36detail13concat_lengthIJNSt3__112basic_stringIcNS3_11char_traitsIcEENS3_9allocatorIcEEEEEEEmPKcDpRKT_, symObjAddr: 0x1C500, symBinAddr: 0x10002DF84, symSize: 0x40 }
  - { offsetInCU: 0x2E62D, offset: 0x61BBE, size: 0x8, addend: 0x0, symName: __ZN8nlohmann16json_abi_v3_11_36detail11concat_intoINSt3__112basic_stringIcNS3_11char_traitsIcEENS3_9allocatorIcEEEES9_JRA5_KcS9_ELi0EEEvRT_OT0_DpOT1_, symObjAddr: 0x1C540, symBinAddr: 0x10002DFC4, symSize: 0x44 }
  - { offsetInCU: 0x2E6AD, offset: 0x61C3E, size: 0x8, addend: 0x0, symName: __ZN8nlohmann16json_abi_v3_11_36detail11concat_intoINSt3__112basic_stringIcNS3_11char_traitsIcEENS3_9allocatorIcEEEERA5_KcJS9_ELi0EEEvRT_OT0_DpOT1_, symObjAddr: 0x1C584, symBinAddr: 0x10002E008, symSize: 0x3C }
  - { offsetInCU: 0x2E719, offset: 0x61CAA, size: 0x8, addend: 0x0, symName: __ZN8nlohmann16json_abi_v3_11_36detail11concat_intoINSt3__112basic_stringIcNS3_11char_traitsIcEENS3_9allocatorIcEEEES9_JELi0EEEvRT_OT0_DpOT1_, symObjAddr: 0x1C5C0, symBinAddr: 0x10002E044, symSize: 0x34 }
  - { offsetInCU: 0x2E770, offset: 0x61D01, size: 0x8, addend: 0x0, symName: __ZN8nlohmann16json_abi_v3_11_36detail11concat_intoINSt3__112basic_stringIcNS3_11char_traitsIcEENS3_9allocatorIcEEEERA39_KcJS9_ELi0EEEvRT_OT0_DpOT1_, symObjAddr: 0x1C678, symBinAddr: 0x10002E0FC, symSize: 0x3C }
  - { offsetInCU: 0x2E7DB, offset: 0x61D6C, size: 0x8, addend: 0x0, symName: __ZN8nlohmann16json_abi_v3_11_36detail8to_charsIdEEPcS3_PKcT_, symObjAddr: 0x1D118, symBinAddr: 0x10002EB9C, symSize: 0x26C }
  - { offsetInCU: 0x2E886, offset: 0x61E17, size: 0x8, addend: 0x0, symName: __ZN8nlohmann16json_abi_v3_11_36detail9from_jsonINS0_10basic_jsonINSt3__13mapENS4_6vectorENS4_12basic_stringIcNS4_11char_traitsIcEENS4_9allocatorIcEEEEbxydSA_NS0_14adl_serializerENS6_IhNSA_IhEEEEvEEiLi0EEEvRKT_RT0_, symObjAddr: 0x1F384, symBinAddr: 0x100030E08, symSize: 0x1A0 }
  - { offsetInCU: 0x2E8D8, offset: 0x61E69, size: 0x8, addend: 0x0, symName: __ZN8nlohmann16json_abi_v3_11_36detail9from_jsonINS0_10basic_jsonINSt3__13mapENS4_6vectorENS4_12basic_stringIcNS4_11char_traitsIcEENS4_9allocatorIcEEEEbxydSA_NS0_14adl_serializerENS6_IhNSA_IhEEEEvEEEEvRKT_RNSH_14number_float_tE, symObjAddr: 0x1F8D0, symBinAddr: 0x100031354, symSize: 0x2C }
  - { offsetInCU: 0x2E91A, offset: 0x61EAB, size: 0x8, addend: 0x0, symName: __ZN8nlohmann16json_abi_v3_11_36detail20get_arithmetic_valueINS0_10basic_jsonINSt3__13mapENS4_6vectorENS4_12basic_stringIcNS4_11char_traitsIcEENS4_9allocatorIcEEEEbxydSA_NS0_14adl_serializerENS6_IhNSA_IhEEEEvEEdLi0EEEvRKT_RT0_, symObjAddr: 0x1F8FC, symBinAddr: 0x100031380, symSize: 0x188 }
  - { offsetInCU: 0x2E96C, offset: 0x61EFD, size: 0x8, addend: 0x0, symName: __ZN8nlohmann16json_abi_v3_11_36detail9from_jsonINS0_10basic_jsonINSt3__13mapENS4_6vectorENS4_12basic_stringIcNS4_11char_traitsIcEENS4_9allocatorIcEEEEbxydSA_NS0_14adl_serializerENS6_IhNSA_IhEEEEvEENS4_17basic_string_viewIcS9_EELi0EEEvRKT_RT0_, symObjAddr: 0x1FC64, symBinAddr: 0x1000316E8, symSize: 0x124 }
  - { offsetInCU: 0x2E9BE, offset: 0x61F4F, size: 0x8, addend: 0x0, symName: __ZN8nlohmann16json_abi_v3_11_36detail9from_jsonINS0_10basic_jsonINSt3__13mapENS4_6vectorENS4_12basic_stringIcNS4_11char_traitsIcEENS4_9allocatorIcEEEEbxydSA_NS0_14adl_serializerENS6_IhNSA_IhEEEEvEEEEvRKT_RNSH_9boolean_tE, symObjAddr: 0x1FEE8, symBinAddr: 0x10003196C, symSize: 0x11C }
  - { offsetInCU: 0x2E9FF, offset: 0x61F90, size: 0x8, addend: 0x0, symName: __ZN8nlohmann16json_abi_v3_11_36detail6concatINSt3__112basic_stringIcNS3_11char_traitsIcEENS3_9allocatorIcEEEEJRA30_KcPSA_EEET_DpOT0_, symObjAddr: 0x20004, symBinAddr: 0x100031A88, symSize: 0xC4 }
  - { offsetInCU: 0x2EA67, offset: 0x61FF8, size: 0x8, addend: 0x0, symName: __ZN8nlohmann16json_abi_v3_11_36detail11concat_intoINSt3__112basic_stringIcNS3_11char_traitsIcEENS3_9allocatorIcEEEERA30_KcJPSA_ELi0EEEvRT_OT0_DpOT1_, symObjAddr: 0x200C8, symBinAddr: 0x100031B4C, symSize: 0x3C }
  - { offsetInCU: 0x2EC2E, offset: 0x621BF, size: 0x8, addend: 0x0, symName: __ZN8nlohmann16json_abi_v3_11_36detail13input_adapterINSt3__112basic_stringIcNS3_11char_traitsIcEENS3_9allocatorIcEEEEEENS1_36container_input_adapter_factory_impl31container_input_adapter_factoryIT_vE12adapter_typeERKSC_, symObjAddr: 0x201E8, symBinAddr: 0x100031C6C, symSize: 0x34 }
  - { offsetInCU: 0x2ECE8, offset: 0x62279, size: 0x8, addend: 0x0, symName: __ZN8nlohmann16json_abi_v3_11_36detail13input_adapterINSt3__111__wrap_iterIPKcEEEENS1_30iterator_input_adapter_factoryIT_vE12adapter_typeES9_S9_, symObjAddr: 0x25368, symBinAddr: 0x100036C64, symSize: 0x4C }
  - { offsetInCU: 0x2F6AE, offset: 0x62C3F, size: 0x8, addend: 0x0, symName: __ZN8nlohmann16json_abi_v3_11_36detail6concatINSt3__112basic_stringIcNS3_11char_traitsIcEENS3_9allocatorIcEEEEJRA26_KcS9_cEEET_DpOT0_, symObjAddr: 0x2C200, symBinAddr: 0x10003DAA4, symSize: 0xD8 }
  - { offsetInCU: 0x2F729, offset: 0x62CBA, size: 0x8, addend: 0x0, symName: __ZN8nlohmann16json_abi_v3_11_36detail6concatINSt3__112basic_stringIcNS3_11char_traitsIcEENS3_9allocatorIcEEEEJRA24_KcS9_EEET_DpOT0_, symObjAddr: 0x2CD28, symBinAddr: 0x10003E5CC, symSize: 0xCC }
  - { offsetInCU: 0x2F791, offset: 0x62D22, size: 0x8, addend: 0x0, symName: __ZN8nlohmann16json_abi_v3_11_36detail11concat_intoINSt3__112basic_stringIcNS3_11char_traitsIcEENS3_9allocatorIcEEEERA24_KcJS9_ELi0EEEvRT_OT0_DpOT1_, symObjAddr: 0x2E7EC, symBinAddr: 0x100040090, symSize: 0x3C }
  - { offsetInCU: 0x2F8A2, offset: 0x62E33, size: 0x8, addend: 0x0, symName: __ZN8nlohmann16json_abi_v3_11_36detail6concatINSt3__112basic_stringIcNS3_11char_traitsIcEENS3_9allocatorIcEEEEJRA25_KcPSA_EEET_DpOT0_, symObjAddr: 0x329E0, symBinAddr: 0x100044284, symSize: 0xC4 }
  - { offsetInCU: 0x2F90A, offset: 0x62E9B, size: 0x8, addend: 0x0, symName: __ZN8nlohmann16json_abi_v3_11_36detail11concat_intoINSt3__112basic_stringIcNS3_11char_traitsIcEENS3_9allocatorIcEEEERA25_KcJPSA_ELi0EEEvRT_OT0_DpOT1_, symObjAddr: 0x33754, symBinAddr: 0x100044FF8, symSize: 0x3C }
  - { offsetInCU: 0x2F975, offset: 0x62F06, size: 0x8, addend: 0x0, symName: __ZN8nlohmann16json_abi_v3_11_36detail6concatINSt3__112basic_stringIcNS3_11char_traitsIcEENS3_9allocatorIcEEEEJRA23_KcS9_EEET_DpOT0_, symObjAddr: 0x33E2C, symBinAddr: 0x100045574, symSize: 0xCC }
  - { offsetInCU: 0x2F9DD, offset: 0x62F6E, size: 0x8, addend: 0x0, symName: __ZN8nlohmann16json_abi_v3_11_36detail11concat_intoINSt3__112basic_stringIcNS3_11char_traitsIcEENS3_9allocatorIcEEEERA23_KcJS9_ELi0EEEvRT_OT0_DpOT1_, symObjAddr: 0x33EF8, symBinAddr: 0x100045640, symSize: 0x3C }
  - { offsetInCU: 0x2FA48, offset: 0x62FD9, size: 0x8, addend: 0x0, symName: __ZN8nlohmann16json_abi_v3_11_36detail13concat_lengthIJNSt3__112basic_stringIcNS3_11char_traitsIcEENS3_9allocatorIcEEEEcEEEmPKcDpRKT_, symObjAddr: 0x34048, symBinAddr: 0x100045790, symSize: 0x48 }
  - { offsetInCU: 0x2FAA5, offset: 0x63036, size: 0x8, addend: 0x0, symName: __ZN8nlohmann16json_abi_v3_11_36detail11concat_intoINSt3__112basic_stringIcNS3_11char_traitsIcEENS3_9allocatorIcEEEERA26_KcJS9_cELi0EEEvRT_OT0_DpOT1_, symObjAddr: 0x34090, symBinAddr: 0x1000457D8, symSize: 0x44 }
  - { offsetInCU: 0x2FB24, offset: 0x630B5, size: 0x8, addend: 0x0, symName: __ZN8nlohmann16json_abi_v3_11_36detail13concat_lengthINSt3__112basic_stringIcNS3_11char_traitsIcEENS3_9allocatorIcEEEEJcEEEmRKT_DpRKT0_, symObjAddr: 0x340D4, symBinAddr: 0x10004581C, symSize: 0x44 }
  - { offsetInCU: 0x2FB75, offset: 0x63106, size: 0x8, addend: 0x0, symName: __ZN8nlohmann16json_abi_v3_11_36detail13concat_lengthIJEEEmcDpRKT_, symObjAddr: 0x34118, symBinAddr: 0x100045860, symSize: 0x24 }
  - { offsetInCU: 0x2FBA5, offset: 0x63136, size: 0x8, addend: 0x0, symName: __ZN8nlohmann16json_abi_v3_11_36detail11concat_intoINSt3__112basic_stringIcNS3_11char_traitsIcEENS3_9allocatorIcEEEES9_JcELi0EEEvRT_OT0_DpOT1_, symObjAddr: 0x3413C, symBinAddr: 0x100045884, symSize: 0x3C }
  - { offsetInCU: 0x2FC11, offset: 0x631A2, size: 0x8, addend: 0x0, symName: __ZN8nlohmann16json_abi_v3_11_36detail11concat_intoINSt3__112basic_stringIcNS3_11char_traitsIcEENS3_9allocatorIcEEEEcJELi0EEEvRT_OT0_DpOT1_, symObjAddr: 0x34178, symBinAddr: 0x1000458C0, symSize: 0x38 }
  - { offsetInCU: 0x2FC68, offset: 0x631F9, size: 0x8, addend: 0x0, symName: __ZN8nlohmann16json_abi_v3_11_36detail7to_jsonINS0_10basic_jsonINSt3__13mapENS4_6vectorENS4_12basic_stringIcNS4_11char_traitsIcEENS4_9allocatorIcEEEEbxydSA_NS0_14adl_serializerENS6_IhNSA_IhEEEEvEExLi0EEEvRT_T0_, symObjAddr: 0x35834, symBinAddr: 0x100046F7C, symSize: 0x2C }
  - { offsetInCU: 0x2FCBA, offset: 0x6324B, size: 0x8, addend: 0x0, symName: __ZN8nlohmann16json_abi_v3_11_36detail7to_jsonINS0_10basic_jsonINSt3__13mapENS4_6vectorENS4_12basic_stringIcNS4_11char_traitsIcEENS4_9allocatorIcEEEEbxydSA_NS0_14adl_serializerENS6_IhNSA_IhEEEEvEEyLi0EEEvRT_T0_, symObjAddr: 0x36310, symBinAddr: 0x100047A58, symSize: 0x2C }
  - { offsetInCU: 0x2FD3C, offset: 0x632CD, size: 0x8, addend: 0x0, symName: __ZN8nlohmann16json_abi_v3_11_36detail6concatINSt3__112basic_stringIcNS3_11char_traitsIcEENS3_9allocatorIcEEEEJS9_RA12_KcS9_RA3_SA_S9_RKS9_EEET_DpOT0_, symObjAddr: 0x36570, symBinAddr: 0x100047CB8, symSize: 0xFC }
  - { offsetInCU: 0x2FDF3, offset: 0x63384, size: 0x8, addend: 0x0, symName: __ZN8nlohmann16json_abi_v3_11_36detail13concat_lengthINSt3__112basic_stringIcNS3_11char_traitsIcEENS3_9allocatorIcEEEEJA12_cS9_A3_cS9_S9_EEEmRKT_DpRKT0_, symObjAddr: 0x3676C, symBinAddr: 0x100047EB4, symSize: 0x60 }
  - { offsetInCU: 0x2FE95, offset: 0x63426, size: 0x8, addend: 0x0, symName: __ZN8nlohmann16json_abi_v3_11_36detail11concat_intoINSt3__112basic_stringIcNS3_11char_traitsIcEENS3_9allocatorIcEEEES9_JRA12_KcS9_RA3_SA_S9_RKS9_ELi0EEEvRT_OT0_DpOT1_, symObjAddr: 0x367CC, symBinAddr: 0x100047F14, symSize: 0x5C }
  - { offsetInCU: 0x2FF50, offset: 0x634E1, size: 0x8, addend: 0x0, symName: __ZN8nlohmann16json_abi_v3_11_36detail13concat_lengthIJNSt3__112basic_stringIcNS3_11char_traitsIcEENS3_9allocatorIcEEEEA3_cS9_S9_EEEmPKcDpRKT_, symObjAddr: 0x36828, symBinAddr: 0x100047F70, symSize: 0x58 }
  - { offsetInCU: 0x2FFD4, offset: 0x63565, size: 0x8, addend: 0x0, symName: __ZN8nlohmann16json_abi_v3_11_36detail13concat_lengthINSt3__112basic_stringIcNS3_11char_traitsIcEENS3_9allocatorIcEEEEJA3_cS9_S9_EEEmRKT_DpRKT0_, symObjAddr: 0x36880, symBinAddr: 0x100047FC8, symSize: 0x50 }
  - { offsetInCU: 0x3004D, offset: 0x635DE, size: 0x8, addend: 0x0, symName: __ZN8nlohmann16json_abi_v3_11_36detail13concat_lengthIJNSt3__112basic_stringIcNS3_11char_traitsIcEENS3_9allocatorIcEEEES9_EEEmPKcDpRKT_, symObjAddr: 0x368D0, symBinAddr: 0x100048018, symSize: 0x48 }
  - { offsetInCU: 0x300AA, offset: 0x6363B, size: 0x8, addend: 0x0, symName: __ZN8nlohmann16json_abi_v3_11_36detail11concat_intoINSt3__112basic_stringIcNS3_11char_traitsIcEENS3_9allocatorIcEEEERA12_KcJS9_RA3_SA_S9_RKS9_ELi0EEEvRT_OT0_DpOT1_, symObjAddr: 0x36918, symBinAddr: 0x100048060, symSize: 0x54 }
  - { offsetInCU: 0x30152, offset: 0x636E3, size: 0x8, addend: 0x0, symName: __ZN8nlohmann16json_abi_v3_11_36detail11concat_intoINSt3__112basic_stringIcNS3_11char_traitsIcEENS3_9allocatorIcEEEES9_JRA3_KcS9_RKS9_ELi0EEEvRT_OT0_DpOT1_, symObjAddr: 0x3696C, symBinAddr: 0x1000480B4, symSize: 0x4C }
  - { offsetInCU: 0x301E6, offset: 0x63777, size: 0x8, addend: 0x0, symName: __ZN8nlohmann16json_abi_v3_11_36detail11concat_intoINSt3__112basic_stringIcNS3_11char_traitsIcEENS3_9allocatorIcEEEERA3_KcJS9_RKS9_ELi0EEEvRT_OT0_DpOT1_, symObjAddr: 0x369B8, symBinAddr: 0x100048100, symSize: 0x44 }
  - { offsetInCU: 0x30265, offset: 0x637F6, size: 0x8, addend: 0x0, symName: __ZN8nlohmann16json_abi_v3_11_36detail6concatINSt3__112basic_stringIcNS3_11char_traitsIcEENS3_9allocatorIcEEEEJRA10_KcS9_SC_S9_EEET_DpOT0_, symObjAddr: 0x369FC, symBinAddr: 0x100048144, symSize: 0xE4 }
  - { offsetInCU: 0x302F4, offset: 0x63885, size: 0x8, addend: 0x0, symName: __ZN8nlohmann16json_abi_v3_11_36detail13concat_lengthIJNSt3__112basic_stringIcNS3_11char_traitsIcEENS3_9allocatorIcEEEEA10_cS9_EEEmPKcDpRKT_, symObjAddr: 0x36AE0, symBinAddr: 0x100048228, symSize: 0x50 }
  - { offsetInCU: 0x30365, offset: 0x638F6, size: 0x8, addend: 0x0, symName: __ZN8nlohmann16json_abi_v3_11_36detail11concat_intoINSt3__112basic_stringIcNS3_11char_traitsIcEENS3_9allocatorIcEEEERA10_KcJS9_SC_S9_ELi0EEEvRT_OT0_DpOT1_, symObjAddr: 0x36B30, symBinAddr: 0x100048278, symSize: 0x4C }
  - { offsetInCU: 0x303F8, offset: 0x63989, size: 0x8, addend: 0x0, symName: __ZN8nlohmann16json_abi_v3_11_36detail13concat_lengthINSt3__112basic_stringIcNS3_11char_traitsIcEENS3_9allocatorIcEEEEJA10_cS9_EEEmRKT_DpRKT0_, symObjAddr: 0x36B7C, symBinAddr: 0x1000482C4, symSize: 0x48 }
  - { offsetInCU: 0x3045E, offset: 0x639EF, size: 0x8, addend: 0x0, symName: __ZN8nlohmann16json_abi_v3_11_36detail11concat_intoINSt3__112basic_stringIcNS3_11char_traitsIcEENS3_9allocatorIcEEEES9_JRA10_KcS9_ELi0EEEvRT_OT0_DpOT1_, symObjAddr: 0x36BC4, symBinAddr: 0x10004830C, symSize: 0x44 }
  - { offsetInCU: 0x304DE, offset: 0x63A6F, size: 0x8, addend: 0x0, symName: __ZN8nlohmann16json_abi_v3_11_36detail11concat_intoINSt3__112basic_stringIcNS3_11char_traitsIcEENS3_9allocatorIcEEEERA10_KcJS9_ELi0EEEvRT_OT0_DpOT1_, symObjAddr: 0x36C08, symBinAddr: 0x100048350, symSize: 0x3C }
  - { offsetInCU: 0x30549, offset: 0x63ADA, size: 0x8, addend: 0x0, symName: __ZN8nlohmann16json_abi_v3_11_36detail6concatINSt3__112basic_stringIcNS3_11char_traitsIcEENS3_9allocatorIcEEEEJRA15_KcRKS9_cEEET_DpOT0_, symObjAddr: 0x36CA4, symBinAddr: 0x1000483EC, symSize: 0xD8 }
  - { offsetInCU: 0x305C4, offset: 0x63B55, size: 0x8, addend: 0x0, symName: __ZN8nlohmann16json_abi_v3_11_36detail6concatINSt3__112basic_stringIcNS3_11char_traitsIcEENS3_9allocatorIcEEEEJPKcRA15_SA_S9_cEEET_DpOT0_, symObjAddr: 0x36DA8, symBinAddr: 0x1000484F0, symSize: 0xE8 }
  - { offsetInCU: 0x30653, offset: 0x63BE4, size: 0x8, addend: 0x0, symName: __ZN8nlohmann16json_abi_v3_11_36detail6concatINSt3__112basic_stringIcNS3_11char_traitsIcEENS3_9allocatorIcEEEEJRA12_KcPSA_EEET_DpOT0_, symObjAddr: 0x36EA8, symBinAddr: 0x1000485F0, symSize: 0xC4 }
  - { offsetInCU: 0x306BB, offset: 0x63C4C, size: 0x8, addend: 0x0, symName: __ZN8nlohmann16json_abi_v3_11_36detail11concat_intoINSt3__112basic_stringIcNS3_11char_traitsIcEENS3_9allocatorIcEEEERA15_KcJRKS9_cELi0EEEvRT_OT0_DpOT1_, symObjAddr: 0x370F8, symBinAddr: 0x100048840, symSize: 0x44 }
  - { offsetInCU: 0x3073B, offset: 0x63CCC, size: 0x8, addend: 0x0, symName: __ZN8nlohmann16json_abi_v3_11_36detail11concat_intoINSt3__112basic_stringIcNS3_11char_traitsIcEENS3_9allocatorIcEEEERKS9_JcELi0EEEvRT_OT0_DpOT1_, symObjAddr: 0x3713C, symBinAddr: 0x100048884, symSize: 0x3C }
  - { offsetInCU: 0x307A6, offset: 0x63D37, size: 0x8, addend: 0x0, symName: __ZN8nlohmann16json_abi_v3_11_36detail13concat_lengthIJA15_cNSt3__112basic_stringIcNS4_11char_traitsIcEENS4_9allocatorIcEEEEcEEEmPKcDpRKT_, symObjAddr: 0x37178, symBinAddr: 0x1000488C0, symSize: 0x50 }
  - { offsetInCU: 0x30817, offset: 0x63DA8, size: 0x8, addend: 0x0, symName: __ZN8nlohmann16json_abi_v3_11_36detail11concat_intoINSt3__112basic_stringIcNS3_11char_traitsIcEENS3_9allocatorIcEEEEPKcJRA15_SA_S9_cELi0EEEvRT_OT0_DpOT1_, symObjAddr: 0x371C8, symBinAddr: 0x100048910, symSize: 0x50 }
  - { offsetInCU: 0x308AB, offset: 0x63E3C, size: 0x8, addend: 0x0, symName: __ZN8nlohmann16json_abi_v3_11_36detail11concat_intoINSt3__112basic_stringIcNS3_11char_traitsIcEENS3_9allocatorIcEEEERA15_KcJS9_cELi0EEEvRT_OT0_DpOT1_, symObjAddr: 0x37218, symBinAddr: 0x100048960, symSize: 0x44 }
  - { offsetInCU: 0x3092B, offset: 0x63EBC, size: 0x8, addend: 0x0, symName: __ZN8nlohmann16json_abi_v3_11_36detail11concat_intoINSt3__112basic_stringIcNS3_11char_traitsIcEENS3_9allocatorIcEEEERA12_KcJPSA_ELi0EEEvRT_OT0_DpOT1_, symObjAddr: 0x3725C, symBinAddr: 0x1000489A4, symSize: 0x3C }
  - { offsetInCU: 0x30997, offset: 0x63F28, size: 0x8, addend: 0x0, symName: __ZN8nlohmann16json_abi_v3_11_36detaileqENS1_20primitive_iterator_tES2_, symObjAddr: 0x3A964, symBinAddr: 0x10004BA80, symSize: 0x28 }
  - { offsetInCU: 0x309D4, offset: 0x63F65, size: 0x8, addend: 0x0, symName: __ZN8nlohmann16json_abi_v3_11_36detail9from_jsonINS0_10basic_jsonINSt3__13mapENS4_6vectorENS4_12basic_stringIcNS4_11char_traitsIcEENS4_9allocatorIcEEEEbxydSA_NS0_14adl_serializerENS6_IhNSA_IhEEEEvEEEEvRKT_RNSH_8string_tE, symObjAddr: 0x3D7B8, symBinAddr: 0x10004D76C, symSize: 0x118 }
  - { offsetInCU: 0x30A16, offset: 0x63FA7, size: 0x8, addend: 0x0, symName: __ZN8nlohmann16json_abi_v3_11_36detail7to_jsonINS0_10basic_jsonINSt3__13mapENS4_6vectorENS4_12basic_stringIcNS4_11char_traitsIcEENS4_9allocatorIcEEEEbxydSA_NS0_14adl_serializerENS6_IhNSA_IhEEEEvEEEEvRT_ONSH_8string_tE, symObjAddr: 0x44494, symBinAddr: 0x100053544, symSize: 0x2C }
  - { offsetInCU: 0x328F7, offset: 0x65E88, size: 0x8, addend: 0x0, symName: __ZN8nlohmann16json_abi_v3_11_3eqERKNS0_10basic_jsonINSt3__13mapENS2_6vectorENS2_12basic_stringIcNS2_11char_traitsIcEENS2_9allocatorIcEEEEbxydS8_NS0_14adl_serializerENS4_IhNS8_IhEEEEvEESG_, symObjAddr: 0x5AB8, symBinAddr: 0x1000185F0, symSize: 0x470 }
  - { offsetInCU: 0x33BE0, offset: 0x67171, size: 0x8, addend: 0x0, symName: __ZN8nlohmann16json_abi_v3_11_36detail10serializerINS0_10basic_jsonINSt3__13mapENS4_6vectorENS4_12basic_stringIcNS4_11char_traitsIcEENS4_9allocatorIcEEEEbxydSA_NS0_14adl_serializerENS6_IhNSA_IhEEEEvEEE6decodeERhRjh, symObjAddr: 0x1BDE8, symBinAddr: 0x10002D86C, symSize: 0x180 }
  - { offsetInCU: 0x33C00, offset: 0x67191, size: 0x8, addend: 0x0, symName: __ZZN8nlohmann16json_abi_v3_11_36detail10serializerINS0_10basic_jsonINSt3__13mapENS4_6vectorENS4_12basic_stringIcNS4_11char_traitsIcEENS4_9allocatorIcEEEEbxydSA_NS0_14adl_serializerENS6_IhNSA_IhEEEEvEEE6decodeERhRjhE5utf8d, symObjAddr: 0x4ABC4, symBinAddr: 0x100057BDC, symSize: 0x0 }
  - { offsetInCU: 0x33CA7, offset: 0x67238, size: 0x8, addend: 0x0, symName: __ZN8nlohmann16json_abi_v3_11_36detail10serializerINS0_10basic_jsonINSt3__13mapENS4_6vectorENS4_12basic_stringIcNS4_11char_traitsIcEENS4_9allocatorIcEEEEbxydSA_NS0_14adl_serializerENS6_IhNSA_IhEEEEvEEE12dump_integerIhLi0EEEvT_, symObjAddr: 0x1B320, symBinAddr: 0x10002CDA4, symSize: 0x2C8 }
  - { offsetInCU: 0x33CCB, offset: 0x6725C, size: 0x8, addend: 0x0, symName: __ZZN8nlohmann16json_abi_v3_11_36detail10serializerINS0_10basic_jsonINSt3__13mapENS4_6vectorENS4_12basic_stringIcNS4_11char_traitsIcEENS4_9allocatorIcEEEEbxydSA_NS0_14adl_serializerENS6_IhNSA_IhEEEEvEEE12dump_integerIhLi0EEEvT_E12digits_to_99, symObjAddr: 0x4AD54, symBinAddr: 0x100057D6C, symSize: 0x0 }
  - { offsetInCU: 0x33DE1, offset: 0x67372, size: 0x8, addend: 0x0, symName: __ZN8nlohmann16json_abi_v3_11_36detail10serializerINS0_10basic_jsonINSt3__13mapENS4_6vectorENS4_12basic_stringIcNS4_11char_traitsIcEENS4_9allocatorIcEEEEbxydSA_NS0_14adl_serializerENS6_IhNSA_IhEEEEvEEE12dump_integerIyLi0EEEvT_, symObjAddr: 0x1B658, symBinAddr: 0x10002D0DC, symSize: 0x2C4 }
  - { offsetInCU: 0x33E05, offset: 0x67396, size: 0x8, addend: 0x0, symName: __ZZN8nlohmann16json_abi_v3_11_36detail10serializerINS0_10basic_jsonINSt3__13mapENS4_6vectorENS4_12basic_stringIcNS4_11char_traitsIcEENS4_9allocatorIcEEEEbxydSA_NS0_14adl_serializerENS6_IhNSA_IhEEEEvEEE12dump_integerIyLi0EEEvT_E12digits_to_99, symObjAddr: 0x4AE1C, symBinAddr: 0x100057E34, symSize: 0x0 }
  - { offsetInCU: 0x33EA9, offset: 0x6743A, size: 0x8, addend: 0x0, symName: __ZN8nlohmann16json_abi_v3_11_36detail10serializerINS0_10basic_jsonINSt3__13mapENS4_6vectorENS4_12basic_stringIcNS4_11char_traitsIcEENS4_9allocatorIcEEEEbxydSA_NS0_14adl_serializerENS6_IhNSA_IhEEEEvEEE12dump_integerIxLi0EEEvT_, symObjAddr: 0x1B960, symBinAddr: 0x10002D3E4, symSize: 0x2C4 }
  - { offsetInCU: 0x33ECD, offset: 0x6745E, size: 0x8, addend: 0x0, symName: __ZZN8nlohmann16json_abi_v3_11_36detail10serializerINS0_10basic_jsonINSt3__13mapENS4_6vectorENS4_12basic_stringIcNS4_11char_traitsIcEENS4_9allocatorIcEEEEbxydSA_NS0_14adl_serializerENS6_IhNSA_IhEEEEvEEE12dump_integerIxLi0EEEvT_E12digits_to_99, symObjAddr: 0x4AEE4, symBinAddr: 0x100057EFC, symSize: 0x0 }
  - { offsetInCU: 0x33F71, offset: 0x67502, size: 0x8, addend: 0x0, symName: __ZN8nlohmann16json_abi_v3_11_36detail10serializerINS0_10basic_jsonINSt3__13mapENS4_6vectorENS4_12basic_stringIcNS4_11char_traitsIcEENS4_9allocatorIcEEEEbxydSA_NS0_14adl_serializerENS6_IhNSA_IhEEEEvEEE10dump_floatEd, symObjAddr: 0x1BC24, symBinAddr: 0x10002D6A8, symSize: 0x6C }
  - { offsetInCU: 0x33F95, offset: 0x67526, size: 0x8, addend: 0x0, symName: __ZZN8nlohmann16json_abi_v3_11_36detail10serializerINS0_10basic_jsonINSt3__13mapENS4_6vectorENS4_12basic_stringIcNS4_11char_traitsIcEENS4_9allocatorIcEEEEbxydSA_NS0_14adl_serializerENS6_IhNSA_IhEEEEvEEE10dump_floatEdE24is_ieee_single_or_double, symObjAddr: 0x4AFAC, symBinAddr: 0x100057FC4, symSize: 0x0 }
  - { offsetInCU: 0x346BD, offset: 0x67C4E, size: 0x8, addend: 0x0, symName: __ZNSt3__16vectorIN8nlohmann16json_abi_v3_11_310basic_jsonINS_3mapES0_NS_12basic_stringIcNS_11char_traitsIcEENS_9allocatorIcEEEEbxydS8_NS2_14adl_serializerENS0_IhNS8_IhEEEEvEENS8_ISE_EEE26__swap_out_circular_bufferERNS_14__split_bufferISE_RSF_EE, symObjAddr: 0xF41C, symBinAddr: 0x1000211EC, symSize: 0x118 }
  - { offsetInCU: 0x349CF, offset: 0x67F60, size: 0x8, addend: 0x0, symName: __ZNSt3__16vectorIcNS_9allocatorIcEEE26__swap_out_circular_bufferERNS_14__split_bufferIcRS2_EE, symObjAddr: 0x23738, symBinAddr: 0x1000351A0, symSize: 0x118 }
  - { offsetInCU: 0x34CDE, offset: 0x6826F, size: 0x8, addend: 0x0, symName: __ZNSt3__16vectorIPN8nlohmann16json_abi_v3_11_310basic_jsonINS_3mapES0_NS_12basic_stringIcNS_11char_traitsIcEENS_9allocatorIcEEEEbxydS8_NS2_14adl_serializerENS0_IhNS8_IhEEEEvEENS8_ISF_EEE26__swap_out_circular_bufferERNS_14__split_bufferISF_RSG_EE, symObjAddr: 0x2D638, symBinAddr: 0x10003EEDC, symSize: 0x118 }
  - { offsetInCU: 0x35046, offset: 0x685D7, size: 0x8, addend: 0x0, symName: __ZNSt3__16vectorIdNS_9allocatorIdEEE26__swap_out_circular_bufferERNS_14__split_bufferIdRS2_EE, symObjAddr: 0x3CA98, symBinAddr: 0x10004CA4C, symSize: 0x118 }
  - { offsetInCU: 0x35087, offset: 0x68618, size: 0x8, addend: 0x0, symName: __ZNSt3__16vectorI5PointNS_9allocatorIS1_EEE26__swap_out_circular_bufferERNS_14__split_bufferIS1_RS3_EE, symObjAddr: 0x3DD34, symBinAddr: 0x10004DCE8, symSize: 0x118 }
  - { offsetInCU: 0x35104, offset: 0x68695, size: 0x8, addend: 0x0, symName: __ZNSt3__16vectorINS_12basic_stringIcNS_11char_traitsIcEENS_9allocatorIcEEEENS4_IS6_EEE26__swap_out_circular_bufferERNS_14__split_bufferIS6_RS7_EE, symObjAddr: 0x3F338, symBinAddr: 0x10004EAF0, symSize: 0x118 }
  - { offsetInCU: 0x35992, offset: 0x68F23, size: 0x8, addend: 0x0, symName: __Z11test_outputv, symObjAddr: 0x8D60, symBinAddr: 0x10001B6B8, symSize: 0x294 }
  - { offsetInCU: 0x37810, offset: 0x6ADA1, size: 0x8, addend: 0x0, symName: __Z18serializeSectorBSTRK6Sector, symObjAddr: 0x0, symBinAddr: 0x100012F50, symSize: 0x24C }
  - { offsetInCU: 0x3784C, offset: 0x6ADDD, size: 0x8, addend: 0x0, symName: __ZN8nlohmann16json_abi_v3_11_310basic_jsonINSt3__13mapENS2_6vectorENS2_12basic_stringIcNS2_11char_traitsIcEENS2_9allocatorIcEEEEbxydS8_NS0_14adl_serializerENS4_IhNS8_IhEEEEvEC1EDn, symObjAddr: 0x24C, symBinAddr: 0x10001319C, symSize: 0x4C }
  - { offsetInCU: 0x37884, offset: 0x6AE15, size: 0x8, addend: 0x0, symName: __ZN8nlohmann16json_abi_v3_11_310basic_jsonINSt3__13mapENS2_6vectorENS2_12basic_stringIcNS2_11char_traitsIcEENS2_9allocatorIcEEEEbxydS8_NS0_14adl_serializerENS4_IhNS8_IhEEEEvEC1IRKiiLi0EEEOT_, symObjAddr: 0x298, symBinAddr: 0x1000131E8, symSize: 0x34 }
  - { offsetInCU: 0x378D4, offset: 0x6AE65, size: 0x8, addend: 0x0, symName: __ZN8nlohmann16json_abi_v3_11_310basic_jsonINSt3__13mapENS2_6vectorENS2_12basic_stringIcNS2_11char_traitsIcEENS2_9allocatorIcEEEEbxydS8_NS0_14adl_serializerENS4_IhNS8_IhEEEEvEixIKcEERSE_PT_, symObjAddr: 0x2CC, symBinAddr: 0x10001321C, symSize: 0x78 }
  - { offsetInCU: 0x37910, offset: 0x6AEA1, size: 0x8, addend: 0x0, symName: __ZN8nlohmann16json_abi_v3_11_310basic_jsonINSt3__13mapENS2_6vectorENS2_12basic_stringIcNS2_11char_traitsIcEENS2_9allocatorIcEEEEbxydS8_NS0_14adl_serializerENS4_IhNS8_IhEEEEvEaSESE_, symObjAddr: 0x344, symBinAddr: 0x100013294, symSize: 0x80 }
  - { offsetInCU: 0x37944, offset: 0x6AED5, size: 0x8, addend: 0x0, symName: __ZN8nlohmann16json_abi_v3_11_310basic_jsonINSt3__13mapENS2_6vectorENS2_12basic_stringIcNS2_11char_traitsIcEENS2_9allocatorIcEEEEbxydS8_NS0_14adl_serializerENS4_IhNS8_IhEEEEvED1Ev, symObjAddr: 0x3C4, symBinAddr: 0x100013314, symSize: 0x2C }
  - { offsetInCU: 0x3796C, offset: 0x6AEFD, size: 0x8, addend: 0x0, symName: __ZN8nlohmann16json_abi_v3_11_310basic_jsonINSt3__13mapENS2_6vectorENS2_12basic_stringIcNS2_11char_traitsIcEENS2_9allocatorIcEEEEbxydS8_NS0_14adl_serializerENS4_IhNS8_IhEEEEvEC1IRKddLi0EEEOT_, symObjAddr: 0x3F0, symBinAddr: 0x100013340, symSize: 0x34 }
  - { offsetInCU: 0x379BC, offset: 0x6AF4D, size: 0x8, addend: 0x0, symName: __ZN8nlohmann16json_abi_v3_11_310basic_jsonINSt3__13mapENS2_6vectorENS2_12basic_stringIcNS2_11char_traitsIcEENS2_9allocatorIcEEEEbxydS8_NS0_14adl_serializerENS4_IhNS8_IhEEEEvEC1IRKSA_SA_Li0EEEOT_, symObjAddr: 0x424, symBinAddr: 0x100013374, symSize: 0x34 }
  - { offsetInCU: 0x37A0B, offset: 0x6AF9C, size: 0x8, addend: 0x0, symName: __Z12serializeBSTPK6Sector, symObjAddr: 0x458, symBinAddr: 0x1000133A8, symSize: 0x1C4 }
  - { offsetInCU: 0x37A46, offset: 0x6AFD7, size: 0x8, addend: 0x0, symName: __Z20serializeSectorLLRBTRK6Sector, symObjAddr: 0x61C, symBinAddr: 0x10001356C, symSize: 0x2AC }
  - { offsetInCU: 0x37A82, offset: 0x6B013, size: 0x8, addend: 0x0, symName: __ZN8nlohmann16json_abi_v3_11_310basic_jsonINSt3__13mapENS2_6vectorENS2_12basic_stringIcNS2_11char_traitsIcEENS2_9allocatorIcEEEEbxydS8_NS0_14adl_serializerENS4_IhNS8_IhEEEEvEC1IRKbbLi0EEEOT_, symObjAddr: 0x8C8, symBinAddr: 0x100013818, symSize: 0x34 }
  - { offsetInCU: 0x37AD1, offset: 0x6B062, size: 0x8, addend: 0x0, symName: __Z14serializeLLRBTPK6Sector, symObjAddr: 0x8FC, symBinAddr: 0x10001384C, symSize: 0x1C4 }
  - { offsetInCU: 0x37B0C, offset: 0x6B09D, size: 0x8, addend: 0x0, symName: __Z14serializePointRK5Point, symObjAddr: 0xAC0, symBinAddr: 0x100013A10, symSize: 0x1A0 }
  - { offsetInCU: 0x37B8D, offset: 0x6B11E, size: 0x8, addend: 0x0, symName: __ZNKSt3__16vectorIdNS_9allocatorIdEEE5beginB7v160006Ev, symObjAddr: 0xC60, symBinAddr: 0x100013BB0, symSize: 0x30 }
  - { offsetInCU: 0x37BB3, offset: 0x6B144, size: 0x8, addend: 0x0, symName: __ZNKSt3__16vectorIdNS_9allocatorIdEEE3endB7v160006Ev, symObjAddr: 0xC90, symBinAddr: 0x100013BE0, symSize: 0x30 }
  - { offsetInCU: 0x37BD9, offset: 0x6B16A, size: 0x8, addend: 0x0, symName: __ZNKSt3__111__wrap_iterIPKdEdeB7v160006Ev, symObjAddr: 0xCF4, symBinAddr: 0x100013C44, symSize: 0x18 }
  - { offsetInCU: 0x37BFD, offset: 0x6B18E, size: 0x8, addend: 0x0, symName: __ZN8nlohmann16json_abi_v3_11_310basic_jsonINSt3__13mapENS2_6vectorENS2_12basic_stringIcNS2_11char_traitsIcEENS2_9allocatorIcEEEEbxydS8_NS0_14adl_serializerENS4_IhNS8_IhEEEEvE9push_backEOSE_, symObjAddr: 0xD0C, symBinAddr: 0x100013C5C, symSize: 0x1B0 }
  - { offsetInCU: 0x37C40, offset: 0x6B1D1, size: 0x8, addend: 0x0, symName: __ZNSt3__111__wrap_iterIPKdEppB7v160006Ev, symObjAddr: 0xEBC, symBinAddr: 0x100013E0C, symSize: 0x20 }
  - { offsetInCU: 0x37C63, offset: 0x6B1F4, size: 0x8, addend: 0x0, symName: __Z16serializeDatasetRK7Dataset, symObjAddr: 0xEDC, symBinAddr: 0x100013E2C, symSize: 0x144 }
  - { offsetInCU: 0x37CEA, offset: 0x6B27B, size: 0x8, addend: 0x0, symName: __ZNKSt3__16vectorI5PointNS_9allocatorIS1_EEE5beginB7v160006Ev, symObjAddr: 0x1020, symBinAddr: 0x100013F70, symSize: 0x30 }
  - { offsetInCU: 0x37D10, offset: 0x6B2A1, size: 0x8, addend: 0x0, symName: __ZNKSt3__16vectorI5PointNS_9allocatorIS1_EEE3endB7v160006Ev, symObjAddr: 0x1050, symBinAddr: 0x100013FA0, symSize: 0x30 }
  - { offsetInCU: 0x37D36, offset: 0x6B2C7, size: 0x8, addend: 0x0, symName: __ZNKSt3__111__wrap_iterIPK5PointEdeB7v160006Ev, symObjAddr: 0x10B4, symBinAddr: 0x100014004, symSize: 0x18 }
  - { offsetInCU: 0x37D5A, offset: 0x6B2EB, size: 0x8, addend: 0x0, symName: __ZNSt3__111__wrap_iterIPK5PointEppB7v160006Ev, symObjAddr: 0x10CC, symBinAddr: 0x10001401C, symSize: 0x20 }
  - { offsetInCU: 0x37D7D, offset: 0x6B30E, size: 0x8, addend: 0x0, symName: __Z15serializeKDNodePK10KDTreeNode, symObjAddr: 0x10EC, symBinAddr: 0x10001403C, symSize: 0x254 }
  - { offsetInCU: 0x37DF2, offset: 0x6B383, size: 0x8, addend: 0x0, symName: __ZN8nlohmann16json_abi_v3_11_310basic_jsonINSt3__13mapENS2_6vectorENS2_12basic_stringIcNS2_11char_traitsIcEENS2_9allocatorIcEEEEbxydS8_NS0_14adl_serializerENS4_IhNS8_IhEEEEvEC1IbbLi0EEEOT_, symObjAddr: 0x1340, symBinAddr: 0x100014290, symSize: 0x34 }
  - { offsetInCU: 0x37E41, offset: 0x6B3D2, size: 0x8, addend: 0x0, symName: __Z15serializeKDTreePK10KDTreeNode, symObjAddr: 0x1374, symBinAddr: 0x1000142C4, symSize: 0x23C }
  - { offsetInCU: 0x37E91, offset: 0x6B422, size: 0x8, addend: 0x0, symName: __Z16serializePathBSTRKNSt3__16vectorIP6SectorNS_9allocatorIS2_EEEE, symObjAddr: 0x15B0, symBinAddr: 0x100014500, symSize: 0x118 }
  - { offsetInCU: 0x37F17, offset: 0x6B4A8, size: 0x8, addend: 0x0, symName: __ZNKSt3__16vectorIP6SectorNS_9allocatorIS2_EEE5beginB7v160006Ev, symObjAddr: 0x16C8, symBinAddr: 0x100014618, symSize: 0x30 }
  - { offsetInCU: 0x37F3D, offset: 0x6B4CE, size: 0x8, addend: 0x0, symName: __ZNKSt3__16vectorIP6SectorNS_9allocatorIS2_EEE3endB7v160006Ev, symObjAddr: 0x16F8, symBinAddr: 0x100014648, symSize: 0x30 }
  - { offsetInCU: 0x37F63, offset: 0x6B4F4, size: 0x8, addend: 0x0, symName: __ZNKSt3__111__wrap_iterIPKP6SectorEdeB7v160006Ev, symObjAddr: 0x175C, symBinAddr: 0x1000146AC, symSize: 0x18 }
  - { offsetInCU: 0x37F87, offset: 0x6B518, size: 0x8, addend: 0x0, symName: __ZNSt3__111__wrap_iterIPKP6SectorEppB7v160006Ev, symObjAddr: 0x1774, symBinAddr: 0x1000146C4, symSize: 0x20 }
  - { offsetInCU: 0x37FAB, offset: 0x6B53C, size: 0x8, addend: 0x0, symName: __ZNK8nlohmann16json_abi_v3_11_310basic_jsonINSt3__13mapENS2_6vectorENS2_12basic_stringIcNS2_11char_traitsIcEENS2_9allocatorIcEEEEbxydS8_NS0_14adl_serializerENS4_IhNS8_IhEEEEvE4dumpEicbNS0_6detail15error_handler_tE, symObjAddr: 0x1794, symBinAddr: 0x1000146E4, symSize: 0x1F4 }
  - { offsetInCU: 0x38032, offset: 0x6B5C3, size: 0x8, addend: 0x0, symName: __Z18serializePathLLRBTRKNSt3__16vectorIP6SectorNS_9allocatorIS2_EEEE, symObjAddr: 0x1988, symBinAddr: 0x1000148D8, symSize: 0x118 }
  - { offsetInCU: 0x380B7, offset: 0x6B648, size: 0x8, addend: 0x0, symName: __Z20deserializeSectorBSTRKN8nlohmann16json_abi_v3_11_310basic_jsonINSt3__13mapENS2_6vectorENS2_12basic_stringIcNS2_11char_traitsIcEENS2_9allocatorIcEEEEbxydS8_NS0_14adl_serializerENS4_IhNS8_IhEEEEvEE, symObjAddr: 0x1AA0, symBinAddr: 0x1000149F0, symSize: 0xF0 }
  - { offsetInCU: 0x3811C, offset: 0x6B6AD, size: 0x8, addend: 0x0, symName: __ZNK8nlohmann16json_abi_v3_11_310basic_jsonINSt3__13mapENS2_6vectorENS2_12basic_stringIcNS2_11char_traitsIcEENS2_9allocatorIcEEEEbxydS8_NS0_14adl_serializerENS4_IhNS8_IhEEEEvEixIKcEERKSE_PT_, symObjAddr: 0x1B90, symBinAddr: 0x100014AE0, symSize: 0x78 }
  - { offsetInCU: 0x38158, offset: 0x6B6E9, size: 0x8, addend: 0x0, symName: __ZNK8nlohmann16json_abi_v3_11_310basic_jsonINSt3__13mapENS2_6vectorENS2_12basic_stringIcNS2_11char_traitsIcEENS2_9allocatorIcEEEEbxydS8_NS0_14adl_serializerENS4_IhNS8_IhEEEEvEcvT_IiLi0EEEv, symObjAddr: 0x1C08, symBinAddr: 0x100014B58, symSize: 0x24 }
  - { offsetInCU: 0x3818C, offset: 0x6B71D, size: 0x8, addend: 0x0, symName: __ZNK8nlohmann16json_abi_v3_11_310basic_jsonINSt3__13mapENS2_6vectorENS2_12basic_stringIcNS2_11char_traitsIcEENS2_9allocatorIcEEEEbxydS8_NS0_14adl_serializerENS4_IhNS8_IhEEEEvEcvT_IdLi0EEEv, symObjAddr: 0x1C2C, symBinAddr: 0x100014B7C, symSize: 0x24 }
  - { offsetInCU: 0x381C5, offset: 0x6B756, size: 0x8, addend: 0x0, symName: __ZNSt3__112basic_stringIcNS_11char_traitsIcEENS_9allocatorIcEEEaSIN8nlohmann16json_abi_v3_11_310basic_jsonINS_3mapENS_6vectorES5_bxydS3_NS8_14adl_serializerENSB_IhNS3_IhEEEEvEEvEERS5_RKT_, symObjAddr: 0x1C50, symBinAddr: 0x100014BA0, symSize: 0x4C }
  - { offsetInCU: 0x38211, offset: 0x6B7A2, size: 0x8, addend: 0x0, symName: __Z14deserializeBSTRKN8nlohmann16json_abi_v3_11_310basic_jsonINSt3__13mapENS2_6vectorENS2_12basic_stringIcNS2_11char_traitsIcEENS2_9allocatorIcEEEEbxydS8_NS0_14adl_serializerENS4_IhNS8_IhEEEEvEE, symObjAddr: 0x1C9C, symBinAddr: 0x100014BEC, symSize: 0xEC }
  - { offsetInCU: 0x3824C, offset: 0x6B7DD, size: 0x8, addend: 0x0, symName: __ZNK8nlohmann16json_abi_v3_11_310basic_jsonINSt3__13mapENS2_6vectorENS2_12basic_stringIcNS2_11char_traitsIcEENS2_9allocatorIcEEEEbxydS8_NS0_14adl_serializerENS4_IhNS8_IhEEEEvE7is_nullEv, symObjAddr: 0x1D88, symBinAddr: 0x100014CD8, symSize: 0x24 }
  - { offsetInCU: 0x3826F, offset: 0x6B800, size: 0x8, addend: 0x0, symName: __Z22deserializeSectorLLRBTRKN8nlohmann16json_abi_v3_11_310basic_jsonINSt3__13mapENS2_6vectorENS2_12basic_stringIcNS2_11char_traitsIcEENS2_9allocatorIcEEEEbxydS8_NS0_14adl_serializerENS4_IhNS8_IhEEEEvEE, symObjAddr: 0x1DAC, symBinAddr: 0x100014CFC, symSize: 0x110 }
  - { offsetInCU: 0x382D4, offset: 0x6B865, size: 0x8, addend: 0x0, symName: __ZNK8nlohmann16json_abi_v3_11_310basic_jsonINSt3__13mapENS2_6vectorENS2_12basic_stringIcNS2_11char_traitsIcEENS2_9allocatorIcEEEEbxydS8_NS0_14adl_serializerENS4_IhNS8_IhEEEEvEcvT_IbLi0EEEv, symObjAddr: 0x1EBC, symBinAddr: 0x100014E0C, symSize: 0x28 }
  - { offsetInCU: 0x38307, offset: 0x6B898, size: 0x8, addend: 0x0, symName: __Z16deserializeLLRBTRKN8nlohmann16json_abi_v3_11_310basic_jsonINSt3__13mapENS2_6vectorENS2_12basic_stringIcNS2_11char_traitsIcEENS2_9allocatorIcEEEEbxydS8_NS0_14adl_serializerENS4_IhNS8_IhEEEEvEE, symObjAddr: 0x1EE4, symBinAddr: 0x100014E34, symSize: 0xEC }
  - { offsetInCU: 0x38341, offset: 0x6B8D2, size: 0x8, addend: 0x0, symName: __Z18deserializePathBSTRKNSt3__112basic_stringIcNS_11char_traitsIcEENS_9allocatorIcEEEE, symObjAddr: 0x1FD0, symBinAddr: 0x100014F20, symSize: 0x1C0 }
  - { offsetInCU: 0x383DA, offset: 0x6B96B, size: 0x8, addend: 0x0, symName: __ZN8nlohmann16json_abi_v3_11_310basic_jsonINSt3__13mapENS2_6vectorENS2_12basic_stringIcNS2_11char_traitsIcEENS2_9allocatorIcEEEEbxydS8_NS0_14adl_serializerENS4_IhNS8_IhEEEEvE5parseIRKSA_EESE_OT_NS2_8functionIFbiNS0_6detail13parse_event_tERSE_EEEbb, symObjAddr: 0x2190, symBinAddr: 0x1000150E0, symSize: 0x1A4 }
  - { offsetInCU: 0x3844A, offset: 0x6B9DB, size: 0x8, addend: 0x0, symName: __ZNSt3__18functionIFbiN8nlohmann16json_abi_v3_11_36detail13parse_event_tERNS2_10basic_jsonINS_3mapENS_6vectorENS_12basic_stringIcNS_11char_traitsIcEENS_9allocatorIcEEEEbxydSB_NS2_14adl_serializerENS7_IhNSB_IhEEEEvEEEEC1B7v160006EDn, symObjAddr: 0x2334, symBinAddr: 0x100015284, symSize: 0x34 }
  - { offsetInCU: 0x3847D, offset: 0x6BA0E, size: 0x8, addend: 0x0, symName: __ZNSt3__18functionIFbiN8nlohmann16json_abi_v3_11_36detail13parse_event_tERNS2_10basic_jsonINS_3mapENS_6vectorENS_12basic_stringIcNS_11char_traitsIcEENS_9allocatorIcEEEEbxydSB_NS2_14adl_serializerENS7_IhNSB_IhEEEEvEEEED1Ev, symObjAddr: 0x2368, symBinAddr: 0x1000152B8, symSize: 0x2C }
  - { offsetInCU: 0x384A8, offset: 0x6BA39, size: 0x8, addend: 0x0, symName: __ZN8nlohmann16json_abi_v3_11_310basic_jsonINSt3__13mapENS2_6vectorENS2_12basic_stringIcNS2_11char_traitsIcEENS2_9allocatorIcEEEEbxydS8_NS0_14adl_serializerENS4_IhNS8_IhEEEEvE5beginEv, symObjAddr: 0x23C0, symBinAddr: 0x1000152E4, symSize: 0x40 }
  - { offsetInCU: 0x384DD, offset: 0x6BA6E, size: 0x8, addend: 0x0, symName: __ZN8nlohmann16json_abi_v3_11_310basic_jsonINSt3__13mapENS2_6vectorENS2_12basic_stringIcNS2_11char_traitsIcEENS2_9allocatorIcEEEEbxydS8_NS0_14adl_serializerENS4_IhNS8_IhEEEEvE3endEv, symObjAddr: 0x2400, symBinAddr: 0x100015324, symSize: 0x40 }
  - { offsetInCU: 0x38512, offset: 0x6BAA3, size: 0x8, addend: 0x0, symName: __ZNK8nlohmann16json_abi_v3_11_36detail9iter_implINS0_10basic_jsonINSt3__13mapENS4_6vectorENS4_12basic_stringIcNS4_11char_traitsIcEENS4_9allocatorIcEEEEbxydSA_NS0_14adl_serializerENS6_IhNSA_IhEEEEvEEEneISH_LDn0EEEbRKT_, symObjAddr: 0x2440, symBinAddr: 0x100015364, symSize: 0x34 }
  - { offsetInCU: 0x38554, offset: 0x6BAE5, size: 0x8, addend: 0x0, symName: __ZNK8nlohmann16json_abi_v3_11_36detail9iter_implINS0_10basic_jsonINSt3__13mapENS4_6vectorENS4_12basic_stringIcNS4_11char_traitsIcEENS4_9allocatorIcEEEEbxydSA_NS0_14adl_serializerENS6_IhNSA_IhEEEEvEEEdeEv, symObjAddr: 0x2474, symBinAddr: 0x100015398, symSize: 0x32C }
  - { offsetInCU: 0x38578, offset: 0x6BB09, size: 0x8, addend: 0x0, symName: __ZNSt3__16vectorIP6SectorNS_9allocatorIS2_EEE9push_backB7v160006EOS2_, symObjAddr: 0x27C8, symBinAddr: 0x1000156EC, symSize: 0x6C }
  - { offsetInCU: 0x385AD, offset: 0x6BB3E, size: 0x8, addend: 0x0, symName: __ZN8nlohmann16json_abi_v3_11_36detail9iter_implINS0_10basic_jsonINSt3__13mapENS4_6vectorENS4_12basic_stringIcNS4_11char_traitsIcEENS4_9allocatorIcEEEEbxydSA_NS0_14adl_serializerENS6_IhNSA_IhEEEEvEEEppEv, symObjAddr: 0x2834, symBinAddr: 0x100015758, symSize: 0xE0 }
  - { offsetInCU: 0x385D0, offset: 0x6BB61, size: 0x8, addend: 0x0, symName: __Z20deserializePathLLRBTRKNSt3__112basic_stringIcNS_11char_traitsIcEENS_9allocatorIcEEEE, symObjAddr: 0x2968, symBinAddr: 0x100015860, symSize: 0x1C0 }
  - { offsetInCU: 0x38668, offset: 0x6BBF9, size: 0x8, addend: 0x0, symName: __Z16deserializePointRKN8nlohmann16json_abi_v3_11_310basic_jsonINSt3__13mapENS2_6vectorENS2_12basic_stringIcNS2_11char_traitsIcEENS2_9allocatorIcEEEEbxydS8_NS0_14adl_serializerENS4_IhNS8_IhEEEEvEE, symObjAddr: 0x2B28, symBinAddr: 0x100015A20, symSize: 0x164 }
  - { offsetInCU: 0x38707, offset: 0x6BC98, size: 0x8, addend: 0x0, symName: __ZNSt3__16vectorIdNS_9allocatorIdEEEC1B7v160006Ev, symObjAddr: 0x2C8C, symBinAddr: 0x100015B84, symSize: 0x2C }
  - { offsetInCU: 0x3872F, offset: 0x6BCC0, size: 0x8, addend: 0x0, symName: __ZNK8nlohmann16json_abi_v3_11_310basic_jsonINSt3__13mapENS2_6vectorENS2_12basic_stringIcNS2_11char_traitsIcEENS2_9allocatorIcEEEEbxydS8_NS0_14adl_serializerENS4_IhNS8_IhEEEEvE5beginEv, symObjAddr: 0x2CB8, symBinAddr: 0x100015BB0, symSize: 0x2C }
  - { offsetInCU: 0x38753, offset: 0x6BCE4, size: 0x8, addend: 0x0, symName: __ZNK8nlohmann16json_abi_v3_11_310basic_jsonINSt3__13mapENS2_6vectorENS2_12basic_stringIcNS2_11char_traitsIcEENS2_9allocatorIcEEEEbxydS8_NS0_14adl_serializerENS4_IhNS8_IhEEEEvE3endEv, symObjAddr: 0x2CE4, symBinAddr: 0x100015BDC, symSize: 0x2C }
  - { offsetInCU: 0x38777, offset: 0x6BD08, size: 0x8, addend: 0x0, symName: __ZNK8nlohmann16json_abi_v3_11_36detail9iter_implIKNS0_10basic_jsonINSt3__13mapENS4_6vectorENS4_12basic_stringIcNS4_11char_traitsIcEENS4_9allocatorIcEEEEbxydSA_NS0_14adl_serializerENS6_IhNSA_IhEEEEvEEEneISI_LDn0EEEbRKT_, symObjAddr: 0x2D10, symBinAddr: 0x100015C08, symSize: 0x34 }
  - { offsetInCU: 0x387B9, offset: 0x6BD4A, size: 0x8, addend: 0x0, symName: __ZNK8nlohmann16json_abi_v3_11_36detail9iter_implIKNS0_10basic_jsonINSt3__13mapENS4_6vectorENS4_12basic_stringIcNS4_11char_traitsIcEENS4_9allocatorIcEEEEbxydSA_NS0_14adl_serializerENS6_IhNSA_IhEEEEvEEEdeEv, symObjAddr: 0x2D44, symBinAddr: 0x100015C3C, symSize: 0x32C }
  - { offsetInCU: 0x387DD, offset: 0x6BD6E, size: 0x8, addend: 0x0, symName: __ZNSt3__16vectorIdNS_9allocatorIdEEE9push_backB7v160006EOd, symObjAddr: 0x3098, symBinAddr: 0x100015F90, symSize: 0x6C }
  - { offsetInCU: 0x38812, offset: 0x6BDA3, size: 0x8, addend: 0x0, symName: __ZN8nlohmann16json_abi_v3_11_36detail9iter_implIKNS0_10basic_jsonINSt3__13mapENS4_6vectorENS4_12basic_stringIcNS4_11char_traitsIcEENS4_9allocatorIcEEEEbxydSA_NS0_14adl_serializerENS6_IhNSA_IhEEEEvEEEppEv, symObjAddr: 0x3104, symBinAddr: 0x100015FFC, symSize: 0xE0 }
  - { offsetInCU: 0x38836, offset: 0x6BDC7, size: 0x8, addend: 0x0, symName: __ZNK8nlohmann16json_abi_v3_11_310basic_jsonINSt3__13mapENS2_6vectorENS2_12basic_stringIcNS2_11char_traitsIcEENS2_9allocatorIcEEEEbxydS8_NS0_14adl_serializerENS4_IhNS8_IhEEEEvEcvT_ISA_Li0EEEv, symObjAddr: 0x320C, symBinAddr: 0x100016104, symSize: 0x2C }
  - { offsetInCU: 0x3886A, offset: 0x6BDFB, size: 0x8, addend: 0x0, symName: __ZN5PointC1ERKNSt3__16vectorIdNS0_9allocatorIdEEEERKNS0_12basic_stringIcNS0_11char_traitsIcEENS2_IcEEEE, symObjAddr: 0x3238, symBinAddr: 0x100016130, symSize: 0x3C }
  - { offsetInCU: 0x388AE, offset: 0x6BE3F, size: 0x8, addend: 0x0, symName: __ZNSt3__16vectorIdNS_9allocatorIdEEED1B7v160006Ev, symObjAddr: 0x3274, symBinAddr: 0x10001616C, symSize: 0x2C }
  - { offsetInCU: 0x388D5, offset: 0x6BE66, size: 0x8, addend: 0x0, symName: __Z18deserializeDatasetRKN8nlohmann16json_abi_v3_11_310basic_jsonINSt3__13mapENS2_6vectorENS2_12basic_stringIcNS2_11char_traitsIcEENS2_9allocatorIcEEEEbxydS8_NS0_14adl_serializerENS4_IhNS8_IhEEEEvEE, symObjAddr: 0x32A0, symBinAddr: 0x100016198, symSize: 0x158 }
  - { offsetInCU: 0x3895F, offset: 0x6BEF0, size: 0x8, addend: 0x0, symName: __ZN7DatasetC1Ev, symObjAddr: 0x33F8, symBinAddr: 0x1000162F0, symSize: 0x2C }
  - { offsetInCU: 0x38987, offset: 0x6BF18, size: 0x8, addend: 0x0, symName: __ZNSt3__16vectorI5PointNS_9allocatorIS1_EEE9push_backB7v160006EOS1_, symObjAddr: 0x3424, symBinAddr: 0x10001631C, symSize: 0x6C }
  - { offsetInCU: 0x389BC, offset: 0x6BF4D, size: 0x8, addend: 0x0, symName: __ZN5PointD1Ev, symObjAddr: 0x3490, symBinAddr: 0x100016388, symSize: 0x2C }
  - { offsetInCU: 0x389E6, offset: 0x6BF77, size: 0x8, addend: 0x0, symName: __ZN7DatasetD1Ev, symObjAddr: 0x34BC, symBinAddr: 0x1000163B4, symSize: 0x2C }
  - { offsetInCU: 0x38A0F, offset: 0x6BFA0, size: 0x8, addend: 0x0, symName: __Z17deserializeKDNodeRKN8nlohmann16json_abi_v3_11_310basic_jsonINSt3__13mapENS2_6vectorENS2_12basic_stringIcNS2_11char_traitsIcEENS2_9allocatorIcEEEEbxydS8_NS0_14adl_serializerENS4_IhNS8_IhEEEEvEE, symObjAddr: 0x34E8, symBinAddr: 0x1000163E0, symSize: 0x19C }
  - { offsetInCU: 0x38A95, offset: 0x6C026, size: 0x8, addend: 0x0, symName: __ZN7DatasetC1ERKS_, symObjAddr: 0x3684, symBinAddr: 0x10001657C, symSize: 0x34 }
  - { offsetInCU: 0x38AC8, offset: 0x6C059, size: 0x8, addend: 0x0, symName: __ZN17kd_tree_leaf_nodeC1E7Dataset, symObjAddr: 0x36B8, symBinAddr: 0x1000165B0, symSize: 0x34 }
  - { offsetInCU: 0x38AFF, offset: 0x6C090, size: 0x8, addend: 0x0, symName: __ZN18kd_tree_inter_nodeC1Eid, symObjAddr: 0x36EC, symBinAddr: 0x1000165E4, symSize: 0x3C }
  - { offsetInCU: 0x38B42, offset: 0x6C0D3, size: 0x8, addend: 0x0, symName: __Z17deserializeKDTreeRKN8nlohmann16json_abi_v3_11_310basic_jsonINSt3__13mapENS2_6vectorENS2_12basic_stringIcNS2_11char_traitsIcEENS2_9allocatorIcEEEEbxydS8_NS0_14adl_serializerENS4_IhNS8_IhEEEEvEE, symObjAddr: 0x3728, symBinAddr: 0x100016620, symSize: 0x108 }
  - { offsetInCU: 0x38B99, offset: 0x6C12A, size: 0x8, addend: 0x0, symName: __Z28read_string_vector_from_fileRKNSt3__112basic_stringIcNS_11char_traitsIcEENS_9allocatorIcEEEE, symObjAddr: 0x3830, symBinAddr: 0x100016728, symSize: 0x264 }
  - { offsetInCU: 0x38BF5, offset: 0x6C186, size: 0x8, addend: 0x0, symName: __ZNSt3__16vectorINS_12basic_stringIcNS_11char_traitsIcEENS_9allocatorIcEEEENS4_IS6_EEEC1B7v160006Ev, symObjAddr: 0x3A94, symBinAddr: 0x10001698C, symSize: 0x2C }
  - { offsetInCU: 0x38C91, offset: 0x6C222, size: 0x8, addend: 0x0, symName: __ZNKSt3__112basic_stringIcNS_11char_traitsIcEENS_9allocatorIcEEE5emptyB7v160006Ev, symObjAddr: 0x3D0C, symBinAddr: 0x1000169B8, symSize: 0x30 }
  - { offsetInCU: 0x38CB5, offset: 0x6C246, size: 0x8, addend: 0x0, symName: __ZNSt3__16vectorINS_12basic_stringIcNS_11char_traitsIcEENS_9allocatorIcEEEENS4_IS6_EEE9push_backB7v160006ERKS6_, symObjAddr: 0x3D3C, symBinAddr: 0x1000169E8, symSize: 0x6C }
  - { offsetInCU: 0x38CEA, offset: 0x6C27B, size: 0x8, addend: 0x0, symName: __ZNSt3__114basic_ifstreamIcNS_11char_traitsIcEEE5closeEv, symObjAddr: 0x3DA8, symBinAddr: 0x100016A54, symSize: 0x58 }
  - { offsetInCU: 0x38D15, offset: 0x6C2A6, size: 0x8, addend: 0x0, symName: __ZNSt3__16vectorINS_12basic_stringIcNS_11char_traitsIcEENS_9allocatorIcEEEENS4_IS6_EEED1B7v160006Ev, symObjAddr: 0x3E40, symBinAddr: 0x100016AAC, symSize: 0x2C }
  - { offsetInCU: 0x38D3C, offset: 0x6C2CD, size: 0x8, addend: 0x0, symName: __Z11delete_treeP6Sector, symObjAddr: 0x3E6C, symBinAddr: 0x100016AD8, symSize: 0x78 }
  - { offsetInCU: 0x38D65, offset: 0x6C2F6, size: 0x8, addend: 0x0, symName: __Z14delete_kd_treeP10KDTreeNode, symObjAddr: 0x3EE4, symBinAddr: 0x100016B50, symSize: 0x9C }
  - { offsetInCU: 0x38DAB, offset: 0x6C33C, size: 0x8, addend: 0x0, symName: __Z14deserializeBSTNSt3__112basic_stringIcNS_11char_traitsIcEENS_9allocatorIcEEEE, symObjAddr: 0x3F80, symBinAddr: 0x100016BEC, symSize: 0x218 }
  - { offsetInCU: 0x38E57, offset: 0x6C3E8, size: 0x8, addend: 0x0, symName: __ZNSt3__118basic_stringstreamIcNS_11char_traitsIcEENS_9allocatorIcEEEC1B7v160006Ev, symObjAddr: 0x4264, symBinAddr: 0x100016E04, symSize: 0x104 }
  - { offsetInCU: 0x38E7F, offset: 0x6C410, size: 0x8, addend: 0x0, symName: __ZNKSt3__114basic_ifstreamIcNS_11char_traitsIcEEE5rdbufEv, symObjAddr: 0x4368, symBinAddr: 0x100016F08, symSize: 0x18 }
  - { offsetInCU: 0x38EA6, offset: 0x6C437, size: 0x8, addend: 0x0, symName: __ZNKSt3__118basic_stringstreamIcNS_11char_traitsIcEENS_9allocatorIcEEE3strB7v160006Ev, symObjAddr: 0x4380, symBinAddr: 0x100016F20, symSize: 0x30 }
  - { offsetInCU: 0x38ECA, offset: 0x6C45B, size: 0x8, addend: 0x0, symName: __ZN8nlohmann16json_abi_v3_11_310basic_jsonINSt3__13mapENS2_6vectorENS2_12basic_stringIcNS2_11char_traitsIcEENS2_9allocatorIcEEEEbxydS8_NS0_14adl_serializerENS4_IhNS8_IhEEEEvE5parseIRSA_EESE_OT_NS2_8functionIFbiNS0_6detail13parse_event_tERSE_EEEbb, symObjAddr: 0x43B0, symBinAddr: 0x100016F50, symSize: 0x1A4 }
  - { offsetInCU: 0x38F3F, offset: 0x6C4D0, size: 0x8, addend: 0x0, symName: __ZNSt3__118basic_stringstreamIcNS_11char_traitsIcEENS_9allocatorIcEEED1Ev, symObjAddr: 0x4554, symBinAddr: 0x1000170F4, symSize: 0x40 }
  - { offsetInCU: 0x38F6A, offset: 0x6C4FB, size: 0x8, addend: 0x0, symName: __Z16deserializeLLRBTNSt3__112basic_stringIcNS_11char_traitsIcEENS_9allocatorIcEEEE, symObjAddr: 0x4594, symBinAddr: 0x100017134, symSize: 0x218 }
  - { offsetInCU: 0x38FE3, offset: 0x6C574, size: 0x8, addend: 0x0, symName: __Z16load_root_kdtreeNSt3__112basic_stringIcNS_11char_traitsIcEENS_9allocatorIcEEEE, symObjAddr: 0x47AC, symBinAddr: 0x10001734C, symSize: 0x218 }
  - { offsetInCU: 0x3905C, offset: 0x6C5ED, size: 0x8, addend: 0x0, symName: __Z13load_path_bstNSt3__112basic_stringIcNS_11char_traitsIcEENS_9allocatorIcEEEE, symObjAddr: 0x49C4, symBinAddr: 0x100017564, symSize: 0x278 }
  - { offsetInCU: 0x390D6, offset: 0x6C667, size: 0x8, addend: 0x0, symName: __Z15load_path_llrbtNSt3__112basic_stringIcNS_11char_traitsIcEENS_9allocatorIcEEEE, symObjAddr: 0x4C3C, symBinAddr: 0x1000177DC, symSize: 0x278 }
  - { offsetInCU: 0x39150, offset: 0x6C6E1, size: 0x8, addend: 0x0, symName: __Z11test_silentPFdvE, symObjAddr: 0x4EB4, symBinAddr: 0x100017A54, symSize: 0xDC }
  - { offsetInCU: 0x39196, offset: 0x6C727, size: 0x8, addend: 0x0, symName: __ZNSt3__113basic_ostreamIcNS_11char_traitsIcEEElsB7v160006EPFRNS_8ios_baseES5_E, symObjAddr: 0x4FD0, symBinAddr: 0x100017B70, symSize: 0x40 }
  - { offsetInCU: 0x391C7, offset: 0x6C758, size: 0x8, addend: 0x0, symName: __Z5splitNSt3__112basic_stringIcNS_11char_traitsIcEENS_9allocatorIcEEEES5_, symObjAddr: 0x506C, symBinAddr: 0x100017C0C, symSize: 0x198 }
  - { offsetInCU: 0x3924C, offset: 0x6C7DD, size: 0x8, addend: 0x0, symName: __ZNKSt3__112basic_stringIcNS_11char_traitsIcEENS_9allocatorIcEEE6lengthB7v160006Ev, symObjAddr: 0x5204, symBinAddr: 0x100017DA4, symSize: 0x24 }
  - { offsetInCU: 0x39270, offset: 0x6C801, size: 0x8, addend: 0x0, symName: __ZNKSt3__112basic_stringIcNS_11char_traitsIcEENS_9allocatorIcEEE4findB7v160006ERKS5_m, symObjAddr: 0x5228, symBinAddr: 0x100017DC8, symSize: 0x78 }
  - { offsetInCU: 0x392B4, offset: 0x6C845, size: 0x8, addend: 0x0, symName: __ZNKSt3__112basic_stringIcNS_11char_traitsIcEENS_9allocatorIcEEE6substrB7v160006Emm, symObjAddr: 0x52A0, symBinAddr: 0x100017E40, symSize: 0x68 }
  - { offsetInCU: 0x392F6, offset: 0x6C887, size: 0x8, addend: 0x0, symName: __ZNSt3__16vectorINS_12basic_stringIcNS_11char_traitsIcEENS_9allocatorIcEEEENS4_IS6_EEE9push_backB7v160006EOS6_, symObjAddr: 0x533C, symBinAddr: 0x100017EA8, symSize: 0x6C }
  - { offsetInCU: 0x3932A, offset: 0x6C8BB, size: 0x8, addend: 0x0, symName: __Z10split_trimNSt3__112basic_stringIcNS_11char_traitsIcEENS_9allocatorIcEEEES5_, symObjAddr: 0x53A8, symBinAddr: 0x100017F14, symSize: 0x1E4 }
  - { offsetInCU: 0x393AE, offset: 0x6C93F, size: 0x8, addend: 0x0, symName: __Z4trimRNSt3__112basic_stringIcNS_11char_traitsIcEENS_9allocatorIcEEEEPKc, symObjAddr: 0x558C, symBinAddr: 0x1000180F8, symSize: 0x34 }
  - { offsetInCU: 0x393E8, offset: 0x6C979, size: 0x8, addend: 0x0, symName: __Z13test_init_bstv, symObjAddr: 0x55F4, symBinAddr: 0x10001812C, symSize: 0x328 }
  - { offsetInCU: 0x3947A, offset: 0x6CA0B, size: 0x8, addend: 0x0, symName: __Z15test_delete_bstv, symObjAddr: 0x5F50, symBinAddr: 0x100018A88, symSize: 0x4B0 }
  - { offsetInCU: 0x39530, offset: 0x6CAC1, size: 0x8, addend: 0x0, symName: __ZNKSt3__16vectorINS_12basic_stringIcNS_11char_traitsIcEENS_9allocatorIcEEEENS4_IS6_EEE4sizeB7v160006Ev, symObjAddr: 0x6400, symBinAddr: 0x100018F38, symSize: 0x28 }
  - { offsetInCU: 0x39554, offset: 0x6CAE5, size: 0x8, addend: 0x0, symName: __ZNSt3__16vectorINS_12basic_stringIcNS_11char_traitsIcEENS_9allocatorIcEEEENS4_IS6_EEE2atEm, symObjAddr: 0x6428, symBinAddr: 0x100018F60, symSize: 0x68 }
  - { offsetInCU: 0x39588, offset: 0x6CB19, size: 0x8, addend: 0x0, symName: __Z17grade_output_fileRKNSt3__112basic_stringIcNS_11char_traitsIcEENS_9allocatorIcEEEENS_8functionIFvvEEE, symObjAddr: 0x6490, symBinAddr: 0x100018FC8, symSize: 0x50C }
  - { offsetInCU: 0x39695, offset: 0x6CC26, size: 0x8, addend: 0x0, symName: __ZNSt3__119basic_ostringstreamIcNS_11char_traitsIcEENS_9allocatorIcEEEC1B7v160006Ev, symObjAddr: 0x69E8, symBinAddr: 0x1000194D4, symSize: 0xEC }
  - { offsetInCU: 0x396BD, offset: 0x6CC4E, size: 0x8, addend: 0x0, symName: __ZNSt3__19basic_iosIcNS_11char_traitsIcEEE5rdbufB7v160006EPNS_15basic_streambufIcS2_EE, symObjAddr: 0x6AD4, symBinAddr: 0x1000195C0, symSize: 0x44 }
  - { offsetInCU: 0x39702, offset: 0x6CC93, size: 0x8, addend: 0x0, symName: __ZNKSt3__119basic_ostringstreamIcNS_11char_traitsIcEENS_9allocatorIcEEE5rdbufB7v160006Ev, symObjAddr: 0x6B18, symBinAddr: 0x100019604, symSize: 0x18 }
  - { offsetInCU: 0x39767, offset: 0x6CCF8, size: 0x8, addend: 0x0, symName: __ZNKSt3__18functionIFvvEEclEv, symObjAddr: 0x6B30, symBinAddr: 0x10001961C, symSize: 0x24 }
  - { offsetInCU: 0x3978D, offset: 0x6CD1E, size: 0x8, addend: 0x0, symName: __ZNKSt3__119basic_ostringstreamIcNS_11char_traitsIcEENS_9allocatorIcEEE3strB7v160006Ev, symObjAddr: 0x6B54, symBinAddr: 0x100019640, symSize: 0x30 }
  - { offsetInCU: 0x397B1, offset: 0x6CD42, size: 0x8, addend: 0x0, symName: __ZNSt3__16vectorINS_12basic_stringIcNS_11char_traitsIcEENS_9allocatorIcEEEENS4_IS6_EEEixB7v160006Em, symObjAddr: 0x6CCC, symBinAddr: 0x100019670, symSize: 0x2C }
  - { offsetInCU: 0x397EC, offset: 0x6CD7D, size: 0x8, addend: 0x0, symName: __ZNSt3__119basic_ostringstreamIcNS_11char_traitsIcEENS_9allocatorIcEEED1Ev, symObjAddr: 0x6CF8, symBinAddr: 0x10001969C, symSize: 0x40 }
  - { offsetInCU: 0x39817, offset: 0x6CDA8, size: 0x8, addend: 0x0, symName: __Z19test_bst_traversalsv, symObjAddr: 0x6D38, symBinAddr: 0x1000196DC, symSize: 0x620 }
  - { offsetInCU: 0x39880, offset: 0x6CE11, size: 0x8, addend: 0x0, symName: __ZNSt3__18functionIFvvEEC1INS_6__bindIM14SpaceSectorBSTFvvEJPS5_EEEvEET_, symObjAddr: 0x7390, symBinAddr: 0x100019D34, symSize: 0x34 }
  - { offsetInCU: 0x398C5, offset: 0x6CE56, size: 0x8, addend: 0x0, symName: __ZNSt3__18functionIFvvEED1Ev, symObjAddr: 0x73C4, symBinAddr: 0x100019D68, symSize: 0x2C }
  - { offsetInCU: 0x398EF, offset: 0x6CE80, size: 0x8, addend: 0x0, symName: __Z20test_bst_pathfindingv, symObjAddr: 0x73F0, symBinAddr: 0x100019D94, symSize: 0x610 }
  - { offsetInCU: 0x399ED, offset: 0x6CF7E, size: 0x8, addend: 0x0, symName: __ZN8nlohmann16json_abi_v3_11_310basic_jsonINSt3__13mapENS2_6vectorENS2_12basic_stringIcNS2_11char_traitsIcEENS2_9allocatorIcEEEEbxydS8_NS0_14adl_serializerENS4_IhNS8_IhEEEEvEC1ISA_SA_Li0EEEOT_, symObjAddr: 0x7A00, symBinAddr: 0x10001A3A4, symSize: 0x34 }
  - { offsetInCU: 0x39A3C, offset: 0x6CFCD, size: 0x8, addend: 0x0, symName: __Z15test_init_llrbtv, symObjAddr: 0x7A80, symBinAddr: 0x10001A3D8, symSize: 0x328 }
  - { offsetInCU: 0x39ACE, offset: 0x6D05F, size: 0x8, addend: 0x0, symName: __Z22test_llrbt_pathfindingv, symObjAddr: 0x7DA8, symBinAddr: 0x10001A700, symSize: 0x988 }
  - { offsetInCU: 0x39C56, offset: 0x6D1E7, size: 0x8, addend: 0x0, symName: __ZNSt3__16vectorIP6SectorNS_9allocatorIS2_EEE5beginB7v160006Ev, symObjAddr: 0x8730, symBinAddr: 0x10001B088, symSize: 0x30 }
  - { offsetInCU: 0x39C7C, offset: 0x6D20D, size: 0x8, addend: 0x0, symName: __ZNSt3__16vectorIP6SectorNS_9allocatorIS2_EEE3endB7v160006Ev, symObjAddr: 0x8760, symBinAddr: 0x10001B0B8, symSize: 0x30 }
  - { offsetInCU: 0x39CA2, offset: 0x6D233, size: 0x8, addend: 0x0, symName: __ZNKSt3__111__wrap_iterIPP6SectorEdeB7v160006Ev, symObjAddr: 0x87C4, symBinAddr: 0x10001B11C, symSize: 0x18 }
  - { offsetInCU: 0x39CC6, offset: 0x6D257, size: 0x8, addend: 0x0, symName: __ZNSt3__111__wrap_iterIPP6SectorEppB7v160006Ev, symObjAddr: 0x87DC, symBinAddr: 0x10001B134, symSize: 0x20 }
  - { offsetInCU: 0x39CE9, offset: 0x6D27A, size: 0x8, addend: 0x0, symName: __Z15run_sample_maini, symObjAddr: 0x87FC, symBinAddr: 0x10001B154, symSize: 0x564 }
  - { offsetInCU: 0x39DBC, offset: 0x6D34D, size: 0x8, addend: 0x0, symName: '__ZNSt3__18functionIFvvEEC1IZ11test_outputvE3$_0vEET_', symObjAddr: 0x8FF4, symBinAddr: 0x10001B94C, symSize: 0x3C }
  - { offsetInCU: 0x39E00, offset: 0x6D391, size: 0x8, addend: 0x0, symName: _main, symObjAddr: 0x9030, symBinAddr: 0x10001B988, symSize: 0x64 }
  - { offsetInCU: 0x39E3A, offset: 0x6D3CB, size: 0x8, addend: 0x0, symName: __ZNKSt3__111__wrap_iterIPKdE4baseB7v160006Ev, symObjAddr: 0x90DC, symBinAddr: 0x10001BA34, symSize: 0x18 }
  - { offsetInCU: 0x39E5E, offset: 0x6D3EF, size: 0x8, addend: 0x0, symName: __ZNKSt3__111__wrap_iterIPK5PointE4baseB7v160006Ev, symObjAddr: 0x913C, symBinAddr: 0x10001BA94, symSize: 0x18 }
  - { offsetInCU: 0x39E82, offset: 0x6D413, size: 0x8, addend: 0x0, symName: __ZNKSt3__111__wrap_iterIPKP6SectorE4baseB7v160006Ev, symObjAddr: 0x919C, symBinAddr: 0x10001BAF4, symSize: 0x18 }
  - { offsetInCU: 0x39EA6, offset: 0x6D437, size: 0x8, addend: 0x0, symName: __ZN5PointC2ERKNSt3__16vectorIdNS0_9allocatorIdEEEERKNS0_12basic_stringIcNS0_11char_traitsIcEENS2_IcEEEE, symObjAddr: 0x91B4, symBinAddr: 0x10001BB0C, symSize: 0x70 }
  - { offsetInCU: 0x39EEA, offset: 0x6D47B, size: 0x8, addend: 0x0, symName: __ZNSt3__16vectorIdNS_9allocatorIdEEEC1ERKS3_, symObjAddr: 0x9224, symBinAddr: 0x10001BB7C, symSize: 0x34 }
  - { offsetInCU: 0x39F24, offset: 0x6D4B5, size: 0x8, addend: 0x0, symName: __ZNSt3__16vectorIdNS_9allocatorIdEEEC2ERKS3_, symObjAddr: 0x9258, symBinAddr: 0x10001BBB0, symSize: 0x114 }
  - { offsetInCU: 0x39F8F, offset: 0x6D520, size: 0x8, addend: 0x0, symName: __ZNSt3__116allocator_traitsINS_9allocatorIdEEE37select_on_container_copy_constructionB7v160006IS2_vvEES2_RKS2_, symObjAddr: 0x936C, symBinAddr: 0x10001BCC4, symSize: 0x10 }
  - { offsetInCU: 0x39FBD, offset: 0x6D54E, size: 0x8, addend: 0x0, symName: __ZNKSt3__16vectorIdNS_9allocatorIdEEE7__allocB7v160006Ev, symObjAddr: 0x937C, symBinAddr: 0x10001BCD4, symSize: 0x28 }
  - { offsetInCU: 0x39FEB, offset: 0x6D57C, size: 0x8, addend: 0x0, symName: __ZNSt3__117__compressed_pairIPdNS_9allocatorIdEEEC1B7v160006IDnS3_EEOT_OT0_, symObjAddr: 0x93A4, symBinAddr: 0x10001BCFC, symSize: 0x3C }
  - { offsetInCU: 0x3A041, offset: 0x6D5D2, size: 0x8, addend: 0x0, symName: __ZNSt3__16vectorIdNS_9allocatorIdEEE16__destroy_vectorC1ERS3_, symObjAddr: 0x9420, symBinAddr: 0x10001BD78, symSize: 0x34 }
  - { offsetInCU: 0x3A078, offset: 0x6D609, size: 0x8, addend: 0x0, symName: __ZNKSt3__16vectorIdNS_9allocatorIdEEE4sizeB7v160006Ev, symObjAddr: 0x9464, symBinAddr: 0x10001BDBC, symSize: 0x28 }
  - { offsetInCU: 0x3A09C, offset: 0x6D62D, size: 0x8, addend: 0x0, symName: __ZNSt3__16vectorIdNS_9allocatorIdEEE11__vallocateB7v160006Em, symObjAddr: 0x948C, symBinAddr: 0x10001BDE4, symSize: 0xAC }
  - { offsetInCU: 0x3A0DF, offset: 0x6D670, size: 0x8, addend: 0x0, symName: __ZNSt3__16vectorIdNS_9allocatorIdEEE18__construct_at_endIPdLi0EEEvT_S6_m, symObjAddr: 0x9538, symBinAddr: 0x10001BE90, symSize: 0x8C }
  - { offsetInCU: 0x3A152, offset: 0x6D6E3, size: 0x8, addend: 0x0, symName: __ZNSt3__128__exception_guard_exceptionsINS_6vectorIdNS_9allocatorIdEEE16__destroy_vectorEE10__completeB7v160006Ev, symObjAddr: 0x95C4, symBinAddr: 0x10001BF1C, symSize: 0x1C }
  - { offsetInCU: 0x3A176, offset: 0x6D707, size: 0x8, addend: 0x0, symName: __ZNSt3__128__exception_guard_exceptionsINS_6vectorIdNS_9allocatorIdEEE16__destroy_vectorEED1B7v160006Ev, symObjAddr: 0x95E0, symBinAddr: 0x10001BF38, symSize: 0x2C }
  - { offsetInCU: 0x3A19E, offset: 0x6D72F, size: 0x8, addend: 0x0, symName: __ZNKSt3__117__compressed_pairIPdNS_9allocatorIdEEE6secondB7v160006Ev, symObjAddr: 0x960C, symBinAddr: 0x10001BF64, symSize: 0x24 }
  - { offsetInCU: 0x3A1C2, offset: 0x6D753, size: 0x8, addend: 0x0, symName: __ZNKSt3__122__compressed_pair_elemINS_9allocatorIdEELi1ELb1EE5__getB7v160006Ev, symObjAddr: 0x9630, symBinAddr: 0x10001BF88, symSize: 0x14 }
  - { offsetInCU: 0x3A1E6, offset: 0x6D777, size: 0x8, addend: 0x0, symName: __ZNSt3__117__compressed_pairIPdNS_9allocatorIdEEEC2B7v160006IDnS3_EEOT_OT0_, symObjAddr: 0x9644, symBinAddr: 0x10001BF9C, symSize: 0x44 }
  - { offsetInCU: 0x3A23C, offset: 0x6D7CD, size: 0x8, addend: 0x0, symName: __ZNSt3__122__compressed_pair_elemIPdLi0ELb0EEC2B7v160006IDnvEEOT_, symObjAddr: 0x9688, symBinAddr: 0x10001BFE0, symSize: 0x1C }
  - { offsetInCU: 0x3A27C, offset: 0x6D80D, size: 0x8, addend: 0x0, symName: __ZNSt3__122__compressed_pair_elemINS_9allocatorIdEELi1ELb1EEC2B7v160006IS2_vEEOT_, symObjAddr: 0x96A4, symBinAddr: 0x10001BFFC, symSize: 0x18 }
  - { offsetInCU: 0x3A2BC, offset: 0x6D84D, size: 0x8, addend: 0x0, symName: __ZNSt3__128__exception_guard_exceptionsINS_6vectorIdNS_9allocatorIdEEE16__destroy_vectorEEC1B7v160006ES5_, symObjAddr: 0x96BC, symBinAddr: 0x10001C014, symSize: 0x34 }
  - { offsetInCU: 0x3A2F2, offset: 0x6D883, size: 0x8, addend: 0x0, symName: __ZNSt3__128__exception_guard_exceptionsINS_6vectorIdNS_9allocatorIdEEE16__destroy_vectorEEC2B7v160006ES5_, symObjAddr: 0x96F0, symBinAddr: 0x10001C048, symSize: 0x24 }
  - { offsetInCU: 0x3A328, offset: 0x6D8B9, size: 0x8, addend: 0x0, symName: __ZNSt3__16vectorIdNS_9allocatorIdEEE16__destroy_vectorC2ERS3_, symObjAddr: 0x9714, symBinAddr: 0x10001C06C, symSize: 0x20 }
  - { offsetInCU: 0x3A35F, offset: 0x6D8F0, size: 0x8, addend: 0x0, symName: __ZNKSt3__16vectorIdNS_9allocatorIdEEE8max_sizeEv, symObjAddr: 0x9734, symBinAddr: 0x10001C08C, symSize: 0x60 }
  - { offsetInCU: 0x3A385, offset: 0x6D916, size: 0x8, addend: 0x0, symName: __ZNKSt3__16vectorIdNS_9allocatorIdEEE20__throw_length_errorB7v160006Ev, symObjAddr: 0x9794, symBinAddr: 0x10001C0EC, symSize: 0x1C }
  - { offsetInCU: 0x3A3A9, offset: 0x6D93A, size: 0x8, addend: 0x0, symName: __ZNSt3__16vectorIdNS_9allocatorIdEEE7__allocB7v160006Ev, symObjAddr: 0x97F0, symBinAddr: 0x10001C148, symSize: 0x28 }
  - { offsetInCU: 0x3A3CD, offset: 0x6D95E, size: 0x8, addend: 0x0, symName: __ZNSt3__16vectorIdNS_9allocatorIdEEE9__end_capB7v160006Ev, symObjAddr: 0x9818, symBinAddr: 0x10001C170, symSize: 0x28 }
  - { offsetInCU: 0x3A3F1, offset: 0x6D982, size: 0x8, addend: 0x0, symName: __ZNKSt3__16vectorIdNS_9allocatorIdEEE14__annotate_newB7v160006Em, symObjAddr: 0x9840, symBinAddr: 0x10001C198, symSize: 0xAC }
  - { offsetInCU: 0x3A424, offset: 0x6D9B5, size: 0x8, addend: 0x0, symName: __ZNSt3__116allocator_traitsINS_9allocatorIdEEE8max_sizeB7v160006IS2_vEEmRKS2_, symObjAddr: 0x9918, symBinAddr: 0x10001C244, symSize: 0x24 }
  - { offsetInCU: 0x3A451, offset: 0x6D9E2, size: 0x8, addend: 0x0, symName: __ZNKSt3__19allocatorIdE8max_sizeB7v160006Ev, symObjAddr: 0x99E4, symBinAddr: 0x10001C268, symSize: 0x14 }
  - { offsetInCU: 0x3A475, offset: 0x6DA06, size: 0x8, addend: 0x0, symName: __ZNSt3__19allocatorIdE8allocateB7v160006Em, symObjAddr: 0x9AE4, symBinAddr: 0x10001C27C, symSize: 0x58 }
  - { offsetInCU: 0x3A4A7, offset: 0x6DA38, size: 0x8, addend: 0x0, symName: __ZNSt3__117__compressed_pairIPdNS_9allocatorIdEEE6secondB7v160006Ev, symObjAddr: 0x9BBC, symBinAddr: 0x10001C2D4, symSize: 0x24 }
  - { offsetInCU: 0x3A4CB, offset: 0x6DA5C, size: 0x8, addend: 0x0, symName: __ZNSt3__122__compressed_pair_elemINS_9allocatorIdEELi1ELb1EE5__getB7v160006Ev, symObjAddr: 0x9BE0, symBinAddr: 0x10001C2F8, symSize: 0x14 }
  - { offsetInCU: 0x3A4EF, offset: 0x6DA80, size: 0x8, addend: 0x0, symName: __ZNSt3__117__compressed_pairIPdNS_9allocatorIdEEE5firstB7v160006Ev, symObjAddr: 0x9BF4, symBinAddr: 0x10001C30C, symSize: 0x24 }
  - { offsetInCU: 0x3A513, offset: 0x6DAA4, size: 0x8, addend: 0x0, symName: __ZNSt3__122__compressed_pair_elemIPdLi0ELb0EE5__getB7v160006Ev, symObjAddr: 0x9C18, symBinAddr: 0x10001C330, symSize: 0x14 }
  - { offsetInCU: 0x3A537, offset: 0x6DAC8, size: 0x8, addend: 0x0, symName: __ZNKSt3__16vectorIdNS_9allocatorIdEEE31__annotate_contiguous_containerB7v160006EPKvS5_S5_S5_, symObjAddr: 0x9C2C, symBinAddr: 0x10001C344, symSize: 0x20 }
  - { offsetInCU: 0x3A587, offset: 0x6DB18, size: 0x8, addend: 0x0, symName: __ZNKSt3__16vectorIdNS_9allocatorIdEEE4dataB7v160006Ev, symObjAddr: 0x9C4C, symBinAddr: 0x10001C364, symSize: 0x28 }
  - { offsetInCU: 0x3A5AB, offset: 0x6DB3C, size: 0x8, addend: 0x0, symName: __ZNKSt3__16vectorIdNS_9allocatorIdEEE8capacityB7v160006Ev, symObjAddr: 0x9C74, symBinAddr: 0x10001C38C, symSize: 0x40 }
  - { offsetInCU: 0x3A5CF, offset: 0x6DB60, size: 0x8, addend: 0x0, symName: __ZNKSt3__16vectorIdNS_9allocatorIdEEE9__end_capB7v160006Ev, symObjAddr: 0x9CC8, symBinAddr: 0x10001C3E0, symSize: 0x28 }
  - { offsetInCU: 0x3A5F3, offset: 0x6DB84, size: 0x8, addend: 0x0, symName: __ZNKSt3__117__compressed_pairIPdNS_9allocatorIdEEE5firstB7v160006Ev, symObjAddr: 0x9CF0, symBinAddr: 0x10001C408, symSize: 0x24 }
  - { offsetInCU: 0x3A617, offset: 0x6DBA8, size: 0x8, addend: 0x0, symName: __ZNKSt3__122__compressed_pair_elemIPdLi0ELb0EE5__getB7v160006Ev, symObjAddr: 0x9D14, symBinAddr: 0x10001C42C, symSize: 0x14 }
  - { offsetInCU: 0x3A654, offset: 0x6DBE5, size: 0x8, addend: 0x0, symName: __ZNSt3__16vectorIdNS_9allocatorIdEEE21_ConstructTransactionC1B7v160006ERS3_m, symObjAddr: 0x9D28, symBinAddr: 0x10001C440, symSize: 0x3C }
  - { offsetInCU: 0x3A69A, offset: 0x6DC2B, size: 0x8, addend: 0x0, symName: __ZNSt3__16vectorIdNS_9allocatorIdEEE21_ConstructTransactionD1B7v160006Ev, symObjAddr: 0x9E58, symBinAddr: 0x10001C570, symSize: 0x2C }
  - { offsetInCU: 0x3A6C2, offset: 0x6DC53, size: 0x8, addend: 0x0, symName: __ZNSt3__16vectorIdNS_9allocatorIdEEE21_ConstructTransactionC2B7v160006ERS3_m, symObjAddr: 0x9E84, symBinAddr: 0x10001C59C, symSize: 0x44 }
  - { offsetInCU: 0x3A708, offset: 0x6DC99, size: 0x8, addend: 0x0, symName: __ZNSt3__129_AllocatorDestroyRangeReverseINS_9allocatorIdEEPdEC1B7v160006ERS2_RS3_S6_, symObjAddr: 0x9F14, symBinAddr: 0x10001C62C, symSize: 0x44 }
  - { offsetInCU: 0x3A75D, offset: 0x6DCEE, size: 0x8, addend: 0x0, symName: __ZNSt3__116allocator_traitsINS_9allocatorIdEEE9constructB7v160006IdJRdEvEEvRS2_PT_DpOT0_, symObjAddr: 0x9F58, symBinAddr: 0x10001C670, symSize: 0x34 }
  - { offsetInCU: 0x3A7B3, offset: 0x6DD44, size: 0x8, addend: 0x0, symName: __ZNSt3__128__exception_guard_exceptionsINS_29_AllocatorDestroyRangeReverseINS_9allocatorIdEEPdEEE10__completeB7v160006Ev, symObjAddr: 0x9F8C, symBinAddr: 0x10001C6A4, symSize: 0x1C }
  - { offsetInCU: 0x3A7D7, offset: 0x6DD68, size: 0x8, addend: 0x0, symName: __ZNSt3__128__exception_guard_exceptionsINS_29_AllocatorDestroyRangeReverseINS_9allocatorIdEEPdEEED1B7v160006Ev, symObjAddr: 0x9FA8, symBinAddr: 0x10001C6C0, symSize: 0x2C }
  - { offsetInCU: 0x3A7FF, offset: 0x6DD90, size: 0x8, addend: 0x0, symName: __ZNSt3__128__exception_guard_exceptionsINS_29_AllocatorDestroyRangeReverseINS_9allocatorIdEEPdEEEC1B7v160006ES5_, symObjAddr: 0x9FD4, symBinAddr: 0x10001C6EC, symSize: 0x34 }
  - { offsetInCU: 0x3A836, offset: 0x6DDC7, size: 0x8, addend: 0x0, symName: __ZNSt3__128__exception_guard_exceptionsINS_29_AllocatorDestroyRangeReverseINS_9allocatorIdEEPdEEEC2B7v160006ES5_, symObjAddr: 0xA008, symBinAddr: 0x10001C720, symSize: 0x30 }
  - { offsetInCU: 0x3A86D, offset: 0x6DDFE, size: 0x8, addend: 0x0, symName: __ZNSt3__129_AllocatorDestroyRangeReverseINS_9allocatorIdEEPdEC2B7v160006ERS2_RS3_S6_, symObjAddr: 0xA038, symBinAddr: 0x10001C750, symSize: 0x38 }
  - { offsetInCU: 0x3A8C2, offset: 0x6DE53, size: 0x8, addend: 0x0, symName: __ZNSt3__19allocatorIdE9constructB7v160006IdJRdEEEvPT_DpOT0_, symObjAddr: 0xA070, symBinAddr: 0x10001C788, symSize: 0x28 }
  - { offsetInCU: 0x3A916, offset: 0x6DEA7, size: 0x8, addend: 0x0, symName: __ZNSt3__128__exception_guard_exceptionsINS_29_AllocatorDestroyRangeReverseINS_9allocatorIdEEPdEEED2B7v160006Ev, symObjAddr: 0xA098, symBinAddr: 0x10001C7B0, symSize: 0x50 }
  - { offsetInCU: 0x3A93E, offset: 0x6DECF, size: 0x8, addend: 0x0, symName: __ZNKSt3__129_AllocatorDestroyRangeReverseINS_9allocatorIdEEPdEclB7v160006Ev, symObjAddr: 0xA0E8, symBinAddr: 0x10001C800, symSize: 0x68 }
  - { offsetInCU: 0x3A962, offset: 0x6DEF3, size: 0x8, addend: 0x0, symName: __ZNSt3__116reverse_iteratorIPdEC1B7v160006ES1_, symObjAddr: 0xA1C0, symBinAddr: 0x10001C8D8, symSize: 0x34 }
  - { offsetInCU: 0x3A998, offset: 0x6DF29, size: 0x8, addend: 0x0, symName: __ZNSt3__116allocator_traitsINS_9allocatorIdEEE7destroyB7v160006IdvEEvRS2_PT_, symObjAddr: 0xA23C, symBinAddr: 0x10001C954, symSize: 0x2C }
  - { offsetInCU: 0x3A9D4, offset: 0x6DF65, size: 0x8, addend: 0x0, symName: __ZNSt3__116reverse_iteratorIPdEppB7v160006Ev, symObjAddr: 0xA28C, symBinAddr: 0x10001C9A4, symSize: 0x20 }
  - { offsetInCU: 0x3A9F8, offset: 0x6DF89, size: 0x8, addend: 0x0, symName: __ZNKSt3__116reverse_iteratorIPdE4baseB7v160006Ev, symObjAddr: 0xA2AC, symBinAddr: 0x10001C9C4, symSize: 0x18 }
  - { offsetInCU: 0x3AA1C, offset: 0x6DFAD, size: 0x8, addend: 0x0, symName: __ZNSt3__19allocatorIdE7destroyB7v160006EPd, symObjAddr: 0xA2C4, symBinAddr: 0x10001C9DC, symSize: 0x14 }
  - { offsetInCU: 0x3AA53, offset: 0x6DFE4, size: 0x8, addend: 0x0, symName: __ZNSt3__119__to_address_helperINS_16reverse_iteratorIPdEEvE6__callB7v160006ERKS3_, symObjAddr: 0xA2D8, symBinAddr: 0x10001C9F0, symSize: 0x38 }
  - { offsetInCU: 0x3AA75, offset: 0x6E006, size: 0x8, addend: 0x0, symName: __ZNKSt3__116reverse_iteratorIPdEptB7v160006Ev, symObjAddr: 0xA310, symBinAddr: 0x10001CA28, symSize: 0x24 }
  - { offsetInCU: 0x3AA99, offset: 0x6E02A, size: 0x8, addend: 0x0, symName: __ZNKSt3__116reverse_iteratorIPdEdeB7v160006Ev, symObjAddr: 0xA334, symBinAddr: 0x10001CA4C, symSize: 0x28 }
  - { offsetInCU: 0x3AACB, offset: 0x6E05C, size: 0x8, addend: 0x0, symName: __ZNSt3__116reverse_iteratorIPdEC2B7v160006ES1_, symObjAddr: 0xA35C, symBinAddr: 0x10001CA74, symSize: 0x28 }
  - { offsetInCU: 0x3AB01, offset: 0x6E092, size: 0x8, addend: 0x0, symName: __ZNSt3__16vectorIdNS_9allocatorIdEEE21_ConstructTransactionD2B7v160006Ev, symObjAddr: 0xA384, symBinAddr: 0x10001CA9C, symSize: 0x20 }
  - { offsetInCU: 0x3AB29, offset: 0x6E0BA, size: 0x8, addend: 0x0, symName: __ZNSt3__128__exception_guard_exceptionsINS_6vectorIdNS_9allocatorIdEEE16__destroy_vectorEED2B7v160006Ev, symObjAddr: 0xA3A4, symBinAddr: 0x10001CABC, symSize: 0x50 }
  - { offsetInCU: 0x3AB51, offset: 0x6E0E2, size: 0x8, addend: 0x0, symName: __ZNSt3__16vectorIdNS_9allocatorIdEEE16__destroy_vectorclB7v160006Ev, symObjAddr: 0xA3F4, symBinAddr: 0x10001CB0C, symSize: 0x9C }
  - { offsetInCU: 0x3AB75, offset: 0x6E106, size: 0x8, addend: 0x0, symName: __ZNKSt3__16vectorIdNS_9allocatorIdEEE17__annotate_deleteB7v160006Ev, symObjAddr: 0xA490, symBinAddr: 0x10001CBA8, symSize: 0xB8 }
  - { offsetInCU: 0x3AB99, offset: 0x6E12A, size: 0x8, addend: 0x0, symName: __ZNSt3__16vectorIdNS_9allocatorIdEEE7__clearB7v160006Ev, symObjAddr: 0xA558, symBinAddr: 0x10001CC70, symSize: 0x28 }
  - { offsetInCU: 0x3ABBD, offset: 0x6E14E, size: 0x8, addend: 0x0, symName: __ZNSt3__116allocator_traitsINS_9allocatorIdEEE10deallocateB7v160006ERS2_Pdm, symObjAddr: 0xA580, symBinAddr: 0x10001CC98, symSize: 0x34 }
  - { offsetInCU: 0x3ABFE, offset: 0x6E18F, size: 0x8, addend: 0x0, symName: __ZNSt3__16vectorIdNS_9allocatorIdEEE22__base_destruct_at_endB7v160006EPd, symObjAddr: 0xA5B4, symBinAddr: 0x10001CCCC, symSize: 0x8C }
  - { offsetInCU: 0x3AC41, offset: 0x6E1D2, size: 0x8, addend: 0x0, symName: __ZNSt3__19allocatorIdE10deallocateB7v160006EPdm, symObjAddr: 0xA640, symBinAddr: 0x10001CD58, symSize: 0x40 }
  - { offsetInCU: 0x3AC81, offset: 0x6E212, size: 0x8, addend: 0x0, symName: __ZN7DatasetC2Ev, symObjAddr: 0xA6FC, symBinAddr: 0x10001CD98, symSize: 0x38 }
  - { offsetInCU: 0x3ACA9, offset: 0x6E23A, size: 0x8, addend: 0x0, symName: __ZNSt3__16vectorI5PointNS_9allocatorIS1_EEEC1B7v160006Ev, symObjAddr: 0xA734, symBinAddr: 0x10001CDD0, symSize: 0x2C }
  - { offsetInCU: 0x3ACD1, offset: 0x6E262, size: 0x8, addend: 0x0, symName: __ZNSt3__16vectorI5PointNS_9allocatorIS1_EEEC2B7v160006Ev, symObjAddr: 0xA760, symBinAddr: 0x10001CDFC, symSize: 0x58 }
  - { offsetInCU: 0x3ACFE, offset: 0x6E28F, size: 0x8, addend: 0x0, symName: __ZNSt3__117__compressed_pairIP5PointNS_9allocatorIS1_EEEC1B7v160006IDnNS_18__default_init_tagEEEOT_OT0_, symObjAddr: 0xA7B8, symBinAddr: 0x10001CE54, symSize: 0x3C }
  - { offsetInCU: 0x3AD54, offset: 0x6E2E5, size: 0x8, addend: 0x0, symName: __ZNSt3__117__compressed_pairIP5PointNS_9allocatorIS1_EEEC2B7v160006IDnNS_18__default_init_tagEEEOT_OT0_, symObjAddr: 0xA804, symBinAddr: 0x10001CEA0, symSize: 0x40 }
  - { offsetInCU: 0x3ADAA, offset: 0x6E33B, size: 0x8, addend: 0x0, symName: __ZNSt3__122__compressed_pair_elemIP5PointLi0ELb0EEC2B7v160006IDnvEEOT_, symObjAddr: 0xA844, symBinAddr: 0x10001CEE0, symSize: 0x1C }
  - { offsetInCU: 0x3ADEA, offset: 0x6E37B, size: 0x8, addend: 0x0, symName: __ZNSt3__122__compressed_pair_elemINS_9allocatorI5PointEELi1ELb1EEC2B7v160006ENS_18__default_init_tagE, symObjAddr: 0xA860, symBinAddr: 0x10001CEFC, symSize: 0x2C }
  - { offsetInCU: 0x3AE1C, offset: 0x6E3AD, size: 0x8, addend: 0x0, symName: __ZNSt3__19allocatorI5PointEC2B7v160006Ev, symObjAddr: 0xA88C, symBinAddr: 0x10001CF28, symSize: 0x2C }
  - { offsetInCU: 0x3AE44, offset: 0x6E3D5, size: 0x8, addend: 0x0, symName: __ZNSt3__116__non_trivial_ifILb1ENS_9allocatorI5PointEEEC2B7v160006Ev, symObjAddr: 0xA8B8, symBinAddr: 0x10001CF54, symSize: 0x14 }
  - { offsetInCU: 0x3AE6C, offset: 0x6E3FD, size: 0x8, addend: 0x0, symName: __ZN5PointD2Ev, symObjAddr: 0xA8CC, symBinAddr: 0x10001CF68, symSize: 0x38 }
  - { offsetInCU: 0x3AE96, offset: 0x6E427, size: 0x8, addend: 0x0, symName: __ZN7DatasetD2Ev, symObjAddr: 0xA904, symBinAddr: 0x10001CFA0, symSize: 0x38 }
  - { offsetInCU: 0x3AEC0, offset: 0x6E451, size: 0x8, addend: 0x0, symName: __ZNSt3__16vectorI5PointNS_9allocatorIS1_EEED1B7v160006Ev, symObjAddr: 0xA93C, symBinAddr: 0x10001CFD8, symSize: 0x2C }
  - { offsetInCU: 0x3AEE8, offset: 0x6E479, size: 0x8, addend: 0x0, symName: __ZNSt3__16vectorI5PointNS_9allocatorIS1_EEED2B7v160006Ev, symObjAddr: 0xA968, symBinAddr: 0x10001D004, symSize: 0x44 }
  - { offsetInCU: 0x3AF10, offset: 0x6E4A1, size: 0x8, addend: 0x0, symName: __ZNSt3__16vectorI5PointNS_9allocatorIS1_EEE16__destroy_vectorC1ERS4_, symObjAddr: 0xA9AC, symBinAddr: 0x10001D048, symSize: 0x34 }
  - { offsetInCU: 0x3AF47, offset: 0x6E4D8, size: 0x8, addend: 0x0, symName: __ZNSt3__16vectorI5PointNS_9allocatorIS1_EEE16__destroy_vectorclB7v160006Ev, symObjAddr: 0xA9E0, symBinAddr: 0x10001D07C, symSize: 0x9C }
  - { offsetInCU: 0x3AF6B, offset: 0x6E4FC, size: 0x8, addend: 0x0, symName: __ZNSt3__16vectorI5PointNS_9allocatorIS1_EEE16__destroy_vectorC2ERS4_, symObjAddr: 0xAA7C, symBinAddr: 0x10001D118, symSize: 0x20 }
  - { offsetInCU: 0x3AFA2, offset: 0x6E533, size: 0x8, addend: 0x0, symName: __ZNKSt3__16vectorI5PointNS_9allocatorIS1_EEE17__annotate_deleteB7v160006Ev, symObjAddr: 0xAA9C, symBinAddr: 0x10001D138, symSize: 0xD4 }
  - { offsetInCU: 0x3AFC6, offset: 0x6E557, size: 0x8, addend: 0x0, symName: __ZNSt3__16vectorI5PointNS_9allocatorIS1_EEE7__clearB7v160006Ev, symObjAddr: 0xAB80, symBinAddr: 0x10001D21C, symSize: 0x28 }
  - { offsetInCU: 0x3AFEA, offset: 0x6E57B, size: 0x8, addend: 0x0, symName: __ZNSt3__116allocator_traitsINS_9allocatorI5PointEEE10deallocateB7v160006ERS3_PS2_m, symObjAddr: 0xABA8, symBinAddr: 0x10001D244, symSize: 0x34 }
  - { offsetInCU: 0x3B02B, offset: 0x6E5BC, size: 0x8, addend: 0x0, symName: __ZNSt3__16vectorI5PointNS_9allocatorIS1_EEE7__allocB7v160006Ev, symObjAddr: 0xABDC, symBinAddr: 0x10001D278, symSize: 0x28 }
  - { offsetInCU: 0x3B04F, offset: 0x6E5E0, size: 0x8, addend: 0x0, symName: __ZNKSt3__16vectorI5PointNS_9allocatorIS1_EEE8capacityB7v160006Ev, symObjAddr: 0xAC04, symBinAddr: 0x10001D2A0, symSize: 0x40 }
  - { offsetInCU: 0x3B073, offset: 0x6E604, size: 0x8, addend: 0x0, symName: __ZNKSt3__16vectorI5PointNS_9allocatorIS1_EEE31__annotate_contiguous_containerB7v160006EPKvS6_S6_S6_, symObjAddr: 0xAC44, symBinAddr: 0x10001D2E0, symSize: 0x20 }
  - { offsetInCU: 0x3B0C3, offset: 0x6E654, size: 0x8, addend: 0x0, symName: __ZNKSt3__16vectorI5PointNS_9allocatorIS1_EEE4dataB7v160006Ev, symObjAddr: 0xAC64, symBinAddr: 0x10001D300, symSize: 0x28 }
  - { offsetInCU: 0x3B0E7, offset: 0x6E678, size: 0x8, addend: 0x0, symName: __ZNKSt3__16vectorI5PointNS_9allocatorIS1_EEE4sizeB7v160006Ev, symObjAddr: 0xAC8C, symBinAddr: 0x10001D328, symSize: 0x28 }
  - { offsetInCU: 0x3B10B, offset: 0x6E69C, size: 0x8, addend: 0x0, symName: __ZNSt3__16vectorI5PointNS_9allocatorIS1_EEE22__base_destruct_at_endB7v160006EPS1_, symObjAddr: 0xACC8, symBinAddr: 0x10001D364, symSize: 0x8C }
  - { offsetInCU: 0x3B14E, offset: 0x6E6DF, size: 0x8, addend: 0x0, symName: __ZNSt3__116allocator_traitsINS_9allocatorI5PointEEE7destroyB7v160006IS2_vEEvRS3_PT_, symObjAddr: 0xAD54, symBinAddr: 0x10001D3F0, symSize: 0x2C }
  - { offsetInCU: 0x3B18A, offset: 0x6E71B, size: 0x8, addend: 0x0, symName: __ZNSt3__19allocatorI5PointE7destroyB7v160006EPS1_, symObjAddr: 0xAD80, symBinAddr: 0x10001D41C, symSize: 0x28 }
  - { offsetInCU: 0x3B1BC, offset: 0x6E74D, size: 0x8, addend: 0x0, symName: __ZNSt3__19allocatorI5PointE10deallocateB7v160006EPS1_m, symObjAddr: 0xADA8, symBinAddr: 0x10001D444, symSize: 0x44 }
  - { offsetInCU: 0x3B1FC, offset: 0x6E78D, size: 0x8, addend: 0x0, symName: __ZNSt3__117__compressed_pairIP5PointNS_9allocatorIS1_EEE6secondB7v160006Ev, symObjAddr: 0xADEC, symBinAddr: 0x10001D488, symSize: 0x24 }
  - { offsetInCU: 0x3B220, offset: 0x6E7B1, size: 0x8, addend: 0x0, symName: __ZNSt3__122__compressed_pair_elemINS_9allocatorI5PointEELi1ELb1EE5__getB7v160006Ev, symObjAddr: 0xAE10, symBinAddr: 0x10001D4AC, symSize: 0x14 }
  - { offsetInCU: 0x3B244, offset: 0x6E7D5, size: 0x8, addend: 0x0, symName: __ZNKSt3__16vectorI5PointNS_9allocatorIS1_EEE9__end_capB7v160006Ev, symObjAddr: 0xAE24, symBinAddr: 0x10001D4C0, symSize: 0x28 }
  - { offsetInCU: 0x3B268, offset: 0x6E7F9, size: 0x8, addend: 0x0, symName: __ZNKSt3__117__compressed_pairIP5PointNS_9allocatorIS1_EEE5firstB7v160006Ev, symObjAddr: 0xAE4C, symBinAddr: 0x10001D4E8, symSize: 0x24 }
  - { offsetInCU: 0x3B28C, offset: 0x6E81D, size: 0x8, addend: 0x0, symName: __ZNKSt3__122__compressed_pair_elemIP5PointLi0ELb0EE5__getB7v160006Ev, symObjAddr: 0xAE70, symBinAddr: 0x10001D50C, symSize: 0x14 }
  - { offsetInCU: 0x3B2B0, offset: 0x6E841, size: 0x8, addend: 0x0, symName: __ZN7DatasetC2ERKS_, symObjAddr: 0xAE84, symBinAddr: 0x10001D520, symSize: 0x7C }
  - { offsetInCU: 0x3B2E3, offset: 0x6E874, size: 0x8, addend: 0x0, symName: __ZNSt3__16vectorI5PointNS_9allocatorIS1_EEEC1ERKS4_, symObjAddr: 0xAF00, symBinAddr: 0x10001D59C, symSize: 0x34 }
  - { offsetInCU: 0x3B31D, offset: 0x6E8AE, size: 0x8, addend: 0x0, symName: __ZNSt3__16vectorINS_12basic_stringIcNS_11char_traitsIcEENS_9allocatorIcEEEENS4_IS6_EEEC1ERKS8_, symObjAddr: 0xAF34, symBinAddr: 0x10001D5D0, symSize: 0x34 }
  - { offsetInCU: 0x3B357, offset: 0x6E8E8, size: 0x8, addend: 0x0, symName: __ZNSt3__16vectorI5PointNS_9allocatorIS1_EEEC2ERKS4_, symObjAddr: 0xAF68, symBinAddr: 0x10001D604, symSize: 0x110 }
  - { offsetInCU: 0x3B3C2, offset: 0x6E953, size: 0x8, addend: 0x0, symName: __ZNSt3__116allocator_traitsINS_9allocatorI5PointEEE37select_on_container_copy_constructionB7v160006IS3_vvEES3_RKS3_, symObjAddr: 0xB078, symBinAddr: 0x10001D714, symSize: 0x10 }
  - { offsetInCU: 0x3B3F0, offset: 0x6E981, size: 0x8, addend: 0x0, symName: __ZNKSt3__16vectorI5PointNS_9allocatorIS1_EEE7__allocB7v160006Ev, symObjAddr: 0xB088, symBinAddr: 0x10001D724, symSize: 0x28 }
  - { offsetInCU: 0x3B419, offset: 0x6E9AA, size: 0x8, addend: 0x0, symName: __ZNSt3__117__compressed_pairIP5PointNS_9allocatorIS1_EEEC1B7v160006IDnS4_EEOT_OT0_, symObjAddr: 0xB0B0, symBinAddr: 0x10001D74C, symSize: 0x3C }
  - { offsetInCU: 0x3B46F, offset: 0x6EA00, size: 0x8, addend: 0x0, symName: __ZNSt3__16vectorI5PointNS_9allocatorIS1_EEE11__vallocateB7v160006Em, symObjAddr: 0xB12C, symBinAddr: 0x10001D7C8, symSize: 0xB4 }
  - { offsetInCU: 0x3B4B2, offset: 0x6EA43, size: 0x8, addend: 0x0, symName: __ZNSt3__16vectorI5PointNS_9allocatorIS1_EEE18__construct_at_endIPS1_Li0EEEvT_S7_m, symObjAddr: 0xB1E0, symBinAddr: 0x10001D87C, symSize: 0x8C }
  - { offsetInCU: 0x3B525, offset: 0x6EAB6, size: 0x8, addend: 0x0, symName: __ZNSt3__128__exception_guard_exceptionsINS_6vectorI5PointNS_9allocatorIS2_EEE16__destroy_vectorEE10__completeB7v160006Ev, symObjAddr: 0xB26C, symBinAddr: 0x10001D908, symSize: 0x1C }
  - { offsetInCU: 0x3B549, offset: 0x6EADA, size: 0x8, addend: 0x0, symName: __ZNSt3__128__exception_guard_exceptionsINS_6vectorI5PointNS_9allocatorIS2_EEE16__destroy_vectorEED1B7v160006Ev, symObjAddr: 0xB288, symBinAddr: 0x10001D924, symSize: 0x2C }
  - { offsetInCU: 0x3B571, offset: 0x6EB02, size: 0x8, addend: 0x0, symName: __ZNKSt3__117__compressed_pairIP5PointNS_9allocatorIS1_EEE6secondB7v160006Ev, symObjAddr: 0xB2B4, symBinAddr: 0x10001D950, symSize: 0x24 }
  - { offsetInCU: 0x3B595, offset: 0x6EB26, size: 0x8, addend: 0x0, symName: __ZNKSt3__122__compressed_pair_elemINS_9allocatorI5PointEELi1ELb1EE5__getB7v160006Ev, symObjAddr: 0xB2D8, symBinAddr: 0x10001D974, symSize: 0x14 }
  - { offsetInCU: 0x3B5B9, offset: 0x6EB4A, size: 0x8, addend: 0x0, symName: __ZNSt3__117__compressed_pairIP5PointNS_9allocatorIS1_EEEC2B7v160006IDnS4_EEOT_OT0_, symObjAddr: 0xB2EC, symBinAddr: 0x10001D988, symSize: 0x44 }
  - { offsetInCU: 0x3B60F, offset: 0x6EBA0, size: 0x8, addend: 0x0, symName: __ZNSt3__122__compressed_pair_elemINS_9allocatorI5PointEELi1ELb1EEC2B7v160006IS3_vEEOT_, symObjAddr: 0xB330, symBinAddr: 0x10001D9CC, symSize: 0x18 }
  - { offsetInCU: 0x3B64F, offset: 0x6EBE0, size: 0x8, addend: 0x0, symName: __ZNSt3__128__exception_guard_exceptionsINS_6vectorI5PointNS_9allocatorIS2_EEE16__destroy_vectorEEC1B7v160006ES6_, symObjAddr: 0xB348, symBinAddr: 0x10001D9E4, symSize: 0x34 }
  - { offsetInCU: 0x3B685, offset: 0x6EC16, size: 0x8, addend: 0x0, symName: __ZNSt3__128__exception_guard_exceptionsINS_6vectorI5PointNS_9allocatorIS2_EEE16__destroy_vectorEEC2B7v160006ES6_, symObjAddr: 0xB37C, symBinAddr: 0x10001DA18, symSize: 0x24 }
  - { offsetInCU: 0x3B6BB, offset: 0x6EC4C, size: 0x8, addend: 0x0, symName: __ZNKSt3__16vectorI5PointNS_9allocatorIS1_EEE8max_sizeEv, symObjAddr: 0xB3A0, symBinAddr: 0x10001DA3C, symSize: 0x60 }
  - { offsetInCU: 0x3B6E1, offset: 0x6EC72, size: 0x8, addend: 0x0, symName: __ZNKSt3__16vectorI5PointNS_9allocatorIS1_EEE20__throw_length_errorB7v160006Ev, symObjAddr: 0xB400, symBinAddr: 0x10001DA9C, symSize: 0x1C }
  - { offsetInCU: 0x3B705, offset: 0x6EC96, size: 0x8, addend: 0x0, symName: __ZNSt3__16vectorI5PointNS_9allocatorIS1_EEE9__end_capB7v160006Ev, symObjAddr: 0xB45C, symBinAddr: 0x10001DAF8, symSize: 0x28 }
  - { offsetInCU: 0x3B729, offset: 0x6ECBA, size: 0x8, addend: 0x0, symName: __ZNKSt3__16vectorI5PointNS_9allocatorIS1_EEE14__annotate_newB7v160006Em, symObjAddr: 0xB484, symBinAddr: 0x10001DB20, symSize: 0xC8 }
  - { offsetInCU: 0x3B75C, offset: 0x6ECED, size: 0x8, addend: 0x0, symName: __ZNSt3__116allocator_traitsINS_9allocatorI5PointEEE8max_sizeB7v160006IS3_vEEmRKS3_, symObjAddr: 0xB54C, symBinAddr: 0x10001DBE8, symSize: 0x24 }
  - { offsetInCU: 0x3B789, offset: 0x6ED1A, size: 0x8, addend: 0x0, symName: __ZNKSt3__19allocatorI5PointE8max_sizeB7v160006Ev, symObjAddr: 0xB570, symBinAddr: 0x10001DC0C, symSize: 0x18 }
  - { offsetInCU: 0x3B7AD, offset: 0x6ED3E, size: 0x8, addend: 0x0, symName: __ZNSt3__19allocatorI5PointE8allocateB7v160006Em, symObjAddr: 0xB588, symBinAddr: 0x10001DC24, symSize: 0x5C }
  - { offsetInCU: 0x3B7DF, offset: 0x6ED70, size: 0x8, addend: 0x0, symName: __ZNSt3__117__compressed_pairIP5PointNS_9allocatorIS1_EEE5firstB7v160006Ev, symObjAddr: 0xB5E4, symBinAddr: 0x10001DC80, symSize: 0x24 }
  - { offsetInCU: 0x3B803, offset: 0x6ED94, size: 0x8, addend: 0x0, symName: __ZNSt3__122__compressed_pair_elemIP5PointLi0ELb0EE5__getB7v160006Ev, symObjAddr: 0xB608, symBinAddr: 0x10001DCA4, symSize: 0x14 }
  - { offsetInCU: 0x3B840, offset: 0x6EDD1, size: 0x8, addend: 0x0, symName: __ZNSt3__16vectorI5PointNS_9allocatorIS1_EEE21_ConstructTransactionC1B7v160006ERS4_m, symObjAddr: 0xB61C, symBinAddr: 0x10001DCB8, symSize: 0x3C }
  - { offsetInCU: 0x3B886, offset: 0x6EE17, size: 0x8, addend: 0x0, symName: __ZNSt3__16vectorI5PointNS_9allocatorIS1_EEE21_ConstructTransactionD1B7v160006Ev, symObjAddr: 0xB74C, symBinAddr: 0x10001DDE8, symSize: 0x2C }
  - { offsetInCU: 0x3B8AE, offset: 0x6EE3F, size: 0x8, addend: 0x0, symName: __ZNSt3__16vectorI5PointNS_9allocatorIS1_EEE21_ConstructTransactionC2B7v160006ERS4_m, symObjAddr: 0xB778, symBinAddr: 0x10001DE14, symSize: 0x4C }
  - { offsetInCU: 0x3B8F4, offset: 0x6EE85, size: 0x8, addend: 0x0, symName: __ZNSt3__129_AllocatorDestroyRangeReverseINS_9allocatorI5PointEEPS2_EC1B7v160006ERS3_RS4_S7_, symObjAddr: 0xB810, symBinAddr: 0x10001DEAC, symSize: 0x44 }
  - { offsetInCU: 0x3B949, offset: 0x6EEDA, size: 0x8, addend: 0x0, symName: __ZNSt3__116allocator_traitsINS_9allocatorI5PointEEE9constructB7v160006IS2_JRS2_EvEEvRS3_PT_DpOT0_, symObjAddr: 0xB854, symBinAddr: 0x10001DEF0, symSize: 0x34 }
  - { offsetInCU: 0x3B99F, offset: 0x6EF30, size: 0x8, addend: 0x0, symName: __ZNSt3__128__exception_guard_exceptionsINS_29_AllocatorDestroyRangeReverseINS_9allocatorI5PointEEPS3_EEE10__completeB7v160006Ev, symObjAddr: 0xB888, symBinAddr: 0x10001DF24, symSize: 0x1C }
  - { offsetInCU: 0x3B9C3, offset: 0x6EF54, size: 0x8, addend: 0x0, symName: __ZNSt3__128__exception_guard_exceptionsINS_29_AllocatorDestroyRangeReverseINS_9allocatorI5PointEEPS3_EEED1B7v160006Ev, symObjAddr: 0xB8A4, symBinAddr: 0x10001DF40, symSize: 0x2C }
  - { offsetInCU: 0x3B9EB, offset: 0x6EF7C, size: 0x8, addend: 0x0, symName: __ZNSt3__128__exception_guard_exceptionsINS_29_AllocatorDestroyRangeReverseINS_9allocatorI5PointEEPS3_EEEC1B7v160006ES6_, symObjAddr: 0xB8D0, symBinAddr: 0x10001DF6C, symSize: 0x34 }
  - { offsetInCU: 0x3BA22, offset: 0x6EFB3, size: 0x8, addend: 0x0, symName: __ZNSt3__128__exception_guard_exceptionsINS_29_AllocatorDestroyRangeReverseINS_9allocatorI5PointEEPS3_EEEC2B7v160006ES6_, symObjAddr: 0xB904, symBinAddr: 0x10001DFA0, symSize: 0x30 }
  - { offsetInCU: 0x3BA59, offset: 0x6EFEA, size: 0x8, addend: 0x0, symName: __ZNSt3__129_AllocatorDestroyRangeReverseINS_9allocatorI5PointEEPS2_EC2B7v160006ERS3_RS4_S7_, symObjAddr: 0xB934, symBinAddr: 0x10001DFD0, symSize: 0x38 }
  - { offsetInCU: 0x3BAAE, offset: 0x6F03F, size: 0x8, addend: 0x0, symName: __ZNSt3__19allocatorI5PointE9constructB7v160006IS1_JRS1_EEEvPT_DpOT0_, symObjAddr: 0xB96C, symBinAddr: 0x10001E008, symSize: 0x30 }
  - { offsetInCU: 0x3BB02, offset: 0x6F093, size: 0x8, addend: 0x0, symName: __ZN5PointC1ERKS_, symObjAddr: 0xB99C, symBinAddr: 0x10001E038, symSize: 0x34 }
  - { offsetInCU: 0x3BB35, offset: 0x6F0C6, size: 0x8, addend: 0x0, symName: __ZN5PointC2ERKS_, symObjAddr: 0xB9D0, symBinAddr: 0x10001E06C, symSize: 0x70 }
  - { offsetInCU: 0x3BB68, offset: 0x6F0F9, size: 0x8, addend: 0x0, symName: __ZNSt3__128__exception_guard_exceptionsINS_29_AllocatorDestroyRangeReverseINS_9allocatorI5PointEEPS3_EEED2B7v160006Ev, symObjAddr: 0xBA40, symBinAddr: 0x10001E0DC, symSize: 0x50 }
  - { offsetInCU: 0x3BB90, offset: 0x6F121, size: 0x8, addend: 0x0, symName: __ZNKSt3__129_AllocatorDestroyRangeReverseINS_9allocatorI5PointEEPS2_EclB7v160006Ev, symObjAddr: 0xBA90, symBinAddr: 0x10001E12C, symSize: 0x68 }
  - { offsetInCU: 0x3BBB4, offset: 0x6F145, size: 0x8, addend: 0x0, symName: __ZNSt3__116reverse_iteratorIP5PointEC1B7v160006ES2_, symObjAddr: 0xBB68, symBinAddr: 0x10001E204, symSize: 0x34 }
  - { offsetInCU: 0x3BBEA, offset: 0x6F17B, size: 0x8, addend: 0x0, symName: __ZNSt3__116reverse_iteratorIP5PointEppB7v160006Ev, symObjAddr: 0xBC08, symBinAddr: 0x10001E2A4, symSize: 0x20 }
  - { offsetInCU: 0x3BC0E, offset: 0x6F19F, size: 0x8, addend: 0x0, symName: __ZNKSt3__116reverse_iteratorIP5PointE4baseB7v160006Ev, symObjAddr: 0xBC28, symBinAddr: 0x10001E2C4, symSize: 0x18 }
  - { offsetInCU: 0x3BC37, offset: 0x6F1C8, size: 0x8, addend: 0x0, symName: __ZNSt3__119__to_address_helperINS_16reverse_iteratorIP5PointEEvE6__callB7v160006ERKS4_, symObjAddr: 0xBC40, symBinAddr: 0x10001E2DC, symSize: 0x38 }
  - { offsetInCU: 0x3BC59, offset: 0x6F1EA, size: 0x8, addend: 0x0, symName: __ZNKSt3__116reverse_iteratorIP5PointEptB7v160006Ev, symObjAddr: 0xBC78, symBinAddr: 0x10001E314, symSize: 0x24 }
  - { offsetInCU: 0x3BC7D, offset: 0x6F20E, size: 0x8, addend: 0x0, symName: __ZNKSt3__116reverse_iteratorIP5PointEdeB7v160006Ev, symObjAddr: 0xBC9C, symBinAddr: 0x10001E338, symSize: 0x28 }
  - { offsetInCU: 0x3BCAF, offset: 0x6F240, size: 0x8, addend: 0x0, symName: __ZNSt3__116reverse_iteratorIP5PointEC2B7v160006ES2_, symObjAddr: 0xBCC4, symBinAddr: 0x10001E360, symSize: 0x28 }
  - { offsetInCU: 0x3BCE5, offset: 0x6F276, size: 0x8, addend: 0x0, symName: __ZNSt3__16vectorI5PointNS_9allocatorIS1_EEE21_ConstructTransactionD2B7v160006Ev, symObjAddr: 0xBCEC, symBinAddr: 0x10001E388, symSize: 0x20 }
  - { offsetInCU: 0x3BD0D, offset: 0x6F29E, size: 0x8, addend: 0x0, symName: __ZNSt3__128__exception_guard_exceptionsINS_6vectorI5PointNS_9allocatorIS2_EEE16__destroy_vectorEED2B7v160006Ev, symObjAddr: 0xBD0C, symBinAddr: 0x10001E3A8, symSize: 0x50 }
  - { offsetInCU: 0x3BD35, offset: 0x6F2C6, size: 0x8, addend: 0x0, symName: __ZNSt3__16vectorINS_12basic_stringIcNS_11char_traitsIcEENS_9allocatorIcEEEENS4_IS6_EEEC2ERKS8_, symObjAddr: 0xBD5C, symBinAddr: 0x10001E3F8, symSize: 0x114 }
  - { offsetInCU: 0x3BDA0, offset: 0x6F331, size: 0x8, addend: 0x0, symName: __ZNSt3__116allocator_traitsINS_9allocatorINS_12basic_stringIcNS_11char_traitsIcEENS1_IcEEEEEEE37select_on_container_copy_constructionB7v160006IS7_vvEES7_RKS7_, symObjAddr: 0xBE70, symBinAddr: 0x10001E50C, symSize: 0x10 }
  - { offsetInCU: 0x3BDCE, offset: 0x6F35F, size: 0x8, addend: 0x0, symName: __ZNKSt3__16vectorINS_12basic_stringIcNS_11char_traitsIcEENS_9allocatorIcEEEENS4_IS6_EEE7__allocB7v160006Ev, symObjAddr: 0xBE80, symBinAddr: 0x10001E51C, symSize: 0x28 }
  - { offsetInCU: 0x3BDF7, offset: 0x6F388, size: 0x8, addend: 0x0, symName: __ZNSt3__117__compressed_pairIPNS_12basic_stringIcNS_11char_traitsIcEENS_9allocatorIcEEEENS4_IS6_EEEC1B7v160006IDnS8_EEOT_OT0_, symObjAddr: 0xBEA8, symBinAddr: 0x10001E544, symSize: 0x3C }
  - { offsetInCU: 0x3BE4D, offset: 0x6F3DE, size: 0x8, addend: 0x0, symName: __ZNSt3__16vectorINS_12basic_stringIcNS_11char_traitsIcEENS_9allocatorIcEEEENS4_IS6_EEE16__destroy_vectorC1ERS8_, symObjAddr: 0xBF24, symBinAddr: 0x10001E5C0, symSize: 0x34 }
  - { offsetInCU: 0x3BE84, offset: 0x6F415, size: 0x8, addend: 0x0, symName: __ZNSt3__16vectorINS_12basic_stringIcNS_11char_traitsIcEENS_9allocatorIcEEEENS4_IS6_EEE11__vallocateB7v160006Em, symObjAddr: 0xBF68, symBinAddr: 0x10001E604, symSize: 0xB4 }
  - { offsetInCU: 0x3BEC7, offset: 0x6F458, size: 0x8, addend: 0x0, symName: __ZNSt3__16vectorINS_12basic_stringIcNS_11char_traitsIcEENS_9allocatorIcEEEENS4_IS6_EEE18__construct_at_endIPS6_Li0EEEvT_SB_m, symObjAddr: 0xC01C, symBinAddr: 0x10001E6B8, symSize: 0x8C }
  - { offsetInCU: 0x3BF3A, offset: 0x6F4CB, size: 0x8, addend: 0x0, symName: __ZNSt3__128__exception_guard_exceptionsINS_6vectorINS_12basic_stringIcNS_11char_traitsIcEENS_9allocatorIcEEEENS5_IS7_EEE16__destroy_vectorEE10__completeB7v160006Ev, symObjAddr: 0xC0A8, symBinAddr: 0x10001E744, symSize: 0x1C }
  - { offsetInCU: 0x3BF5E, offset: 0x6F4EF, size: 0x8, addend: 0x0, symName: __ZNSt3__128__exception_guard_exceptionsINS_6vectorINS_12basic_stringIcNS_11char_traitsIcEENS_9allocatorIcEEEENS5_IS7_EEE16__destroy_vectorEED1B7v160006Ev, symObjAddr: 0xC0C4, symBinAddr: 0x10001E760, symSize: 0x2C }
  - { offsetInCU: 0x3BF86, offset: 0x6F517, size: 0x8, addend: 0x0, symName: __ZNKSt3__117__compressed_pairIPNS_12basic_stringIcNS_11char_traitsIcEENS_9allocatorIcEEEENS4_IS6_EEE6secondB7v160006Ev, symObjAddr: 0xC0F0, symBinAddr: 0x10001E78C, symSize: 0x24 }
  - { offsetInCU: 0x3BFAA, offset: 0x6F53B, size: 0x8, addend: 0x0, symName: __ZNKSt3__122__compressed_pair_elemINS_9allocatorINS_12basic_stringIcNS_11char_traitsIcEENS1_IcEEEEEELi1ELb1EE5__getB7v160006Ev, symObjAddr: 0xC114, symBinAddr: 0x10001E7B0, symSize: 0x14 }
  - { offsetInCU: 0x3BFCE, offset: 0x6F55F, size: 0x8, addend: 0x0, symName: __ZNSt3__117__compressed_pairIPNS_12basic_stringIcNS_11char_traitsIcEENS_9allocatorIcEEEENS4_IS6_EEEC2B7v160006IDnS8_EEOT_OT0_, symObjAddr: 0xC128, symBinAddr: 0x10001E7C4, symSize: 0x44 }
  - { offsetInCU: 0x3C024, offset: 0x6F5B5, size: 0x8, addend: 0x0, symName: __ZNSt3__122__compressed_pair_elemIPNS_12basic_stringIcNS_11char_traitsIcEENS_9allocatorIcEEEELi0ELb0EEC2B7v160006IDnvEEOT_, symObjAddr: 0xC16C, symBinAddr: 0x10001E808, symSize: 0x1C }
  - { offsetInCU: 0x3C064, offset: 0x6F5F5, size: 0x8, addend: 0x0, symName: __ZNSt3__122__compressed_pair_elemINS_9allocatorINS_12basic_stringIcNS_11char_traitsIcEENS1_IcEEEEEELi1ELb1EEC2B7v160006IS7_vEEOT_, symObjAddr: 0xC188, symBinAddr: 0x10001E824, symSize: 0x18 }
  - { offsetInCU: 0x3C0A4, offset: 0x6F635, size: 0x8, addend: 0x0, symName: __ZNSt3__128__exception_guard_exceptionsINS_6vectorINS_12basic_stringIcNS_11char_traitsIcEENS_9allocatorIcEEEENS5_IS7_EEE16__destroy_vectorEEC1B7v160006ESA_, symObjAddr: 0xC1A0, symBinAddr: 0x10001E83C, symSize: 0x34 }
  - { offsetInCU: 0x3C0DA, offset: 0x6F66B, size: 0x8, addend: 0x0, symName: __ZNSt3__128__exception_guard_exceptionsINS_6vectorINS_12basic_stringIcNS_11char_traitsIcEENS_9allocatorIcEEEENS5_IS7_EEE16__destroy_vectorEEC2B7v160006ESA_, symObjAddr: 0xC1D4, symBinAddr: 0x10001E870, symSize: 0x24 }
  - { offsetInCU: 0x3C110, offset: 0x6F6A1, size: 0x8, addend: 0x0, symName: __ZNSt3__16vectorINS_12basic_stringIcNS_11char_traitsIcEENS_9allocatorIcEEEENS4_IS6_EEE16__destroy_vectorC2ERS8_, symObjAddr: 0xC1F8, symBinAddr: 0x10001E894, symSize: 0x20 }
  - { offsetInCU: 0x3C147, offset: 0x6F6D8, size: 0x8, addend: 0x0, symName: __ZNKSt3__16vectorINS_12basic_stringIcNS_11char_traitsIcEENS_9allocatorIcEEEENS4_IS6_EEE8max_sizeEv, symObjAddr: 0xC218, symBinAddr: 0x10001E8B4, symSize: 0x60 }
  - { offsetInCU: 0x3C16D, offset: 0x6F6FE, size: 0x8, addend: 0x0, symName: __ZNKSt3__16vectorINS_12basic_stringIcNS_11char_traitsIcEENS_9allocatorIcEEEENS4_IS6_EEE20__throw_length_errorB7v160006Ev, symObjAddr: 0xC278, symBinAddr: 0x10001E914, symSize: 0x1C }
  - { offsetInCU: 0x3C191, offset: 0x6F722, size: 0x8, addend: 0x0, symName: __ZNSt3__16vectorINS_12basic_stringIcNS_11char_traitsIcEENS_9allocatorIcEEEENS4_IS6_EEE7__allocB7v160006Ev, symObjAddr: 0xC2D4, symBinAddr: 0x10001E970, symSize: 0x28 }
  - { offsetInCU: 0x3C1B5, offset: 0x6F746, size: 0x8, addend: 0x0, symName: __ZNSt3__16vectorINS_12basic_stringIcNS_11char_traitsIcEENS_9allocatorIcEEEENS4_IS6_EEE9__end_capB7v160006Ev, symObjAddr: 0xC2FC, symBinAddr: 0x10001E998, symSize: 0x28 }
  - { offsetInCU: 0x3C1D9, offset: 0x6F76A, size: 0x8, addend: 0x0, symName: __ZNKSt3__16vectorINS_12basic_stringIcNS_11char_traitsIcEENS_9allocatorIcEEEENS4_IS6_EEE14__annotate_newB7v160006Em, symObjAddr: 0xC324, symBinAddr: 0x10001E9C0, symSize: 0xC8 }
  - { offsetInCU: 0x3C20C, offset: 0x6F79D, size: 0x8, addend: 0x0, symName: __ZNSt3__116allocator_traitsINS_9allocatorINS_12basic_stringIcNS_11char_traitsIcEENS1_IcEEEEEEE8max_sizeB7v160006IS7_vEEmRKS7_, symObjAddr: 0xC3EC, symBinAddr: 0x10001EA88, symSize: 0x24 }
  - { offsetInCU: 0x3C239, offset: 0x6F7CA, size: 0x8, addend: 0x0, symName: __ZNKSt3__19allocatorINS_12basic_stringIcNS_11char_traitsIcEENS0_IcEEEEE8max_sizeB7v160006Ev, symObjAddr: 0xC410, symBinAddr: 0x10001EAAC, symSize: 0x18 }
  - { offsetInCU: 0x3C25D, offset: 0x6F7EE, size: 0x8, addend: 0x0, symName: __ZNSt3__19allocatorINS_12basic_stringIcNS_11char_traitsIcEENS0_IcEEEEE8allocateB7v160006Em, symObjAddr: 0xC428, symBinAddr: 0x10001EAC4, symSize: 0x5C }
  - { offsetInCU: 0x3C28F, offset: 0x6F820, size: 0x8, addend: 0x0, symName: __ZNSt3__117__compressed_pairIPNS_12basic_stringIcNS_11char_traitsIcEENS_9allocatorIcEEEENS4_IS6_EEE6secondB7v160006Ev, symObjAddr: 0xC484, symBinAddr: 0x10001EB20, symSize: 0x24 }
  - { offsetInCU: 0x3C2B3, offset: 0x6F844, size: 0x8, addend: 0x0, symName: __ZNSt3__122__compressed_pair_elemINS_9allocatorINS_12basic_stringIcNS_11char_traitsIcEENS1_IcEEEEEELi1ELb1EE5__getB7v160006Ev, symObjAddr: 0xC4A8, symBinAddr: 0x10001EB44, symSize: 0x14 }
  - { offsetInCU: 0x3C2D7, offset: 0x6F868, size: 0x8, addend: 0x0, symName: __ZNSt3__117__compressed_pairIPNS_12basic_stringIcNS_11char_traitsIcEENS_9allocatorIcEEEENS4_IS6_EEE5firstB7v160006Ev, symObjAddr: 0xC4BC, symBinAddr: 0x10001EB58, symSize: 0x24 }
  - { offsetInCU: 0x3C2FB, offset: 0x6F88C, size: 0x8, addend: 0x0, symName: __ZNSt3__122__compressed_pair_elemIPNS_12basic_stringIcNS_11char_traitsIcEENS_9allocatorIcEEEELi0ELb0EE5__getB7v160006Ev, symObjAddr: 0xC4E0, symBinAddr: 0x10001EB7C, symSize: 0x14 }
  - { offsetInCU: 0x3C31F, offset: 0x6F8B0, size: 0x8, addend: 0x0, symName: __ZNKSt3__16vectorINS_12basic_stringIcNS_11char_traitsIcEENS_9allocatorIcEEEENS4_IS6_EEE31__annotate_contiguous_containerB7v160006EPKvSA_SA_SA_, symObjAddr: 0xC4F4, symBinAddr: 0x10001EB90, symSize: 0x20 }
  - { offsetInCU: 0x3C36F, offset: 0x6F900, size: 0x8, addend: 0x0, symName: __ZNKSt3__16vectorINS_12basic_stringIcNS_11char_traitsIcEENS_9allocatorIcEEEENS4_IS6_EEE4dataB7v160006Ev, symObjAddr: 0xC514, symBinAddr: 0x10001EBB0, symSize: 0x28 }
  - { offsetInCU: 0x3C393, offset: 0x6F924, size: 0x8, addend: 0x0, symName: __ZNKSt3__16vectorINS_12basic_stringIcNS_11char_traitsIcEENS_9allocatorIcEEEENS4_IS6_EEE8capacityB7v160006Ev, symObjAddr: 0xC53C, symBinAddr: 0x10001EBD8, symSize: 0x40 }
  - { offsetInCU: 0x3C3B7, offset: 0x6F948, size: 0x8, addend: 0x0, symName: __ZNKSt3__16vectorINS_12basic_stringIcNS_11char_traitsIcEENS_9allocatorIcEEEENS4_IS6_EEE9__end_capB7v160006Ev, symObjAddr: 0xC590, symBinAddr: 0x10001EC2C, symSize: 0x28 }
  - { offsetInCU: 0x3C3DB, offset: 0x6F96C, size: 0x8, addend: 0x0, symName: __ZNKSt3__117__compressed_pairIPNS_12basic_stringIcNS_11char_traitsIcEENS_9allocatorIcEEEENS4_IS6_EEE5firstB7v160006Ev, symObjAddr: 0xC5B8, symBinAddr: 0x10001EC54, symSize: 0x24 }
  - { offsetInCU: 0x3C3FF, offset: 0x6F990, size: 0x8, addend: 0x0, symName: __ZNKSt3__122__compressed_pair_elemIPNS_12basic_stringIcNS_11char_traitsIcEENS_9allocatorIcEEEELi0ELb0EE5__getB7v160006Ev, symObjAddr: 0xC5DC, symBinAddr: 0x10001EC78, symSize: 0x14 }
  - { offsetInCU: 0x3C43C, offset: 0x6F9CD, size: 0x8, addend: 0x0, symName: __ZNSt3__16vectorINS_12basic_stringIcNS_11char_traitsIcEENS_9allocatorIcEEEENS4_IS6_EEE21_ConstructTransactionC1B7v160006ERS8_m, symObjAddr: 0xC5F0, symBinAddr: 0x10001EC8C, symSize: 0x3C }
  - { offsetInCU: 0x3C482, offset: 0x6FA13, size: 0x8, addend: 0x0, symName: __ZNSt3__16vectorINS_12basic_stringIcNS_11char_traitsIcEENS_9allocatorIcEEEENS4_IS6_EEE21_ConstructTransactionD1B7v160006Ev, symObjAddr: 0xC720, symBinAddr: 0x10001EDBC, symSize: 0x2C }
  - { offsetInCU: 0x3C4AA, offset: 0x6FA3B, size: 0x8, addend: 0x0, symName: __ZNSt3__16vectorINS_12basic_stringIcNS_11char_traitsIcEENS_9allocatorIcEEEENS4_IS6_EEE21_ConstructTransactionC2B7v160006ERS8_m, symObjAddr: 0xC74C, symBinAddr: 0x10001EDE8, symSize: 0x4C }
  - { offsetInCU: 0x3C4F0, offset: 0x6FA81, size: 0x8, addend: 0x0, symName: __ZNSt3__129_AllocatorDestroyRangeReverseINS_9allocatorINS_12basic_stringIcNS_11char_traitsIcEENS1_IcEEEEEEPS6_EC1B7v160006ERS7_RS8_SB_, symObjAddr: 0xC7E4, symBinAddr: 0x10001EE80, symSize: 0x44 }
  - { offsetInCU: 0x3C545, offset: 0x6FAD6, size: 0x8, addend: 0x0, symName: __ZNSt3__116allocator_traitsINS_9allocatorINS_12basic_stringIcNS_11char_traitsIcEENS1_IcEEEEEEE9constructB7v160006IS6_JRS6_EvEEvRS7_PT_DpOT0_, symObjAddr: 0xC828, symBinAddr: 0x10001EEC4, symSize: 0x34 }
  - { offsetInCU: 0x3C59B, offset: 0x6FB2C, size: 0x8, addend: 0x0, symName: __ZNSt3__128__exception_guard_exceptionsINS_29_AllocatorDestroyRangeReverseINS_9allocatorINS_12basic_stringIcNS_11char_traitsIcEENS2_IcEEEEEEPS7_EEE10__completeB7v160006Ev, symObjAddr: 0xC85C, symBinAddr: 0x10001EEF8, symSize: 0x1C }
  - { offsetInCU: 0x3C5BF, offset: 0x6FB50, size: 0x8, addend: 0x0, symName: __ZNSt3__128__exception_guard_exceptionsINS_29_AllocatorDestroyRangeReverseINS_9allocatorINS_12basic_stringIcNS_11char_traitsIcEENS2_IcEEEEEEPS7_EEED1B7v160006Ev, symObjAddr: 0xC878, symBinAddr: 0x10001EF14, symSize: 0x2C }
  - { offsetInCU: 0x3C5E7, offset: 0x6FB78, size: 0x8, addend: 0x0, symName: __ZNSt3__128__exception_guard_exceptionsINS_29_AllocatorDestroyRangeReverseINS_9allocatorINS_12basic_stringIcNS_11char_traitsIcEENS2_IcEEEEEEPS7_EEEC1B7v160006ESA_, symObjAddr: 0xC8A4, symBinAddr: 0x10001EF40, symSize: 0x34 }
  - { offsetInCU: 0x3C61E, offset: 0x6FBAF, size: 0x8, addend: 0x0, symName: __ZNSt3__128__exception_guard_exceptionsINS_29_AllocatorDestroyRangeReverseINS_9allocatorINS_12basic_stringIcNS_11char_traitsIcEENS2_IcEEEEEEPS7_EEEC2B7v160006ESA_, symObjAddr: 0xC8D8, symBinAddr: 0x10001EF74, symSize: 0x30 }
  - { offsetInCU: 0x3C655, offset: 0x6FBE6, size: 0x8, addend: 0x0, symName: __ZNSt3__129_AllocatorDestroyRangeReverseINS_9allocatorINS_12basic_stringIcNS_11char_traitsIcEENS1_IcEEEEEEPS6_EC2B7v160006ERS7_RS8_SB_, symObjAddr: 0xC908, symBinAddr: 0x10001EFA4, symSize: 0x38 }
  - { offsetInCU: 0x3C6AA, offset: 0x6FC3B, size: 0x8, addend: 0x0, symName: __ZNSt3__19allocatorINS_12basic_stringIcNS_11char_traitsIcEENS0_IcEEEEE9constructB7v160006IS5_JRS5_EEEvPT_DpOT0_, symObjAddr: 0xC940, symBinAddr: 0x10001EFDC, symSize: 0x30 }
  - { offsetInCU: 0x3C6FE, offset: 0x6FC8F, size: 0x8, addend: 0x0, symName: __ZNSt3__128__exception_guard_exceptionsINS_29_AllocatorDestroyRangeReverseINS_9allocatorINS_12basic_stringIcNS_11char_traitsIcEENS2_IcEEEEEEPS7_EEED2B7v160006Ev, symObjAddr: 0xC970, symBinAddr: 0x10001F00C, symSize: 0x50 }
  - { offsetInCU: 0x3C726, offset: 0x6FCB7, size: 0x8, addend: 0x0, symName: __ZNKSt3__129_AllocatorDestroyRangeReverseINS_9allocatorINS_12basic_stringIcNS_11char_traitsIcEENS1_IcEEEEEEPS6_EclB7v160006Ev, symObjAddr: 0xC9C0, symBinAddr: 0x10001F05C, symSize: 0x68 }
  - { offsetInCU: 0x3C74A, offset: 0x6FCDB, size: 0x8, addend: 0x0, symName: __ZNSt3__116reverse_iteratorIPNS_12basic_stringIcNS_11char_traitsIcEENS_9allocatorIcEEEEEC1B7v160006ES7_, symObjAddr: 0xCA98, symBinAddr: 0x10001F134, symSize: 0x34 }
  - { offsetInCU: 0x3C780, offset: 0x6FD11, size: 0x8, addend: 0x0, symName: __ZNSt3__116allocator_traitsINS_9allocatorINS_12basic_stringIcNS_11char_traitsIcEENS1_IcEEEEEEE7destroyB7v160006IS6_vEEvRS7_PT_, symObjAddr: 0xCB14, symBinAddr: 0x10001F1B0, symSize: 0x2C }
  - { offsetInCU: 0x3C7BC, offset: 0x6FD4D, size: 0x8, addend: 0x0, symName: __ZNSt3__116reverse_iteratorIPNS_12basic_stringIcNS_11char_traitsIcEENS_9allocatorIcEEEEEppB7v160006Ev, symObjAddr: 0xCB64, symBinAddr: 0x10001F200, symSize: 0x20 }
  - { offsetInCU: 0x3C7E0, offset: 0x6FD71, size: 0x8, addend: 0x0, symName: __ZNKSt3__116reverse_iteratorIPNS_12basic_stringIcNS_11char_traitsIcEENS_9allocatorIcEEEEE4baseB7v160006Ev, symObjAddr: 0xCB84, symBinAddr: 0x10001F220, symSize: 0x18 }
  - { offsetInCU: 0x3C804, offset: 0x6FD95, size: 0x8, addend: 0x0, symName: __ZNSt3__19allocatorINS_12basic_stringIcNS_11char_traitsIcEENS0_IcEEEEE7destroyB7v160006EPS5_, symObjAddr: 0xCB9C, symBinAddr: 0x10001F238, symSize: 0x28 }
  - { offsetInCU: 0x3C83B, offset: 0x6FDCC, size: 0x8, addend: 0x0, symName: __ZNSt3__119__to_address_helperINS_16reverse_iteratorIPNS_12basic_stringIcNS_11char_traitsIcEENS_9allocatorIcEEEEEEvE6__callB7v160006ERKS9_, symObjAddr: 0xCBC4, symBinAddr: 0x10001F260, symSize: 0x38 }
  - { offsetInCU: 0x3C85D, offset: 0x6FDEE, size: 0x8, addend: 0x0, symName: __ZNKSt3__116reverse_iteratorIPNS_12basic_stringIcNS_11char_traitsIcEENS_9allocatorIcEEEEEptB7v160006Ev, symObjAddr: 0xCBFC, symBinAddr: 0x10001F298, symSize: 0x24 }
  - { offsetInCU: 0x3C881, offset: 0x6FE12, size: 0x8, addend: 0x0, symName: __ZNKSt3__116reverse_iteratorIPNS_12basic_stringIcNS_11char_traitsIcEENS_9allocatorIcEEEEEdeB7v160006Ev, symObjAddr: 0xCC20, symBinAddr: 0x10001F2BC, symSize: 0x28 }
  - { offsetInCU: 0x3C8B3, offset: 0x6FE44, size: 0x8, addend: 0x0, symName: __ZNSt3__116reverse_iteratorIPNS_12basic_stringIcNS_11char_traitsIcEENS_9allocatorIcEEEEEC2B7v160006ES7_, symObjAddr: 0xCC48, symBinAddr: 0x10001F2E4, symSize: 0x28 }
  - { offsetInCU: 0x3C8E9, offset: 0x6FE7A, size: 0x8, addend: 0x0, symName: __ZNSt3__16vectorINS_12basic_stringIcNS_11char_traitsIcEENS_9allocatorIcEEEENS4_IS6_EEE21_ConstructTransactionD2B7v160006Ev, symObjAddr: 0xCC70, symBinAddr: 0x10001F30C, symSize: 0x20 }
  - { offsetInCU: 0x3C911, offset: 0x6FEA2, size: 0x8, addend: 0x0, symName: __ZNSt3__128__exception_guard_exceptionsINS_6vectorINS_12basic_stringIcNS_11char_traitsIcEENS_9allocatorIcEEEENS5_IS7_EEE16__destroy_vectorEED2B7v160006Ev, symObjAddr: 0xCC90, symBinAddr: 0x10001F32C, symSize: 0x50 }
  - { offsetInCU: 0x3C939, offset: 0x6FECA, size: 0x8, addend: 0x0, symName: __ZNSt3__16vectorINS_12basic_stringIcNS_11char_traitsIcEENS_9allocatorIcEEEENS4_IS6_EEE16__destroy_vectorclB7v160006Ev, symObjAddr: 0xCCE0, symBinAddr: 0x10001F37C, symSize: 0x9C }
  - { offsetInCU: 0x3C95D, offset: 0x6FEEE, size: 0x8, addend: 0x0, symName: __ZNKSt3__16vectorINS_12basic_stringIcNS_11char_traitsIcEENS_9allocatorIcEEEENS4_IS6_EEE17__annotate_deleteB7v160006Ev, symObjAddr: 0xCD7C, symBinAddr: 0x10001F418, symSize: 0xD4 }
  - { offsetInCU: 0x3C981, offset: 0x6FF12, size: 0x8, addend: 0x0, symName: __ZNSt3__16vectorINS_12basic_stringIcNS_11char_traitsIcEENS_9allocatorIcEEEENS4_IS6_EEE7__clearB7v160006Ev, symObjAddr: 0xCE60, symBinAddr: 0x10001F4FC, symSize: 0x28 }
  - { offsetInCU: 0x3C9A5, offset: 0x6FF36, size: 0x8, addend: 0x0, symName: __ZNSt3__116allocator_traitsINS_9allocatorINS_12basic_stringIcNS_11char_traitsIcEENS1_IcEEEEEEE10deallocateB7v160006ERS7_PS6_m, symObjAddr: 0xCE88, symBinAddr: 0x10001F524, symSize: 0x34 }
  - { offsetInCU: 0x3C9E6, offset: 0x6FF77, size: 0x8, addend: 0x0, symName: __ZNSt3__16vectorINS_12basic_stringIcNS_11char_traitsIcEENS_9allocatorIcEEEENS4_IS6_EEE22__base_destruct_at_endB7v160006EPS6_, symObjAddr: 0xCEBC, symBinAddr: 0x10001F558, symSize: 0x8C }
  - { offsetInCU: 0x3CA29, offset: 0x6FFBA, size: 0x8, addend: 0x0, symName: __ZNSt3__19allocatorINS_12basic_stringIcNS_11char_traitsIcEENS0_IcEEEEE10deallocateB7v160006EPS5_m, symObjAddr: 0xCF48, symBinAddr: 0x10001F5E4, symSize: 0x44 }
  - { offsetInCU: 0x3CA69, offset: 0x6FFFA, size: 0x8, addend: 0x0, symName: __ZN17kd_tree_leaf_nodeC2E7Dataset, symObjAddr: 0xCF8C, symBinAddr: 0x10001F628, symSize: 0x84 }
  - { offsetInCU: 0x3CAA0, offset: 0x70031, size: 0x8, addend: 0x0, symName: __ZN10KDTreeNodeC2Ev, symObjAddr: 0xD010, symBinAddr: 0x10001F6AC, symSize: 0x24 }
  - { offsetInCU: 0x3CACA, offset: 0x7005B, size: 0x8, addend: 0x0, symName: __ZN10KDTreeNodeD2Ev, symObjAddr: 0xD034, symBinAddr: 0x10001F6D0, symSize: 0x14 }
  - { offsetInCU: 0x3CAF2, offset: 0x70083, size: 0x8, addend: 0x0, symName: __ZN17kd_tree_leaf_nodeD1Ev, symObjAddr: 0xD048, symBinAddr: 0x10001F6E4, symSize: 0x2C }
  - { offsetInCU: 0x3CB1A, offset: 0x700AB, size: 0x8, addend: 0x0, symName: __ZN17kd_tree_leaf_nodeD0Ev, symObjAddr: 0xD074, symBinAddr: 0x10001F710, symSize: 0x30 }
  - { offsetInCU: 0x3CB42, offset: 0x700D3, size: 0x8, addend: 0x0, symName: __ZNK17kd_tree_leaf_node6isLeafEv, symObjAddr: 0xD0A4, symBinAddr: 0x10001F740, symSize: 0x18 }
  - { offsetInCU: 0x3CB66, offset: 0x700F7, size: 0x8, addend: 0x0, symName: __ZN10KDTreeNodeD1Ev, symObjAddr: 0xD0BC, symBinAddr: 0x10001F758, symSize: 0x14 }
  - { offsetInCU: 0x3CB8E, offset: 0x7011F, size: 0x8, addend: 0x0, symName: __ZN10KDTreeNodeD0Ev, symObjAddr: 0xD0D0, symBinAddr: 0x10001F76C, symSize: 0xC }
  - { offsetInCU: 0x3CBB6, offset: 0x70147, size: 0x8, addend: 0x0, symName: __ZN17kd_tree_leaf_nodeD2Ev, symObjAddr: 0xD0DC, symBinAddr: 0x10001F778, symSize: 0x48 }
  - { offsetInCU: 0x3CBDE, offset: 0x7016F, size: 0x8, addend: 0x0, symName: __ZN18kd_tree_inter_nodeC2Eid, symObjAddr: 0xD124, symBinAddr: 0x10001F7C0, symSize: 0x64 }
  - { offsetInCU: 0x3CC22, offset: 0x701B3, size: 0x8, addend: 0x0, symName: __ZN18kd_tree_inter_nodeD1Ev, symObjAddr: 0xD188, symBinAddr: 0x10001F824, symSize: 0x2C }
  - { offsetInCU: 0x3CC4A, offset: 0x701DB, size: 0x8, addend: 0x0, symName: __ZN18kd_tree_inter_nodeD0Ev, symObjAddr: 0xD1B4, symBinAddr: 0x10001F850, symSize: 0x30 }
  - { offsetInCU: 0x3CC72, offset: 0x70203, size: 0x8, addend: 0x0, symName: __ZNK18kd_tree_inter_node6isLeafEv, symObjAddr: 0xD1E4, symBinAddr: 0x10001F880, symSize: 0x18 }
  - { offsetInCU: 0x3CC96, offset: 0x70227, size: 0x8, addend: 0x0, symName: __ZN18kd_tree_inter_nodeD2Ev, symObjAddr: 0xD1FC, symBinAddr: 0x10001F898, symSize: 0x2C }
  - { offsetInCU: 0x3CCBE, offset: 0x7024F, size: 0x8, addend: 0x0, symName: __ZNSt3__118basic_stringstreamIcNS_11char_traitsIcEENS_9allocatorIcEEED2Ev, symObjAddr: 0xD2B4, symBinAddr: 0x10001F8C4, symSize: 0x6C }
  - { offsetInCU: 0x3CCF6, offset: 0x70287, size: 0x8, addend: 0x0, symName: __ZThn16_NSt3__118basic_stringstreamIcNS_11char_traitsIcEENS_9allocatorIcEEED1Ev, symObjAddr: 0xD320, symBinAddr: 0x10001F930, symSize: 0x1C }
  - { offsetInCU: 0x3CD0D, offset: 0x7029E, size: 0x8, addend: 0x0, symName: __ZTv0_n24_NSt3__118basic_stringstreamIcNS_11char_traitsIcEENS_9allocatorIcEEED1Ev, symObjAddr: 0xD33C, symBinAddr: 0x10001F94C, symSize: 0x28 }
  - { offsetInCU: 0x3CD29, offset: 0x702BA, size: 0x8, addend: 0x0, symName: __ZNSt3__18ios_base4setfB7v160006Ejj, symObjAddr: 0xD3D8, symBinAddr: 0x10001F974, symSize: 0x5C }
  - { offsetInCU: 0x3CD7D, offset: 0x7030E, size: 0x8, addend: 0x0, symName: __ZNSt3__18ios_base6unsetfB7v160006Ej, symObjAddr: 0xD434, symBinAddr: 0x10001F9D0, symSize: 0x28 }
  - { offsetInCU: 0x3CDB3, offset: 0x70344, size: 0x8, addend: 0x0, symName: __ZNSt3__18__iom_t5C1B7v160006Ei, symObjAddr: 0xD45C, symBinAddr: 0x10001F9F8, symSize: 0x34 }
  - { offsetInCU: 0x3CDE9, offset: 0x7037A, size: 0x8, addend: 0x0, symName: __ZNSt3__18__iom_t5C2B7v160006Ei, symObjAddr: 0xD490, symBinAddr: 0x10001FA2C, symSize: 0x20 }
  - { offsetInCU: 0x3CE1E, offset: 0x703AF, size: 0x8, addend: 0x0, symName: __Z5ltrimRNSt3__112basic_stringIcNS_11char_traitsIcEENS_9allocatorIcEEEEPKc, symObjAddr: 0xD4B0, symBinAddr: 0x10001FA4C, symSize: 0x50 }
  - { offsetInCU: 0x3CE58, offset: 0x703E9, size: 0x8, addend: 0x0, symName: __Z5rtrimRNSt3__112basic_stringIcNS_11char_traitsIcEENS_9allocatorIcEEEEPKc, symObjAddr: 0xD500, symBinAddr: 0x10001FA9C, symSize: 0x54 }
  - { offsetInCU: 0x3CE93, offset: 0x70424, size: 0x8, addend: 0x0, symName: __ZNKSt3__112basic_stringIcNS_11char_traitsIcEENS_9allocatorIcEEE17find_first_not_ofB7v160006EPKcm, symObjAddr: 0xD554, symBinAddr: 0x10001FAF0, symSize: 0x74 }
  - { offsetInCU: 0x3CED7, offset: 0x70468, size: 0x8, addend: 0x0, symName: __ZNSt3__111char_traitsIcE4findEPKcmRS2_, symObjAddr: 0xD754, symBinAddr: 0x10001FC40, symSize: 0x70 }
  - { offsetInCU: 0x3CF15, offset: 0x704A6, size: 0x8, addend: 0x0, symName: __ZNKSt3__112basic_stringIcNS_11char_traitsIcEENS_9allocatorIcEEE16find_last_not_ofB7v160006EPKcm, symObjAddr: 0xD9B4, symBinAddr: 0x10001FCE4, symSize: 0x74 }
  - { offsetInCU: 0x3CF59, offset: 0x704EA, size: 0x8, addend: 0x0, symName: __ZNSt3__119basic_ostringstreamIcNS_11char_traitsIcEENS_9allocatorIcEEED2Ev, symObjAddr: 0xDB04, symBinAddr: 0x10001FE34, symSize: 0x64 }
  - { offsetInCU: 0x3CF91, offset: 0x70522, size: 0x8, addend: 0x0, symName: __ZTv0_n24_NSt3__119basic_ostringstreamIcNS_11char_traitsIcEENS_9allocatorIcEEED1Ev, symObjAddr: 0xDB68, symBinAddr: 0x10001FE98, symSize: 0x28 }
  - { offsetInCU: 0x3CFA8, offset: 0x70539, size: 0x8, addend: 0x0, symName: __ZNKSt3__111__wrap_iterIPP6SectorE4baseB7v160006Ev, symObjAddr: 0xDBD8, symBinAddr: 0x10001FF08, symSize: 0x18 }
  - { offsetInCU: 0x3CFCC, offset: 0x7055D, size: 0x8, addend: 0x0, symName: __ZNSt3__18functionIFbiN8nlohmann16json_abi_v3_11_36detail13parse_event_tERNS2_10basic_jsonINS_3mapENS_6vectorENS_12basic_stringIcNS_11char_traitsIcEENS_9allocatorIcEEEEbxydSB_NS2_14adl_serializerENS7_IhNSB_IhEEEEvEEEEC2B7v160006EDn, symObjAddr: 0xE150, symBinAddr: 0x10001FF20, symSize: 0x30 }
  - { offsetInCU: 0x3CFFF, offset: 0x70590, size: 0x8, addend: 0x0, symName: __ZNSt3__110__function12__value_funcIFbiN8nlohmann16json_abi_v3_11_36detail13parse_event_tERNS3_10basic_jsonINS_3mapENS_6vectorENS_12basic_stringIcNS_11char_traitsIcEENS_9allocatorIcEEEEbxydSC_NS3_14adl_serializerENS8_IhNSC_IhEEEEvEEEEC1B7v160006Ev, symObjAddr: 0xE180, symBinAddr: 0x10001FF50, symSize: 0x2C }
  - { offsetInCU: 0x3D027, offset: 0x705B8, size: 0x8, addend: 0x0, symName: __ZNSt3__110__function12__value_funcIFbiN8nlohmann16json_abi_v3_11_36detail13parse_event_tERNS3_10basic_jsonINS_3mapENS_6vectorENS_12basic_stringIcNS_11char_traitsIcEENS_9allocatorIcEEEEbxydSC_NS3_14adl_serializerENS8_IhNSC_IhEEEEvEEEEC2B7v160006Ev, symObjAddr: 0xE1AC, symBinAddr: 0x10001FF7C, symSize: 0x18 }
  - { offsetInCU: 0x3D04F, offset: 0x705E0, size: 0x8, addend: 0x0, symName: __ZNSt3__18functionIFbiN8nlohmann16json_abi_v3_11_36detail13parse_event_tERNS2_10basic_jsonINS_3mapENS_6vectorENS_12basic_stringIcNS_11char_traitsIcEENS_9allocatorIcEEEEbxydSB_NS2_14adl_serializerENS7_IhNSB_IhEEEEvEEEED2Ev, symObjAddr: 0xE1C4, symBinAddr: 0x10001FF94, symSize: 0x2C }
  - { offsetInCU: 0x3D07A, offset: 0x7060B, size: 0x8, addend: 0x0, symName: __ZNSt3__110__function12__value_funcIFbiN8nlohmann16json_abi_v3_11_36detail13parse_event_tERNS3_10basic_jsonINS_3mapENS_6vectorENS_12basic_stringIcNS_11char_traitsIcEENS_9allocatorIcEEEEbxydSC_NS3_14adl_serializerENS8_IhNSC_IhEEEEvEEEED1B7v160006Ev, symObjAddr: 0xE1F0, symBinAddr: 0x10001FFC0, symSize: 0x2C }
  - { offsetInCU: 0x3D0A2, offset: 0x70633, size: 0x8, addend: 0x0, symName: __ZNSt3__110__function12__value_funcIFbiN8nlohmann16json_abi_v3_11_36detail13parse_event_tERNS3_10basic_jsonINS_3mapENS_6vectorENS_12basic_stringIcNS_11char_traitsIcEENS_9allocatorIcEEEEbxydSC_NS3_14adl_serializerENS8_IhNSC_IhEEEEvEEEED2B7v160006Ev, symObjAddr: 0xE21C, symBinAddr: 0x10001FFEC, symSize: 0x90 }
  - { offsetInCU: 0x3D0CA, offset: 0x7065B, size: 0x8, addend: 0x0, symName: __ZN8nlohmann16json_abi_v3_11_310basic_jsonINSt3__13mapENS2_6vectorENS2_12basic_stringIcNS2_11char_traitsIcEENS2_9allocatorIcEEEEbxydS8_NS0_14adl_serializerENS4_IhNS8_IhEEEEvED2Ev, symObjAddr: 0xE2AC, symBinAddr: 0x10002007C, symSize: 0x3C }
  - { offsetInCU: 0x3D0F2, offset: 0x70683, size: 0x8, addend: 0x0, symName: __ZNK8nlohmann16json_abi_v3_11_310basic_jsonINSt3__13mapENS2_6vectorENS2_12basic_stringIcNS2_11char_traitsIcEENS2_9allocatorIcEEEEbxydS8_NS0_14adl_serializerENS4_IhNS8_IhEEEEvE16assert_invariantEb, symObjAddr: 0xE2E8, symBinAddr: 0x1000200B8, symSize: 0x1F0 }
  - { offsetInCU: 0x3D125, offset: 0x706B6, size: 0x8, addend: 0x0, symName: __ZN8nlohmann16json_abi_v3_11_310basic_jsonINSt3__13mapENS2_6vectorENS2_12basic_stringIcNS2_11char_traitsIcEENS2_9allocatorIcEEEEbxydS8_NS0_14adl_serializerENS4_IhNS8_IhEEEEvE4dataD1Ev, symObjAddr: 0xE4D8, symBinAddr: 0x1000202A8, symSize: 0x2C }
  - { offsetInCU: 0x3D14D, offset: 0x706DE, size: 0x8, addend: 0x0, symName: __ZN8nlohmann16json_abi_v3_11_310basic_jsonINSt3__13mapENS2_6vectorENS2_12basic_stringIcNS2_11char_traitsIcEENS2_9allocatorIcEEEEbxydS8_NS0_14adl_serializerENS4_IhNS8_IhEEEEvE4dataD2Ev, symObjAddr: 0xE504, symBinAddr: 0x1000202D4, symSize: 0x3C }
  - { offsetInCU: 0x3D175, offset: 0x70706, size: 0x8, addend: 0x0, symName: __ZN8nlohmann16json_abi_v3_11_310basic_jsonINSt3__13mapENS2_6vectorENS2_12basic_stringIcNS2_11char_traitsIcEENS2_9allocatorIcEEEEbxydS8_NS0_14adl_serializerENS4_IhNS8_IhEEEEvE10json_value7destroyENS0_6detail7value_tE, symObjAddr: 0xE540, symBinAddr: 0x100020310, symSize: 0x518 }
  - { offsetInCU: 0x3D309, offset: 0x7089A, size: 0x8, addend: 0x0, symName: __ZNSt3__16vectorIN8nlohmann16json_abi_v3_11_310basic_jsonINS_3mapES0_NS_12basic_stringIcNS_11char_traitsIcEENS_9allocatorIcEEEEbxydS8_NS2_14adl_serializerENS0_IhNS8_IhEEEEvEENS8_ISE_EEEC1B7v160006Ev, symObjAddr: 0xEA80, symBinAddr: 0x100020850, symSize: 0x2C }
  - { offsetInCU: 0x3D331, offset: 0x708C2, size: 0x8, addend: 0x0, symName: __ZNSt3__16vectorIN8nlohmann16json_abi_v3_11_310basic_jsonINS_3mapES0_NS_12basic_stringIcNS_11char_traitsIcEENS_9allocatorIcEEEEbxydS8_NS2_14adl_serializerENS0_IhNS8_IhEEEEvEENS8_ISE_EEE7reserveEm, symObjAddr: 0xEAAC, symBinAddr: 0x10002087C, symSize: 0xE8 }
  - { offsetInCU: 0x3D38E, offset: 0x7091F, size: 0x8, addend: 0x0, symName: __ZNKSt3__16vectorIN8nlohmann16json_abi_v3_11_310basic_jsonINS_3mapES0_NS_12basic_stringIcNS_11char_traitsIcEENS_9allocatorIcEEEEbxydS8_NS2_14adl_serializerENS0_IhNS8_IhEEEEvEENS8_ISE_EEE4sizeB7v160006Ev, symObjAddr: 0xEB94, symBinAddr: 0x100020964, symSize: 0x28 }
  - { offsetInCU: 0x3D3B2, offset: 0x70943, size: 0x8, addend: 0x0, symName: __ZNSt3__16vectorIN8nlohmann16json_abi_v3_11_310basic_jsonINS_3mapES0_NS_12basic_stringIcNS_11char_traitsIcEENS_9allocatorIcEEEEbxydS8_NS2_14adl_serializerENS0_IhNS8_IhEEEEvEENS8_ISE_EEE5beginB7v160006Ev, symObjAddr: 0xEC1C, symBinAddr: 0x1000209EC, symSize: 0x30 }
  - { offsetInCU: 0x3D3D8, offset: 0x70969, size: 0x8, addend: 0x0, symName: __ZNSt3__16vectorIN8nlohmann16json_abi_v3_11_310basic_jsonINS_3mapES0_NS_12basic_stringIcNS_11char_traitsIcEENS_9allocatorIcEEEEbxydS8_NS2_14adl_serializerENS0_IhNS8_IhEEEEvEENS8_ISE_EEE3endB7v160006Ev, symObjAddr: 0xEC4C, symBinAddr: 0x100020A1C, symSize: 0x30 }
  - { offsetInCU: 0x3D3FE, offset: 0x7098F, size: 0x8, addend: 0x0, symName: __ZNKSt3__13mapINS_12basic_stringIcNS_11char_traitsIcEENS_9allocatorIcEEEEN8nlohmann16json_abi_v3_11_310basic_jsonIS0_NS_6vectorES6_bxydS4_NS8_14adl_serializerENSA_IhNS4_IhEEEEvEENS_4lessIS6_EENS4_INS_4pairIKS6_SE_EEEEE4sizeB7v160006Ev, symObjAddr: 0xECA8, symBinAddr: 0x100020A78, symSize: 0x28 }
  - { offsetInCU: 0x3D422, offset: 0x709B3, size: 0x8, addend: 0x0, symName: __ZNSt3__13mapINS_12basic_stringIcNS_11char_traitsIcEENS_9allocatorIcEEEEN8nlohmann16json_abi_v3_11_310basic_jsonIS0_NS_6vectorES6_bxydS4_NS8_14adl_serializerENSA_IhNS4_IhEEEEvEENS_4lessIS6_EENS4_INS_4pairIKS6_SE_EEEEE5beginB7v160006Ev, symObjAddr: 0xECD0, symBinAddr: 0x100020AA0, symSize: 0x38 }
  - { offsetInCU: 0x3D446, offset: 0x709D7, size: 0x8, addend: 0x0, symName: __ZNSt3__13mapINS_12basic_stringIcNS_11char_traitsIcEENS_9allocatorIcEEEEN8nlohmann16json_abi_v3_11_310basic_jsonIS0_NS_6vectorES6_bxydS4_NS8_14adl_serializerENSA_IhNS4_IhEEEEvEENS_4lessIS6_EENS4_INS_4pairIKS6_SE_EEEEE3endB7v160006Ev, symObjAddr: 0xED08, symBinAddr: 0x100020AD8, symSize: 0x38 }
  - { offsetInCU: 0x3D46A, offset: 0x709FB, size: 0x8, addend: 0x0, symName: __ZNKSt3__114__map_iteratorINS_15__tree_iteratorINS_12__value_typeINS_12basic_stringIcNS_11char_traitsIcEENS_9allocatorIcEEEEN8nlohmann16json_abi_v3_11_310basic_jsonINS_3mapENS_6vectorES8_bxydS6_NSA_14adl_serializerENSD_IhNS6_IhEEEEvEEEEPNS_11__tree_nodeISI_PvEElEEEdeB7v160006Ev, symObjAddr: 0xED70, symBinAddr: 0x100020B40, symSize: 0x28 }
  - { offsetInCU: 0x3D48E, offset: 0x70A1F, size: 0x8, addend: 0x0, symName: __ZNSt3__16vectorIN8nlohmann16json_abi_v3_11_310basic_jsonINS_3mapES0_NS_12basic_stringIcNS_11char_traitsIcEENS_9allocatorIcEEEEbxydS8_NS2_14adl_serializerENS0_IhNS8_IhEEEEvEENS8_ISE_EEE9push_backB7v160006EOSE_, symObjAddr: 0xED98, symBinAddr: 0x100020B68, symSize: 0x6C }
  - { offsetInCU: 0x3D4C3, offset: 0x70A54, size: 0x8, addend: 0x0, symName: __ZNSt3__114__map_iteratorINS_15__tree_iteratorINS_12__value_typeINS_12basic_stringIcNS_11char_traitsIcEENS_9allocatorIcEEEEN8nlohmann16json_abi_v3_11_310basic_jsonINS_3mapENS_6vectorES8_bxydS6_NSA_14adl_serializerENSD_IhNS6_IhEEEEvEEEEPNS_11__tree_nodeISI_PvEElEEEppB7v160006Ev, symObjAddr: 0xEE04, symBinAddr: 0x100020BD4, symSize: 0x2C }
  - { offsetInCU: 0x3D4E7, offset: 0x70A78, size: 0x8, addend: 0x0, symName: __ZNKSt3__16vectorIN8nlohmann16json_abi_v3_11_310basic_jsonINS_3mapES0_NS_12basic_stringIcNS_11char_traitsIcEENS_9allocatorIcEEEEbxydS8_NS2_14adl_serializerENS0_IhNS8_IhEEEEvEENS8_ISE_EEE5emptyB7v160006Ev, symObjAddr: 0xEE30, symBinAddr: 0x100020C00, symSize: 0x28 }
  - { offsetInCU: 0x3D50B, offset: 0x70A9C, size: 0x8, addend: 0x0, symName: __ZNSt3__16vectorIN8nlohmann16json_abi_v3_11_310basic_jsonINS_3mapES0_NS_12basic_stringIcNS_11char_traitsIcEENS_9allocatorIcEEEEbxydS8_NS2_14adl_serializerENS0_IhNS8_IhEEEEvEENS8_ISE_EEE4backB7v160006Ev, symObjAddr: 0xEE58, symBinAddr: 0x100020C28, symSize: 0x1C }
  - { offsetInCU: 0x3D52F, offset: 0x70AC0, size: 0x8, addend: 0x0, symName: __ZN8nlohmann16json_abi_v3_11_310basic_jsonINSt3__13mapENS2_6vectorENS2_12basic_stringIcNS2_11char_traitsIcEENS2_9allocatorIcEEEEbxydS8_NS0_14adl_serializerENS4_IhNS8_IhEEEEvEC1EOSE_, symObjAddr: 0xEE74, symBinAddr: 0x100020C44, symSize: 0x34 }
  - { offsetInCU: 0x3D566, offset: 0x70AF7, size: 0x8, addend: 0x0, symName: __ZNSt3__16vectorIN8nlohmann16json_abi_v3_11_310basic_jsonINS_3mapES0_NS_12basic_stringIcNS_11char_traitsIcEENS_9allocatorIcEEEEbxydS8_NS2_14adl_serializerENS0_IhNS8_IhEEEEvEENS8_ISE_EEE8pop_backEv, symObjAddr: 0xEEA8, symBinAddr: 0x100020C78, symSize: 0x2C }
  - { offsetInCU: 0x3D58C, offset: 0x70B1D, size: 0x8, addend: 0x0, symName: __ZNK8nlohmann16json_abi_v3_11_310basic_jsonINSt3__13mapENS2_6vectorENS2_12basic_stringIcNS2_11char_traitsIcEENS2_9allocatorIcEEEEbxydS8_NS0_14adl_serializerENS4_IhNS8_IhEEEEvE8is_arrayEv, symObjAddr: 0xEED4, symBinAddr: 0x100020CA4, symSize: 0x24 }
  - { offsetInCU: 0x3D5B0, offset: 0x70B41, size: 0x8, addend: 0x0, symName: __ZNSt3__16vectorIN8nlohmann16json_abi_v3_11_310basic_jsonINS_3mapES0_NS_12basic_stringIcNS_11char_traitsIcEENS_9allocatorIcEEEEbxydS8_NS2_14adl_serializerENS0_IhNS8_IhEEEEvEENS8_ISE_EEE5clearB7v160006Ev, symObjAddr: 0xEEF8, symBinAddr: 0x100020CC8, symSize: 0x4C }
  - { offsetInCU: 0x3D5E4, offset: 0x70B75, size: 0x8, addend: 0x0, symName: __ZNK8nlohmann16json_abi_v3_11_310basic_jsonINSt3__13mapENS2_6vectorENS2_12basic_stringIcNS2_11char_traitsIcEENS2_9allocatorIcEEEEbxydS8_NS0_14adl_serializerENS4_IhNS8_IhEEEEvE9is_objectEv, symObjAddr: 0xEF44, symBinAddr: 0x100020D14, symSize: 0x24 }
  - { offsetInCU: 0x3D608, offset: 0x70B99, size: 0x8, addend: 0x0, symName: __ZNSt3__13mapINS_12basic_stringIcNS_11char_traitsIcEENS_9allocatorIcEEEEN8nlohmann16json_abi_v3_11_310basic_jsonIS0_NS_6vectorES6_bxydS4_NS8_14adl_serializerENSA_IhNS4_IhEEEEvEENS_4lessIS6_EENS4_INS_4pairIKS6_SE_EEEEE5clearB7v160006Ev, symObjAddr: 0xEF68, symBinAddr: 0x100020D38, symSize: 0x24 }
  - { offsetInCU: 0x3D62C, offset: 0x70BBD, size: 0x8, addend: 0x0, symName: __ZNSt3__16vectorIN8nlohmann16json_abi_v3_11_310basic_jsonINS_3mapES0_NS_12basic_stringIcNS_11char_traitsIcEENS_9allocatorIcEEEEbxydS8_NS2_14adl_serializerENS0_IhNS8_IhEEEEvEENS8_ISE_EEED1B7v160006Ev, symObjAddr: 0xEF8C, symBinAddr: 0x100020D5C, symSize: 0x2C }
  - { offsetInCU: 0x3D66D, offset: 0x70BFE, size: 0x8, addend: 0x0, symName: __ZNSt3__19allocatorINS_3mapINS_12basic_stringIcNS_11char_traitsIcEENS0_IcEEEEN8nlohmann16json_abi_v3_11_310basic_jsonIS1_NS_6vectorES6_bxydS0_NS8_14adl_serializerENSA_IhNS0_IhEEEEvEENS_4lessIS6_EENS0_INS_4pairIKS6_SE_EEEEEEEC1B7v160006Ev, symObjAddr: 0xEFB8, symBinAddr: 0x100020D88, symSize: 0x2C }
  - { offsetInCU: 0x3D69A, offset: 0x70C2B, size: 0x8, addend: 0x0, symName: __ZNSt3__116allocator_traitsINS_9allocatorINS_3mapINS_12basic_stringIcNS_11char_traitsIcEENS1_IcEEEEN8nlohmann16json_abi_v3_11_310basic_jsonIS2_NS_6vectorES7_bxydS1_NS9_14adl_serializerENSB_IhNS1_IhEEEEvEENS_4lessIS7_EENS1_INS_4pairIKS7_SF_EEEEEEEEE7destroyB7v160006ISM_vEEvRSN_PT_, symObjAddr: 0xEFE4, symBinAddr: 0x100020DB4, symSize: 0x2C }
  - { offsetInCU: 0x3D6D6, offset: 0x70C67, size: 0x8, addend: 0x0, symName: __ZNSt3__116allocator_traitsINS_9allocatorINS_3mapINS_12basic_stringIcNS_11char_traitsIcEENS1_IcEEEEN8nlohmann16json_abi_v3_11_310basic_jsonIS2_NS_6vectorES7_bxydS1_NS9_14adl_serializerENSB_IhNS1_IhEEEEvEENS_4lessIS7_EENS1_INS_4pairIKS7_SF_EEEEEEEEE10deallocateB7v160006ERSN_PSM_m, symObjAddr: 0xF010, symBinAddr: 0x100020DE0, symSize: 0x34 }
  - { offsetInCU: 0x3D730, offset: 0x70CC1, size: 0x8, addend: 0x0, symName: __ZNSt3__19allocatorINS_6vectorIN8nlohmann16json_abi_v3_11_310basic_jsonINS_3mapES1_NS_12basic_stringIcNS_11char_traitsIcEENS0_IcEEEEbxydS0_NS3_14adl_serializerENS1_IhNS0_IhEEEEvEENS0_ISE_EEEEEC1B7v160006Ev, symObjAddr: 0xF044, symBinAddr: 0x100020E14, symSize: 0x2C }
  - { offsetInCU: 0x3D75D, offset: 0x70CEE, size: 0x8, addend: 0x0, symName: __ZNSt3__116allocator_traitsINS_9allocatorINS_6vectorIN8nlohmann16json_abi_v3_11_310basic_jsonINS_3mapES2_NS_12basic_stringIcNS_11char_traitsIcEENS1_IcEEEEbxydS1_NS4_14adl_serializerENS2_IhNS1_IhEEEEvEENS1_ISF_EEEEEEE7destroyB7v160006ISH_vEEvRSI_PT_, symObjAddr: 0xF070, symBinAddr: 0x100020E40, symSize: 0x2C }
  - { offsetInCU: 0x3D799, offset: 0x70D2A, size: 0x8, addend: 0x0, symName: __ZNSt3__116allocator_traitsINS_9allocatorINS_6vectorIN8nlohmann16json_abi_v3_11_310basic_jsonINS_3mapES2_NS_12basic_stringIcNS_11char_traitsIcEENS1_IcEEEEbxydS1_NS4_14adl_serializerENS2_IhNS1_IhEEEEvEENS1_ISF_EEEEEEE10deallocateB7v160006ERSI_PSH_m, symObjAddr: 0xF09C, symBinAddr: 0x100020E6C, symSize: 0x34 }
  - { offsetInCU: 0x3D7DA, offset: 0x70D6B, size: 0x8, addend: 0x0, symName: __ZNSt3__19allocatorINS_12basic_stringIcNS_11char_traitsIcEENS0_IcEEEEEC1B7v160006Ev, symObjAddr: 0xF0D0, symBinAddr: 0x100020EA0, symSize: 0x2C }
  - { offsetInCU: 0x3D820, offset: 0x70DB1, size: 0x8, addend: 0x0, symName: __ZNSt3__19allocatorIN8nlohmann16json_abi_v3_11_327byte_container_with_subtypeINS_6vectorIhNS0_IhEEEEEEEC1B7v160006Ev, symObjAddr: 0xF0FC, symBinAddr: 0x100020ECC, symSize: 0x2C }
  - { offsetInCU: 0x3D84D, offset: 0x70DDE, size: 0x8, addend: 0x0, symName: __ZNSt3__116allocator_traitsINS_9allocatorIN8nlohmann16json_abi_v3_11_327byte_container_with_subtypeINS_6vectorIhNS1_IhEEEEEEEEE7destroyB7v160006IS8_vEEvRS9_PT_, symObjAddr: 0xF128, symBinAddr: 0x100020EF8, symSize: 0x2C }
  - { offsetInCU: 0x3D889, offset: 0x70E1A, size: 0x8, addend: 0x0, symName: __ZNSt3__116allocator_traitsINS_9allocatorIN8nlohmann16json_abi_v3_11_327byte_container_with_subtypeINS_6vectorIhNS1_IhEEEEEEEEE10deallocateB7v160006ERS9_PS8_m, symObjAddr: 0xF154, symBinAddr: 0x100020F24, symSize: 0x34 }
  - { offsetInCU: 0x3D8CA, offset: 0x70E5B, size: 0x8, addend: 0x0, symName: __ZNSt3__16vectorIN8nlohmann16json_abi_v3_11_310basic_jsonINS_3mapES0_NS_12basic_stringIcNS_11char_traitsIcEENS_9allocatorIcEEEEbxydS8_NS2_14adl_serializerENS0_IhNS8_IhEEEEvEENS8_ISE_EEEC2B7v160006Ev, symObjAddr: 0xF188, symBinAddr: 0x100020F58, symSize: 0x58 }
  - { offsetInCU: 0x3D8F2, offset: 0x70E83, size: 0x8, addend: 0x0, symName: __ZNSt3__117__compressed_pairIPN8nlohmann16json_abi_v3_11_310basic_jsonINS_3mapENS_6vectorENS_12basic_stringIcNS_11char_traitsIcEENS_9allocatorIcEEEEbxydS9_NS2_14adl_serializerENS5_IhNS9_IhEEEEvEENS9_ISF_EEEC1B7v160006IDnNS_18__default_init_tagEEEOT_OT0_, symObjAddr: 0xF1E0, symBinAddr: 0x100020FB0, symSize: 0x3C }
  - { offsetInCU: 0x3D948, offset: 0x70ED9, size: 0x8, addend: 0x0, symName: __ZNSt3__117__compressed_pairIPN8nlohmann16json_abi_v3_11_310basic_jsonINS_3mapENS_6vectorENS_12basic_stringIcNS_11char_traitsIcEENS_9allocatorIcEEEEbxydS9_NS2_14adl_serializerENS5_IhNS9_IhEEEEvEENS9_ISF_EEEC2B7v160006IDnNS_18__default_init_tagEEEOT_OT0_, symObjAddr: 0xF22C, symBinAddr: 0x100020FFC, symSize: 0x40 }
  - { offsetInCU: 0x3D99E, offset: 0x70F2F, size: 0x8, addend: 0x0, symName: __ZNSt3__122__compressed_pair_elemIPN8nlohmann16json_abi_v3_11_310basic_jsonINS_3mapENS_6vectorENS_12basic_stringIcNS_11char_traitsIcEENS_9allocatorIcEEEEbxydS9_NS2_14adl_serializerENS5_IhNS9_IhEEEEvEELi0ELb0EEC2B7v160006IDnvEEOT_, symObjAddr: 0xF26C, symBinAddr: 0x10002103C, symSize: 0x1C }
  - { offsetInCU: 0x3D9DE, offset: 0x70F6F, size: 0x8, addend: 0x0, symName: __ZNSt3__122__compressed_pair_elemINS_9allocatorIN8nlohmann16json_abi_v3_11_310basic_jsonINS_3mapENS_6vectorENS_12basic_stringIcNS_11char_traitsIcEENS1_IcEEEEbxydS1_NS3_14adl_serializerENS6_IhNS1_IhEEEEvEEEELi1ELb1EEC2B7v160006ENS_18__default_init_tagE, symObjAddr: 0xF288, symBinAddr: 0x100021058, symSize: 0x2C }
  - { offsetInCU: 0x3DA10, offset: 0x70FA1, size: 0x8, addend: 0x0, symName: __ZNSt3__19allocatorIN8nlohmann16json_abi_v3_11_310basic_jsonINS_3mapENS_6vectorENS_12basic_stringIcNS_11char_traitsIcEENS0_IcEEEEbxydS0_NS2_14adl_serializerENS5_IhNS0_IhEEEEvEEEC2B7v160006Ev, symObjAddr: 0xF2B4, symBinAddr: 0x100021084, symSize: 0x2C }
  - { offsetInCU: 0x3DA38, offset: 0x70FC9, size: 0x8, addend: 0x0, symName: __ZNSt3__116__non_trivial_ifILb1ENS_9allocatorIN8nlohmann16json_abi_v3_11_310basic_jsonINS_3mapENS_6vectorENS_12basic_stringIcNS_11char_traitsIcEENS1_IcEEEEbxydS1_NS3_14adl_serializerENS6_IhNS1_IhEEEEvEEEEEC2B7v160006Ev, symObjAddr: 0xF2E0, symBinAddr: 0x1000210B0, symSize: 0x14 }
  - { offsetInCU: 0x3DA60, offset: 0x70FF1, size: 0x8, addend: 0x0, symName: __ZNKSt3__16vectorIN8nlohmann16json_abi_v3_11_310basic_jsonINS_3mapES0_NS_12basic_stringIcNS_11char_traitsIcEENS_9allocatorIcEEEEbxydS8_NS2_14adl_serializerENS0_IhNS8_IhEEEEvEENS8_ISE_EEE8capacityB7v160006Ev, symObjAddr: 0xF2F4, symBinAddr: 0x1000210C4, symSize: 0x40 }
  - { offsetInCU: 0x3DA84, offset: 0x71015, size: 0x8, addend: 0x0, symName: __ZNKSt3__16vectorIN8nlohmann16json_abi_v3_11_310basic_jsonINS_3mapES0_NS_12basic_stringIcNS_11char_traitsIcEENS_9allocatorIcEEEEbxydS8_NS2_14adl_serializerENS0_IhNS8_IhEEEEvEENS8_ISE_EEE8max_sizeEv, symObjAddr: 0xF334, symBinAddr: 0x100021104, symSize: 0x60 }
  - { offsetInCU: 0x3DAAA, offset: 0x7103B, size: 0x8, addend: 0x0, symName: __ZNKSt3__16vectorIN8nlohmann16json_abi_v3_11_310basic_jsonINS_3mapES0_NS_12basic_stringIcNS_11char_traitsIcEENS_9allocatorIcEEEEbxydS8_NS2_14adl_serializerENS0_IhNS8_IhEEEEvEENS8_ISE_EEE20__throw_length_errorB7v160006Ev, symObjAddr: 0xF394, symBinAddr: 0x100021164, symSize: 0x1C }
  - { offsetInCU: 0x3DACE, offset: 0x7105F, size: 0x8, addend: 0x0, symName: __ZNSt3__16vectorIN8nlohmann16json_abi_v3_11_310basic_jsonINS_3mapES0_NS_12basic_stringIcNS_11char_traitsIcEENS_9allocatorIcEEEEbxydS8_NS2_14adl_serializerENS0_IhNS8_IhEEEEvEENS8_ISE_EEE7__allocB7v160006Ev, symObjAddr: 0xF3B0, symBinAddr: 0x100021180, symSize: 0x28 }
  - { offsetInCU: 0x3DAF2, offset: 0x71083, size: 0x8, addend: 0x0, symName: __ZNSt3__114__split_bufferIN8nlohmann16json_abi_v3_11_310basic_jsonINS_3mapENS_6vectorENS_12basic_stringIcNS_11char_traitsIcEENS_9allocatorIcEEEEbxydS9_NS2_14adl_serializerENS5_IhNS9_IhEEEEvEERNS9_ISF_EEEC1EmmSH_, symObjAddr: 0xF3D8, symBinAddr: 0x1000211A8, symSize: 0x44 }
  - { offsetInCU: 0x3DB47, offset: 0x710D8, size: 0x8, addend: 0x0, symName: __ZNSt3__114__split_bufferIN8nlohmann16json_abi_v3_11_310basic_jsonINS_3mapENS_6vectorENS_12basic_stringIcNS_11char_traitsIcEENS_9allocatorIcEEEEbxydS9_NS2_14adl_serializerENS5_IhNS9_IhEEEEvEERNS9_ISF_EEED1Ev, symObjAddr: 0xF534, symBinAddr: 0x100021304, symSize: 0x2C }
  - { offsetInCU: 0x3DB72, offset: 0x71103, size: 0x8, addend: 0x0, symName: __ZNKSt3__16vectorIN8nlohmann16json_abi_v3_11_310basic_jsonINS_3mapES0_NS_12basic_stringIcNS_11char_traitsIcEENS_9allocatorIcEEEEbxydS8_NS2_14adl_serializerENS0_IhNS8_IhEEEEvEENS8_ISE_EEE9__end_capB7v160006Ev, symObjAddr: 0xF560, symBinAddr: 0x100021330, symSize: 0x28 }
  - { offsetInCU: 0x3DB96, offset: 0x71127, size: 0x8, addend: 0x0, symName: __ZNKSt3__117__compressed_pairIPN8nlohmann16json_abi_v3_11_310basic_jsonINS_3mapENS_6vectorENS_12basic_stringIcNS_11char_traitsIcEENS_9allocatorIcEEEEbxydS9_NS2_14adl_serializerENS5_IhNS9_IhEEEEvEENS9_ISF_EEE5firstB7v160006Ev, symObjAddr: 0xF588, symBinAddr: 0x100021358, symSize: 0x24 }
  - { offsetInCU: 0x3DBBA, offset: 0x7114B, size: 0x8, addend: 0x0, symName: __ZNKSt3__122__compressed_pair_elemIPN8nlohmann16json_abi_v3_11_310basic_jsonINS_3mapENS_6vectorENS_12basic_stringIcNS_11char_traitsIcEENS_9allocatorIcEEEEbxydS9_NS2_14adl_serializerENS5_IhNS9_IhEEEEvEELi0ELb0EE5__getB7v160006Ev, symObjAddr: 0xF5AC, symBinAddr: 0x10002137C, symSize: 0x14 }
  - { offsetInCU: 0x3DBE8, offset: 0x71179, size: 0x8, addend: 0x0, symName: __ZNSt3__116allocator_traitsINS_9allocatorIN8nlohmann16json_abi_v3_11_310basic_jsonINS_3mapENS_6vectorENS_12basic_stringIcNS_11char_traitsIcEENS1_IcEEEEbxydS1_NS3_14adl_serializerENS6_IhNS1_IhEEEEvEEEEE8max_sizeB7v160006ISG_vEEmRKSG_, symObjAddr: 0xF5C0, symBinAddr: 0x100021390, symSize: 0x24 }
  - { offsetInCU: 0x3DC15, offset: 0x711A6, size: 0x8, addend: 0x0, symName: __ZNKSt3__16vectorIN8nlohmann16json_abi_v3_11_310basic_jsonINS_3mapES0_NS_12basic_stringIcNS_11char_traitsIcEENS_9allocatorIcEEEEbxydS8_NS2_14adl_serializerENS0_IhNS8_IhEEEEvEENS8_ISE_EEE7__allocB7v160006Ev, symObjAddr: 0xF5E4, symBinAddr: 0x1000213B4, symSize: 0x28 }
  - { offsetInCU: 0x3DC39, offset: 0x711CA, size: 0x8, addend: 0x0, symName: __ZNKSt3__19allocatorIN8nlohmann16json_abi_v3_11_310basic_jsonINS_3mapENS_6vectorENS_12basic_stringIcNS_11char_traitsIcEENS0_IcEEEEbxydS0_NS2_14adl_serializerENS5_IhNS0_IhEEEEvEEE8max_sizeB7v160006Ev, symObjAddr: 0xF60C, symBinAddr: 0x1000213DC, symSize: 0x14 }
  - { offsetInCU: 0x3DC5D, offset: 0x711EE, size: 0x8, addend: 0x0, symName: __ZNKSt3__117__compressed_pairIPN8nlohmann16json_abi_v3_11_310basic_jsonINS_3mapENS_6vectorENS_12basic_stringIcNS_11char_traitsIcEENS_9allocatorIcEEEEbxydS9_NS2_14adl_serializerENS5_IhNS9_IhEEEEvEENS9_ISF_EEE6secondB7v160006Ev, symObjAddr: 0xF620, symBinAddr: 0x1000213F0, symSize: 0x24 }
  - { offsetInCU: 0x3DC81, offset: 0x71212, size: 0x8, addend: 0x0, symName: __ZNKSt3__122__compressed_pair_elemINS_9allocatorIN8nlohmann16json_abi_v3_11_310basic_jsonINS_3mapENS_6vectorENS_12basic_stringIcNS_11char_traitsIcEENS1_IcEEEEbxydS1_NS3_14adl_serializerENS6_IhNS1_IhEEEEvEEEELi1ELb1EE5__getB7v160006Ev, symObjAddr: 0xF644, symBinAddr: 0x100021414, symSize: 0x14 }
  - { offsetInCU: 0x3DCA5, offset: 0x71236, size: 0x8, addend: 0x0, symName: __ZNSt3__117__compressed_pairIPN8nlohmann16json_abi_v3_11_310basic_jsonINS_3mapENS_6vectorENS_12basic_stringIcNS_11char_traitsIcEENS_9allocatorIcEEEEbxydS9_NS2_14adl_serializerENS5_IhNS9_IhEEEEvEENS9_ISF_EEE6secondB7v160006Ev, symObjAddr: 0xF658, symBinAddr: 0x100021428, symSize: 0x24 }
  - { offsetInCU: 0x3DCC9, offset: 0x7125A, size: 0x8, addend: 0x0, symName: __ZNSt3__122__compressed_pair_elemINS_9allocatorIN8nlohmann16json_abi_v3_11_310basic_jsonINS_3mapENS_6vectorENS_12basic_stringIcNS_11char_traitsIcEENS1_IcEEEEbxydS1_NS3_14adl_serializerENS6_IhNS1_IhEEEEvEEEELi1ELb1EE5__getB7v160006Ev, symObjAddr: 0xF67C, symBinAddr: 0x10002144C, symSize: 0x14 }
  - { offsetInCU: 0x3DCED, offset: 0x7127E, size: 0x8, addend: 0x0, symName: __ZNSt3__114__split_bufferIN8nlohmann16json_abi_v3_11_310basic_jsonINS_3mapENS_6vectorENS_12basic_stringIcNS_11char_traitsIcEENS_9allocatorIcEEEEbxydS9_NS2_14adl_serializerENS5_IhNS9_IhEEEEvEERNS9_ISF_EEEC2EmmSH_, symObjAddr: 0xF690, symBinAddr: 0x100021460, symSize: 0xD4 }
  - { offsetInCU: 0x3DD61, offset: 0x712F2, size: 0x8, addend: 0x0, symName: __ZNSt3__117__compressed_pairIPN8nlohmann16json_abi_v3_11_310basic_jsonINS_3mapENS_6vectorENS_12basic_stringIcNS_11char_traitsIcEENS_9allocatorIcEEEEbxydS9_NS2_14adl_serializerENS5_IhNS9_IhEEEEvEERNS9_ISF_EEEC1B7v160006IDnSI_EEOT_OT0_, symObjAddr: 0xF764, symBinAddr: 0x100021534, symSize: 0x3C }
  - { offsetInCU: 0x3DDB7, offset: 0x71348, size: 0x8, addend: 0x0, symName: __ZNSt3__114__split_bufferIN8nlohmann16json_abi_v3_11_310basic_jsonINS_3mapENS_6vectorENS_12basic_stringIcNS_11char_traitsIcEENS_9allocatorIcEEEEbxydS9_NS2_14adl_serializerENS5_IhNS9_IhEEEEvEERNS9_ISF_EEE7__allocB7v160006Ev, symObjAddr: 0xF7E0, symBinAddr: 0x1000215B0, symSize: 0x28 }
  - { offsetInCU: 0x3DDDB, offset: 0x7136C, size: 0x8, addend: 0x0, symName: __ZNSt3__114__split_bufferIN8nlohmann16json_abi_v3_11_310basic_jsonINS_3mapENS_6vectorENS_12basic_stringIcNS_11char_traitsIcEENS_9allocatorIcEEEEbxydS9_NS2_14adl_serializerENS5_IhNS9_IhEEEEvEERNS9_ISF_EEE9__end_capB7v160006Ev, symObjAddr: 0xF808, symBinAddr: 0x1000215D8, symSize: 0x28 }
  - { offsetInCU: 0x3DDFF, offset: 0x71390, size: 0x8, addend: 0x0, symName: __ZNSt3__117__compressed_pairIPN8nlohmann16json_abi_v3_11_310basic_jsonINS_3mapENS_6vectorENS_12basic_stringIcNS_11char_traitsIcEENS_9allocatorIcEEEEbxydS9_NS2_14adl_serializerENS5_IhNS9_IhEEEEvEERNS9_ISF_EEEC2B7v160006IDnSI_EEOT_OT0_, symObjAddr: 0xF830, symBinAddr: 0x100021600, symSize: 0x48 }
  - { offsetInCU: 0x3DE55, offset: 0x713E6, size: 0x8, addend: 0x0, symName: __ZNSt3__122__compressed_pair_elemIRNS_9allocatorIN8nlohmann16json_abi_v3_11_310basic_jsonINS_3mapENS_6vectorENS_12basic_stringIcNS_11char_traitsIcEENS1_IcEEEEbxydS1_NS3_14adl_serializerENS6_IhNS1_IhEEEEvEEEELi1ELb0EEC2B7v160006ISH_vEEOT_, symObjAddr: 0xF878, symBinAddr: 0x100021648, symSize: 0x20 }
  - { offsetInCU: 0x3DE95, offset: 0x71426, size: 0x8, addend: 0x0, symName: __ZNSt3__19allocatorIN8nlohmann16json_abi_v3_11_310basic_jsonINS_3mapENS_6vectorENS_12basic_stringIcNS_11char_traitsIcEENS0_IcEEEEbxydS0_NS2_14adl_serializerENS5_IhNS0_IhEEEEvEEE8allocateB7v160006Em, symObjAddr: 0xF898, symBinAddr: 0x100021668, symSize: 0x58 }
  - { offsetInCU: 0x3DEC7, offset: 0x71458, size: 0x8, addend: 0x0, symName: __ZNSt3__117__compressed_pairIPN8nlohmann16json_abi_v3_11_310basic_jsonINS_3mapENS_6vectorENS_12basic_stringIcNS_11char_traitsIcEENS_9allocatorIcEEEEbxydS9_NS2_14adl_serializerENS5_IhNS9_IhEEEEvEERNS9_ISF_EEE6secondB7v160006Ev, symObjAddr: 0xF8F0, symBinAddr: 0x1000216C0, symSize: 0x28 }
  - { offsetInCU: 0x3DEEB, offset: 0x7147C, size: 0x8, addend: 0x0, symName: __ZNSt3__122__compressed_pair_elemIRNS_9allocatorIN8nlohmann16json_abi_v3_11_310basic_jsonINS_3mapENS_6vectorENS_12basic_stringIcNS_11char_traitsIcEENS1_IcEEEEbxydS1_NS3_14adl_serializerENS6_IhNS1_IhEEEEvEEEELi1ELb0EE5__getB7v160006Ev, symObjAddr: 0xF918, symBinAddr: 0x1000216E8, symSize: 0x18 }
  - { offsetInCU: 0x3DF0F, offset: 0x714A0, size: 0x8, addend: 0x0, symName: __ZNSt3__117__compressed_pairIPN8nlohmann16json_abi_v3_11_310basic_jsonINS_3mapENS_6vectorENS_12basic_stringIcNS_11char_traitsIcEENS_9allocatorIcEEEEbxydS9_NS2_14adl_serializerENS5_IhNS9_IhEEEEvEERNS9_ISF_EEE5firstB7v160006Ev, symObjAddr: 0xF930, symBinAddr: 0x100021700, symSize: 0x24 }
  - { offsetInCU: 0x3DF33, offset: 0x714C4, size: 0x8, addend: 0x0, symName: __ZNSt3__122__compressed_pair_elemIPN8nlohmann16json_abi_v3_11_310basic_jsonINS_3mapENS_6vectorENS_12basic_stringIcNS_11char_traitsIcEENS_9allocatorIcEEEEbxydS9_NS2_14adl_serializerENS5_IhNS9_IhEEEEvEELi0ELb0EE5__getB7v160006Ev, symObjAddr: 0xF954, symBinAddr: 0x100021724, symSize: 0x14 }
  - { offsetInCU: 0x3DF57, offset: 0x714E8, size: 0x8, addend: 0x0, symName: __ZNKSt3__16vectorIN8nlohmann16json_abi_v3_11_310basic_jsonINS_3mapES0_NS_12basic_stringIcNS_11char_traitsIcEENS_9allocatorIcEEEEbxydS8_NS2_14adl_serializerENS0_IhNS8_IhEEEEvEENS8_ISE_EEE17__annotate_deleteB7v160006Ev, symObjAddr: 0xF968, symBinAddr: 0x100021738, symSize: 0xB8 }
  - { offsetInCU: 0x3DF7B, offset: 0x7150C, size: 0x8, addend: 0x0, symName: __ZNSt3__116reverse_iteratorIPN8nlohmann16json_abi_v3_11_310basic_jsonINS_3mapENS_6vectorENS_12basic_stringIcNS_11char_traitsIcEENS_9allocatorIcEEEEbxydS9_NS2_14adl_serializerENS5_IhNS9_IhEEEEvEEEC1B7v160006ESG_, symObjAddr: 0xFB4C, symBinAddr: 0x10002191C, symSize: 0x34 }
  - { offsetInCU: 0x3DFB1, offset: 0x71542, size: 0x8, addend: 0x0, symName: __ZNKSt3__116reverse_iteratorIPN8nlohmann16json_abi_v3_11_310basic_jsonINS_3mapENS_6vectorENS_12basic_stringIcNS_11char_traitsIcEENS_9allocatorIcEEEEbxydS9_NS2_14adl_serializerENS5_IhNS9_IhEEEEvEEE4baseB7v160006Ev, symObjAddr: 0xFB80, symBinAddr: 0x100021950, symSize: 0x18 }
  - { offsetInCU: 0x3DFD5, offset: 0x71566, size: 0x8, addend: 0x0, symName: __ZNSt3__16vectorIN8nlohmann16json_abi_v3_11_310basic_jsonINS_3mapES0_NS_12basic_stringIcNS_11char_traitsIcEENS_9allocatorIcEEEEbxydS8_NS2_14adl_serializerENS0_IhNS8_IhEEEEvEENS8_ISE_EEE9__end_capB7v160006Ev, symObjAddr: 0xFBD4, symBinAddr: 0x1000219A4, symSize: 0x28 }
  - { offsetInCU: 0x3DFF9, offset: 0x7158A, size: 0x8, addend: 0x0, symName: __ZNKSt3__16vectorIN8nlohmann16json_abi_v3_11_310basic_jsonINS_3mapES0_NS_12basic_stringIcNS_11char_traitsIcEENS_9allocatorIcEEEEbxydS8_NS2_14adl_serializerENS0_IhNS8_IhEEEEvEENS8_ISE_EEE14__annotate_newB7v160006Em, symObjAddr: 0xFBFC, symBinAddr: 0x1000219CC, symSize: 0xAC }
  - { offsetInCU: 0x3E02C, offset: 0x715BD, size: 0x8, addend: 0x0, symName: __ZNKSt3__16vectorIN8nlohmann16json_abi_v3_11_310basic_jsonINS_3mapES0_NS_12basic_stringIcNS_11char_traitsIcEENS_9allocatorIcEEEEbxydS8_NS2_14adl_serializerENS0_IhNS8_IhEEEEvEENS8_ISE_EEE31__annotate_contiguous_containerB7v160006EPKvSI_SI_SI_, symObjAddr: 0xFCB8, symBinAddr: 0x100021A88, symSize: 0x20 }
  - { offsetInCU: 0x3E07C, offset: 0x7160D, size: 0x8, addend: 0x0, symName: __ZNKSt3__16vectorIN8nlohmann16json_abi_v3_11_310basic_jsonINS_3mapES0_NS_12basic_stringIcNS_11char_traitsIcEENS_9allocatorIcEEEEbxydS8_NS2_14adl_serializerENS0_IhNS8_IhEEEEvEENS8_ISE_EEE4dataB7v160006Ev, symObjAddr: 0xFCD8, symBinAddr: 0x100021AA8, symSize: 0x28 }
  - { offsetInCU: 0x3E0A0, offset: 0x71631, size: 0x8, addend: 0x0, symName: __ZNSt3__129_AllocatorDestroyRangeReverseINS_9allocatorIN8nlohmann16json_abi_v3_11_310basic_jsonINS_3mapENS_6vectorENS_12basic_stringIcNS_11char_traitsIcEENS1_IcEEEEbxydS1_NS3_14adl_serializerENS6_IhNS1_IhEEEEvEEEENS_16reverse_iteratorIPSF_EEEC1B7v160006ERSG_RSJ_SM_, symObjAddr: 0xFD60, symBinAddr: 0x100021B30, symSize: 0x44 }
  - { offsetInCU: 0x3E0F5, offset: 0x71686, size: 0x8, addend: 0x0, symName: __ZNSt3__116allocator_traitsINS_9allocatorIN8nlohmann16json_abi_v3_11_310basic_jsonINS_3mapENS_6vectorENS_12basic_stringIcNS_11char_traitsIcEENS1_IcEEEEbxydS1_NS3_14adl_serializerENS6_IhNS1_IhEEEEvEEEEE9constructB7v160006ISF_JSF_EvEEvRSG_PT_DpOT0_, symObjAddr: 0xFDEC, symBinAddr: 0x100021BBC, symSize: 0x34 }
  - { offsetInCU: 0x3E14B, offset: 0x716DC, size: 0x8, addend: 0x0, symName: __ZNKSt3__116reverse_iteratorIPN8nlohmann16json_abi_v3_11_310basic_jsonINS_3mapENS_6vectorENS_12basic_stringIcNS_11char_traitsIcEENS_9allocatorIcEEEEbxydS9_NS2_14adl_serializerENS5_IhNS9_IhEEEEvEEEdeB7v160006Ev, symObjAddr: 0xFE44, symBinAddr: 0x100021C14, symSize: 0x28 }
  - { offsetInCU: 0x3E17D, offset: 0x7170E, size: 0x8, addend: 0x0, symName: __ZNSt3__116reverse_iteratorIPN8nlohmann16json_abi_v3_11_310basic_jsonINS_3mapENS_6vectorENS_12basic_stringIcNS_11char_traitsIcEENS_9allocatorIcEEEEbxydS9_NS2_14adl_serializerENS5_IhNS9_IhEEEEvEEEppB7v160006Ev, symObjAddr: 0xFE6C, symBinAddr: 0x100021C3C, symSize: 0x20 }
  - { offsetInCU: 0x3E1A1, offset: 0x71732, size: 0x8, addend: 0x0, symName: __ZNSt3__128__exception_guard_exceptionsINS_29_AllocatorDestroyRangeReverseINS_9allocatorIN8nlohmann16json_abi_v3_11_310basic_jsonINS_3mapENS_6vectorENS_12basic_stringIcNS_11char_traitsIcEENS2_IcEEEEbxydS2_NS4_14adl_serializerENS7_IhNS2_IhEEEEvEEEENS_16reverse_iteratorIPSG_EEEEE10__completeB7v160006Ev, symObjAddr: 0xFE8C, symBinAddr: 0x100021C5C, symSize: 0x1C }
  - { offsetInCU: 0x3E1C5, offset: 0x71756, size: 0x8, addend: 0x0, symName: __ZNSt3__128__exception_guard_exceptionsINS_29_AllocatorDestroyRangeReverseINS_9allocatorIN8nlohmann16json_abi_v3_11_310basic_jsonINS_3mapENS_6vectorENS_12basic_stringIcNS_11char_traitsIcEENS2_IcEEEEbxydS2_NS4_14adl_serializerENS7_IhNS2_IhEEEEvEEEENS_16reverse_iteratorIPSG_EEEEED1B7v160006Ev, symObjAddr: 0xFEA8, symBinAddr: 0x100021C78, symSize: 0x2C }
  - { offsetInCU: 0x3E1ED, offset: 0x7177E, size: 0x8, addend: 0x0, symName: __ZNSt3__128__exception_guard_exceptionsINS_29_AllocatorDestroyRangeReverseINS_9allocatorIN8nlohmann16json_abi_v3_11_310basic_jsonINS_3mapENS_6vectorENS_12basic_stringIcNS_11char_traitsIcEENS2_IcEEEEbxydS2_NS4_14adl_serializerENS7_IhNS2_IhEEEEvEEEENS_16reverse_iteratorIPSG_EEEEEC1B7v160006ESL_, symObjAddr: 0xFED4, symBinAddr: 0x100021CA4, symSize: 0x34 }
  - { offsetInCU: 0x3E224, offset: 0x717B5, size: 0x8, addend: 0x0, symName: __ZNSt3__128__exception_guard_exceptionsINS_29_AllocatorDestroyRangeReverseINS_9allocatorIN8nlohmann16json_abi_v3_11_310basic_jsonINS_3mapENS_6vectorENS_12basic_stringIcNS_11char_traitsIcEENS2_IcEEEEbxydS2_NS4_14adl_serializerENS7_IhNS2_IhEEEEvEEEENS_16reverse_iteratorIPSG_EEEEEC2B7v160006ESL_, symObjAddr: 0xFF08, symBinAddr: 0x100021CD8, symSize: 0x30 }
  - { offsetInCU: 0x3E25B, offset: 0x717EC, size: 0x8, addend: 0x0, symName: __ZNSt3__129_AllocatorDestroyRangeReverseINS_9allocatorIN8nlohmann16json_abi_v3_11_310basic_jsonINS_3mapENS_6vectorENS_12basic_stringIcNS_11char_traitsIcEENS1_IcEEEEbxydS1_NS3_14adl_serializerENS6_IhNS1_IhEEEEvEEEENS_16reverse_iteratorIPSF_EEEC2B7v160006ERSG_RSJ_SM_, symObjAddr: 0xFF38, symBinAddr: 0x100021D08, symSize: 0x38 }
  - { offsetInCU: 0x3E2B0, offset: 0x71841, size: 0x8, addend: 0x0, symName: __ZNSt3__19allocatorIN8nlohmann16json_abi_v3_11_310basic_jsonINS_3mapENS_6vectorENS_12basic_stringIcNS_11char_traitsIcEENS0_IcEEEEbxydS0_NS2_14adl_serializerENS5_IhNS0_IhEEEEvEEE9constructB7v160006ISE_JSE_EEEvPT_DpOT0_, symObjAddr: 0xFF70, symBinAddr: 0x100021D40, symSize: 0x30 }
  - { offsetInCU: 0x3E309, offset: 0x7189A, size: 0x8, addend: 0x0, symName: __ZNSt3__119__to_address_helperINS_16reverse_iteratorIPN8nlohmann16json_abi_v3_11_310basic_jsonINS_3mapENS_6vectorENS_12basic_stringIcNS_11char_traitsIcEENS_9allocatorIcEEEEbxydSA_NS3_14adl_serializerENS6_IhNSA_IhEEEEvEEEEvE6__callB7v160006ERKSI_, symObjAddr: 0xFFA0, symBinAddr: 0x100021D70, symSize: 0x38 }
  - { offsetInCU: 0x3E32B, offset: 0x718BC, size: 0x8, addend: 0x0, symName: __ZNKSt3__116reverse_iteratorIPN8nlohmann16json_abi_v3_11_310basic_jsonINS_3mapENS_6vectorENS_12basic_stringIcNS_11char_traitsIcEENS_9allocatorIcEEEEbxydS9_NS2_14adl_serializerENS5_IhNS9_IhEEEEvEEEptB7v160006Ev, symObjAddr: 0xFFD8, symBinAddr: 0x100021DA8, symSize: 0x24 }
  - { offsetInCU: 0x3E34F, offset: 0x718E0, size: 0x8, addend: 0x0, symName: __ZNSt3__128__exception_guard_exceptionsINS_29_AllocatorDestroyRangeReverseINS_9allocatorIN8nlohmann16json_abi_v3_11_310basic_jsonINS_3mapENS_6vectorENS_12basic_stringIcNS_11char_traitsIcEENS2_IcEEEEbxydS2_NS4_14adl_serializerENS7_IhNS2_IhEEEEvEEEENS_16reverse_iteratorIPSG_EEEEED2B7v160006Ev, symObjAddr: 0xFFFC, symBinAddr: 0x100021DCC, symSize: 0x50 }
  - { offsetInCU: 0x3E377, offset: 0x71908, size: 0x8, addend: 0x0, symName: __ZNKSt3__129_AllocatorDestroyRangeReverseINS_9allocatorIN8nlohmann16json_abi_v3_11_310basic_jsonINS_3mapENS_6vectorENS_12basic_stringIcNS_11char_traitsIcEENS1_IcEEEEbxydS1_NS3_14adl_serializerENS6_IhNS1_IhEEEEvEEEENS_16reverse_iteratorIPSF_EEEclB7v160006Ev, symObjAddr: 0x1004C, symBinAddr: 0x100021E1C, symSize: 0xB4 }
  - { offsetInCU: 0x3E39C, offset: 0x7192D, size: 0x8, addend: 0x0, symName: __ZNSt3__116reverse_iteratorINS0_IPN8nlohmann16json_abi_v3_11_310basic_jsonINS_3mapENS_6vectorENS_12basic_stringIcNS_11char_traitsIcEENS_9allocatorIcEEEEbxydS9_NS2_14adl_serializerENS5_IhNS9_IhEEEEvEEEEEC1B7v160006ESH_, symObjAddr: 0x10170, symBinAddr: 0x100021F40, symSize: 0x3C }
  - { offsetInCU: 0x3E3D2, offset: 0x71963, size: 0x8, addend: 0x0, symName: __ZNSt3__116allocator_traitsINS_9allocatorIN8nlohmann16json_abi_v3_11_310basic_jsonINS_3mapENS_6vectorENS_12basic_stringIcNS_11char_traitsIcEENS1_IcEEEEbxydS1_NS3_14adl_serializerENS6_IhNS1_IhEEEEvEEEEE7destroyB7v160006ISF_vEEvRSG_PT_, symObjAddr: 0x1020C, symBinAddr: 0x100021FDC, symSize: 0x2C }
  - { offsetInCU: 0x3E40E, offset: 0x7199F, size: 0x8, addend: 0x0, symName: __ZNSt3__116reverse_iteratorINS0_IPN8nlohmann16json_abi_v3_11_310basic_jsonINS_3mapENS_6vectorENS_12basic_stringIcNS_11char_traitsIcEENS_9allocatorIcEEEEbxydS9_NS2_14adl_serializerENS5_IhNS9_IhEEEEvEEEEEppB7v160006Ev, symObjAddr: 0x1025C, symBinAddr: 0x10002202C, symSize: 0x30 }
  - { offsetInCU: 0x3E432, offset: 0x719C3, size: 0x8, addend: 0x0, symName: __ZNKSt3__116reverse_iteratorINS0_IPN8nlohmann16json_abi_v3_11_310basic_jsonINS_3mapENS_6vectorENS_12basic_stringIcNS_11char_traitsIcEENS_9allocatorIcEEEEbxydS9_NS2_14adl_serializerENS5_IhNS9_IhEEEEvEEEEE4baseB7v160006Ev, symObjAddr: 0x1028C, symBinAddr: 0x10002205C, symSize: 0x24 }
  - { offsetInCU: 0x3E456, offset: 0x719E7, size: 0x8, addend: 0x0, symName: __ZNSt3__19allocatorIN8nlohmann16json_abi_v3_11_310basic_jsonINS_3mapENS_6vectorENS_12basic_stringIcNS_11char_traitsIcEENS0_IcEEEEbxydS0_NS2_14adl_serializerENS5_IhNS0_IhEEEEvEEE7destroyB7v160006EPSE_, symObjAddr: 0x102B0, symBinAddr: 0x100022080, symSize: 0x28 }
  - { offsetInCU: 0x3E48D, offset: 0x71A1E, size: 0x8, addend: 0x0, symName: __ZNSt3__119__to_address_helperINS_16reverse_iteratorINS1_IPN8nlohmann16json_abi_v3_11_310basic_jsonINS_3mapENS_6vectorENS_12basic_stringIcNS_11char_traitsIcEENS_9allocatorIcEEEEbxydSA_NS3_14adl_serializerENS6_IhNSA_IhEEEEvEEEEEEvE6__callB7v160006ERKSJ_, symObjAddr: 0x102D8, symBinAddr: 0x1000220A8, symSize: 0x38 }
  - { offsetInCU: 0x3E4AF, offset: 0x71A40, size: 0x8, addend: 0x0, symName: __ZNKSt3__116reverse_iteratorINS0_IPN8nlohmann16json_abi_v3_11_310basic_jsonINS_3mapENS_6vectorENS_12basic_stringIcNS_11char_traitsIcEENS_9allocatorIcEEEEbxydS9_NS2_14adl_serializerENS5_IhNS9_IhEEEEvEEEEEptB7v160006Ev, symObjAddr: 0x10310, symBinAddr: 0x1000220E0, symSize: 0x24 }
  - { offsetInCU: 0x3E4D3, offset: 0x71A64, size: 0x8, addend: 0x0, symName: __ZNKSt3__116reverse_iteratorINS0_IPN8nlohmann16json_abi_v3_11_310basic_jsonINS_3mapENS_6vectorENS_12basic_stringIcNS_11char_traitsIcEENS_9allocatorIcEEEEbxydS9_NS2_14adl_serializerENS5_IhNS9_IhEEEEvEEEEEdeB7v160006Ev, symObjAddr: 0x10334, symBinAddr: 0x100022104, symSize: 0x34 }
  - { offsetInCU: 0x3E505, offset: 0x71A96, size: 0x8, addend: 0x0, symName: __ZNSt3__116reverse_iteratorIPN8nlohmann16json_abi_v3_11_310basic_jsonINS_3mapENS_6vectorENS_12basic_stringIcNS_11char_traitsIcEENS_9allocatorIcEEEEbxydS9_NS2_14adl_serializerENS5_IhNS9_IhEEEEvEEEmmB7v160006Ev, symObjAddr: 0x10368, symBinAddr: 0x100022138, symSize: 0x20 }
  - { offsetInCU: 0x3E529, offset: 0x71ABA, size: 0x8, addend: 0x0, symName: __ZNSt3__116reverse_iteratorINS0_IPN8nlohmann16json_abi_v3_11_310basic_jsonINS_3mapENS_6vectorENS_12basic_stringIcNS_11char_traitsIcEENS_9allocatorIcEEEEbxydS9_NS2_14adl_serializerENS5_IhNS9_IhEEEEvEEEEEC2B7v160006ESH_, symObjAddr: 0x10388, symBinAddr: 0x100022158, symSize: 0x2C }
  - { offsetInCU: 0x3E55F, offset: 0x71AF0, size: 0x8, addend: 0x0, symName: __ZNSt3__116reverse_iteratorIPN8nlohmann16json_abi_v3_11_310basic_jsonINS_3mapENS_6vectorENS_12basic_stringIcNS_11char_traitsIcEENS_9allocatorIcEEEEbxydS9_NS2_14adl_serializerENS5_IhNS9_IhEEEEvEEEC2B7v160006ESG_, symObjAddr: 0x103B4, symBinAddr: 0x100022184, symSize: 0x28 }
  - { offsetInCU: 0x3E595, offset: 0x71B26, size: 0x8, addend: 0x0, symName: __ZNSt3__117__compressed_pairIPN8nlohmann16json_abi_v3_11_310basic_jsonINS_3mapENS_6vectorENS_12basic_stringIcNS_11char_traitsIcEENS_9allocatorIcEEEEbxydS9_NS2_14adl_serializerENS5_IhNS9_IhEEEEvEENS9_ISF_EEE5firstB7v160006Ev, symObjAddr: 0x103DC, symBinAddr: 0x1000221AC, symSize: 0x24 }
  - { offsetInCU: 0x3E5B9, offset: 0x71B4A, size: 0x8, addend: 0x0, symName: __ZNSt3__114__split_bufferIN8nlohmann16json_abi_v3_11_310basic_jsonINS_3mapENS_6vectorENS_12basic_stringIcNS_11char_traitsIcEENS_9allocatorIcEEEEbxydS9_NS2_14adl_serializerENS5_IhNS9_IhEEEEvEERNS9_ISF_EEED2Ev, symObjAddr: 0x10400, symBinAddr: 0x1000221D0, symSize: 0x8C }
  - { offsetInCU: 0x3E5E4, offset: 0x71B75, size: 0x8, addend: 0x0, symName: __ZNSt3__114__split_bufferIN8nlohmann16json_abi_v3_11_310basic_jsonINS_3mapENS_6vectorENS_12basic_stringIcNS_11char_traitsIcEENS_9allocatorIcEEEEbxydS9_NS2_14adl_serializerENS5_IhNS9_IhEEEEvEERNS9_ISF_EEE5clearB7v160006Ev, symObjAddr: 0x1048C, symBinAddr: 0x10002225C, symSize: 0x28 }
  - { offsetInCU: 0x3E608, offset: 0x71B99, size: 0x8, addend: 0x0, symName: __ZNSt3__116allocator_traitsINS_9allocatorIN8nlohmann16json_abi_v3_11_310basic_jsonINS_3mapENS_6vectorENS_12basic_stringIcNS_11char_traitsIcEENS1_IcEEEEbxydS1_NS3_14adl_serializerENS6_IhNS1_IhEEEEvEEEEE10deallocateB7v160006ERSG_PSF_m, symObjAddr: 0x104B4, symBinAddr: 0x100022284, symSize: 0x34 }
  - { offsetInCU: 0x3E649, offset: 0x71BDA, size: 0x8, addend: 0x0, symName: __ZNKSt3__114__split_bufferIN8nlohmann16json_abi_v3_11_310basic_jsonINS_3mapENS_6vectorENS_12basic_stringIcNS_11char_traitsIcEENS_9allocatorIcEEEEbxydS9_NS2_14adl_serializerENS5_IhNS9_IhEEEEvEERNS9_ISF_EEE8capacityB7v160006Ev, symObjAddr: 0x104E8, symBinAddr: 0x1000222B8, symSize: 0x40 }
  - { offsetInCU: 0x3E66D, offset: 0x71BFE, size: 0x8, addend: 0x0, symName: __ZNSt3__114__split_bufferIN8nlohmann16json_abi_v3_11_310basic_jsonINS_3mapENS_6vectorENS_12basic_stringIcNS_11char_traitsIcEENS_9allocatorIcEEEEbxydS9_NS2_14adl_serializerENS5_IhNS9_IhEEEEvEERNS9_ISF_EEE17__destruct_at_endB7v160006EPSF_, symObjAddr: 0x10528, symBinAddr: 0x1000222F8, symSize: 0x2C }
  - { offsetInCU: 0x3E69F, offset: 0x71C30, size: 0x8, addend: 0x0, symName: __ZNSt3__114__split_bufferIN8nlohmann16json_abi_v3_11_310basic_jsonINS_3mapENS_6vectorENS_12basic_stringIcNS_11char_traitsIcEENS_9allocatorIcEEEEbxydS9_NS2_14adl_serializerENS5_IhNS9_IhEEEEvEERNS9_ISF_EEE17__destruct_at_endB7v160006EPSF_NS_17integral_constantIbLb0EEE, symObjAddr: 0x10554, symBinAddr: 0x100022324, symSize: 0x80 }
  - { offsetInCU: 0x3E6DD, offset: 0x71C6E, size: 0x8, addend: 0x0, symName: __ZNSt3__19allocatorIN8nlohmann16json_abi_v3_11_310basic_jsonINS_3mapENS_6vectorENS_12basic_stringIcNS_11char_traitsIcEENS0_IcEEEEbxydS0_NS2_14adl_serializerENS5_IhNS0_IhEEEEvEEE10deallocateB7v160006EPSE_m, symObjAddr: 0x105D4, symBinAddr: 0x1000223A4, symSize: 0x40 }
  - { offsetInCU: 0x3E71D, offset: 0x71CAE, size: 0x8, addend: 0x0, symName: __ZNKSt3__114__split_bufferIN8nlohmann16json_abi_v3_11_310basic_jsonINS_3mapENS_6vectorENS_12basic_stringIcNS_11char_traitsIcEENS_9allocatorIcEEEEbxydS9_NS2_14adl_serializerENS5_IhNS9_IhEEEEvEERNS9_ISF_EEE9__end_capB7v160006Ev, symObjAddr: 0x10614, symBinAddr: 0x1000223E4, symSize: 0x28 }
  - { offsetInCU: 0x3E741, offset: 0x71CD2, size: 0x8, addend: 0x0, symName: __ZNKSt3__117__compressed_pairIPN8nlohmann16json_abi_v3_11_310basic_jsonINS_3mapENS_6vectorENS_12basic_stringIcNS_11char_traitsIcEENS_9allocatorIcEEEEbxydS9_NS2_14adl_serializerENS5_IhNS9_IhEEEEvEERNS9_ISF_EEE5firstB7v160006Ev, symObjAddr: 0x1063C, symBinAddr: 0x10002240C, symSize: 0x24 }
  - { offsetInCU: 0x3E788, offset: 0x71D19, size: 0x8, addend: 0x0, symName: __ZNKSt3__111__move_loopINS_17_ClassicAlgPolicyEEclB7v160006IPN8nlohmann16json_abi_v3_11_310basic_jsonINS_3mapENS_6vectorENS_12basic_stringIcNS_11char_traitsIcEENS_9allocatorIcEEEEbxydSC_NS5_14adl_serializerENS8_IhNSC_IhEEEEvEESJ_NS_20back_insert_iteratorINS8_ISI_NSC_ISI_EEEEEEEENS_4pairIT_T1_EESP_T0_SQ_, symObjAddr: 0x10870, symBinAddr: 0x100022640, symSize: 0x98 }
  - { offsetInCU: 0x3E80F, offset: 0x71DA0, size: 0x8, addend: 0x0, symName: __ZNSt3__14pairIPN8nlohmann16json_abi_v3_11_310basic_jsonINS_3mapENS_6vectorENS_12basic_stringIcNS_11char_traitsIcEENS_9allocatorIcEEEEbxydS9_NS2_14adl_serializerENS5_IhNS9_IhEEEEvEESG_EC1B7v160006ISG_SG_LPv0EEEOT_OT0_, symObjAddr: 0x10A68, symBinAddr: 0x100022838, symSize: 0x3C }
  - { offsetInCU: 0x3E86B, offset: 0x71DFC, size: 0x8, addend: 0x0, symName: __ZNSt3__14pairIPN8nlohmann16json_abi_v3_11_310basic_jsonINS_3mapENS_6vectorENS_12basic_stringIcNS_11char_traitsIcEENS_9allocatorIcEEEEbxydS9_NS2_14adl_serializerENS5_IhNS9_IhEEEEvEESG_EC2B7v160006ISG_SG_LPv0EEEOT_OT0_, symObjAddr: 0x10AA4, symBinAddr: 0x100022874, symSize: 0x34 }
  - { offsetInCU: 0x3E8C7, offset: 0x71E58, size: 0x8, addend: 0x0, symName: __ZNSt3__118__unwrap_iter_implINS_11__wrap_iterIPN8nlohmann16json_abi_v3_11_310basic_jsonINS_3mapENS_6vectorENS_12basic_stringIcNS_11char_traitsIcEENS_9allocatorIcEEEEbxydSA_NS3_14adl_serializerENS6_IhNSA_IhEEEEvEEEELb1EE8__unwrapB7v160006ESI_, symObjAddr: 0x10AD8, symBinAddr: 0x1000228A8, symSize: 0x28 }
  - { offsetInCU: 0x3E8F3, offset: 0x71E84, size: 0x8, addend: 0x0, symName: __ZNSt3__119__to_address_helperINS_11__wrap_iterIPN8nlohmann16json_abi_v3_11_310basic_jsonINS_3mapENS_6vectorENS_12basic_stringIcNS_11char_traitsIcEENS_9allocatorIcEEEEbxydSA_NS3_14adl_serializerENS6_IhNSA_IhEEEEvEEEEvE6__callB7v160006ERKSI_, symObjAddr: 0x10B24, symBinAddr: 0x1000228F4, symSize: 0x30 }
  - { offsetInCU: 0x3E915, offset: 0x71EA6, size: 0x8, addend: 0x0, symName: __ZNSt3__114pointer_traitsINS_11__wrap_iterIPN8nlohmann16json_abi_v3_11_310basic_jsonINS_3mapENS_6vectorENS_12basic_stringIcNS_11char_traitsIcEENS_9allocatorIcEEEEbxydSA_NS3_14adl_serializerENS6_IhNSA_IhEEEEvEEEEE10to_addressB7v160006ESI_, symObjAddr: 0x10B54, symBinAddr: 0x100022924, symSize: 0x2C }
  - { offsetInCU: 0x3E938, offset: 0x71EC9, size: 0x8, addend: 0x0, symName: __ZNKSt3__111__wrap_iterIPN8nlohmann16json_abi_v3_11_310basic_jsonINS_3mapENS_6vectorENS_12basic_stringIcNS_11char_traitsIcEENS_9allocatorIcEEEEbxydS9_NS2_14adl_serializerENS5_IhNS9_IhEEEEvEEE4baseB7v160006Ev, symObjAddr: 0x10B80, symBinAddr: 0x100022950, symSize: 0x18 }
  - { offsetInCU: 0x3E95C, offset: 0x71EED, size: 0x8, addend: 0x0, symName: __ZNSt3__18_IterOpsINS_17_ClassicAlgPolicyEE11__iter_moveB7v160006IRPN8nlohmann16json_abi_v3_11_310basic_jsonINS_3mapENS_6vectorENS_12basic_stringIcNS_11char_traitsIcEENS_9allocatorIcEEEEbxydSC_NS5_14adl_serializerENS8_IhNSC_IhEEEEvEEEENS_9enable_ifIXsr12is_referenceIDTdeclsr3stdE7declvalIRT_EEEEE5valueEDTclsr3stdE4movedeclsr3stdE7declvalISN_EEEEE4typeEOSM_, symObjAddr: 0x10B98, symBinAddr: 0x100022968, symSize: 0x28 }
  - { offsetInCU: 0x3E987, offset: 0x71F18, size: 0x8, addend: 0x0, symName: __ZNSt3__120back_insert_iteratorINS_6vectorIN8nlohmann16json_abi_v3_11_310basic_jsonINS_3mapES1_NS_12basic_stringIcNS_11char_traitsIcEENS_9allocatorIcEEEEbxydS9_NS3_14adl_serializerENS1_IhNS9_IhEEEEvEENS9_ISF_EEEEEdeB7v160006Ev, symObjAddr: 0x10BC0, symBinAddr: 0x100022990, symSize: 0x14 }
  - { offsetInCU: 0x3E9AB, offset: 0x71F3C, size: 0x8, addend: 0x0, symName: __ZNSt3__120back_insert_iteratorINS_6vectorIN8nlohmann16json_abi_v3_11_310basic_jsonINS_3mapES1_NS_12basic_stringIcNS_11char_traitsIcEENS_9allocatorIcEEEEbxydS9_NS3_14adl_serializerENS1_IhNS9_IhEEEEvEENS9_ISF_EEEEEaSB7v160006EOSF_, symObjAddr: 0x10BD4, symBinAddr: 0x1000229A4, symSize: 0x38 }
  - { offsetInCU: 0x3E9DD, offset: 0x71F6E, size: 0x8, addend: 0x0, symName: __ZNSt3__120back_insert_iteratorINS_6vectorIN8nlohmann16json_abi_v3_11_310basic_jsonINS_3mapES1_NS_12basic_stringIcNS_11char_traitsIcEENS_9allocatorIcEEEEbxydS9_NS3_14adl_serializerENS1_IhNS9_IhEEEEvEENS9_ISF_EEEEEppB7v160006Ev, symObjAddr: 0x10C0C, symBinAddr: 0x1000229DC, symSize: 0x14 }
  - { offsetInCU: 0x3EA01, offset: 0x71F92, size: 0x8, addend: 0x0, symName: __ZNSt3__18_IterOpsINS_17_ClassicAlgPolicyEE25__validate_iter_referenceB7v160006IRPN8nlohmann16json_abi_v3_11_310basic_jsonINS_3mapENS_6vectorENS_12basic_stringIcNS_11char_traitsIcEENS_9allocatorIcEEEEbxydSC_NS5_14adl_serializerENS8_IhNSC_IhEEEEvEEEEvv, symObjAddr: 0x10C58, symBinAddr: 0x100022A28, symSize: 0x4 }
  - { offsetInCU: 0x3EA23, offset: 0x71FB4, size: 0x8, addend: 0x0, symName: __ZNSt3__14pairIPN8nlohmann16json_abi_v3_11_310basic_jsonINS_3mapENS_6vectorENS_12basic_stringIcNS_11char_traitsIcEENS_9allocatorIcEEEEbxydS9_NS2_14adl_serializerENS5_IhNS9_IhEEEEvEENS_20back_insert_iteratorINS5_ISF_NS9_ISF_EEEEEEEC1B7v160006ISG_SK_LPv0EEEOT_OT0_, symObjAddr: 0x10C5C, symBinAddr: 0x100022A2C, symSize: 0x3C }
  - { offsetInCU: 0x3EA7F, offset: 0x72010, size: 0x8, addend: 0x0, symName: __ZNSt3__14pairIPN8nlohmann16json_abi_v3_11_310basic_jsonINS_3mapENS_6vectorENS_12basic_stringIcNS_11char_traitsIcEENS_9allocatorIcEEEEbxydS9_NS2_14adl_serializerENS5_IhNS9_IhEEEEvEENS_20back_insert_iteratorINS5_ISF_NS9_ISF_EEEEEEEC2B7v160006ISG_SK_LPv0EEEOT_OT0_, symObjAddr: 0x10C98, symBinAddr: 0x100022A68, symSize: 0x34 }
  - { offsetInCU: 0x3EADB, offset: 0x7206C, size: 0x8, addend: 0x0, symName: __ZNSt3__118__unwrap_iter_implINS_20back_insert_iteratorINS_6vectorIN8nlohmann16json_abi_v3_11_310basic_jsonINS_3mapES2_NS_12basic_stringIcNS_11char_traitsIcEENS_9allocatorIcEEEEbxydSA_NS4_14adl_serializerENS2_IhNSA_IhEEEEvEENSA_ISG_EEEEEELb0EE8__unwrapB7v160006ESJ_, symObjAddr: 0x10CCC, symBinAddr: 0x100022A9C, symSize: 0x1C }
  - { offsetInCU: 0x3EB1B, offset: 0x720AC, size: 0x8, addend: 0x0, symName: __ZNSt3__14pairINS_11__wrap_iterIPN8nlohmann16json_abi_v3_11_310basic_jsonINS_3mapENS_6vectorENS_12basic_stringIcNS_11char_traitsIcEENS_9allocatorIcEEEEbxydSA_NS3_14adl_serializerENS6_IhNSA_IhEEEEvEEEENS_20back_insert_iteratorINS6_ISG_NSA_ISG_EEEEEEEC1B7v160006ISI_SM_LPv0EEEOT_OT0_, symObjAddr: 0x10CE8, symBinAddr: 0x100022AB8, symSize: 0x3C }
  - { offsetInCU: 0x3EB77, offset: 0x72108, size: 0x8, addend: 0x0, symName: __ZNSt3__14pairINS_11__wrap_iterIPN8nlohmann16json_abi_v3_11_310basic_jsonINS_3mapENS_6vectorENS_12basic_stringIcNS_11char_traitsIcEENS_9allocatorIcEEEEbxydSA_NS3_14adl_serializerENS6_IhNSA_IhEEEEvEEEENS_20back_insert_iteratorINS6_ISG_NSA_ISG_EEEEEEEC2B7v160006ISI_SM_LPv0EEEOT_OT0_, symObjAddr: 0x10D24, symBinAddr: 0x100022AF4, symSize: 0x34 }
  - { offsetInCU: 0x3EBD3, offset: 0x72164, size: 0x8, addend: 0x0, symName: __ZNSt3__118__unwrap_iter_implINS_11__wrap_iterIPN8nlohmann16json_abi_v3_11_310basic_jsonINS_3mapENS_6vectorENS_12basic_stringIcNS_11char_traitsIcEENS_9allocatorIcEEEEbxydSA_NS3_14adl_serializerENS6_IhNSA_IhEEEEvEEEELb1EE8__rewrapB7v160006ESI_SH_, symObjAddr: 0x10DA4, symBinAddr: 0x100022B74, symSize: 0x5C }
  - { offsetInCU: 0x3EC03, offset: 0x72194, size: 0x8, addend: 0x0, symName: __ZNKSt3__111__wrap_iterIPN8nlohmann16json_abi_v3_11_310basic_jsonINS_3mapENS_6vectorENS_12basic_stringIcNS_11char_traitsIcEENS_9allocatorIcEEEEbxydS9_NS2_14adl_serializerENS5_IhNS9_IhEEEEvEEEplB7v160006El, symObjAddr: 0x10E00, symBinAddr: 0x100022BD0, symSize: 0x3C }
  - { offsetInCU: 0x3EC43, offset: 0x721D4, size: 0x8, addend: 0x0, symName: __ZNSt3__111__wrap_iterIPN8nlohmann16json_abi_v3_11_310basic_jsonINS_3mapENS_6vectorENS_12basic_stringIcNS_11char_traitsIcEENS_9allocatorIcEEEEbxydS9_NS2_14adl_serializerENS5_IhNS9_IhEEEEvEEEpLB7v160006El, symObjAddr: 0x10E3C, symBinAddr: 0x100022C0C, symSize: 0x28 }
  - { offsetInCU: 0x3EC75, offset: 0x72206, size: 0x8, addend: 0x0, symName: __ZNSt3__118__unwrap_iter_implINS_20back_insert_iteratorINS_6vectorIN8nlohmann16json_abi_v3_11_310basic_jsonINS_3mapES2_NS_12basic_stringIcNS_11char_traitsIcEENS_9allocatorIcEEEEbxydSA_NS4_14adl_serializerENS2_IhNSA_IhEEEEvEENSA_ISG_EEEEEELb0EE8__rewrapB7v160006ESJ_SJ_, symObjAddr: 0x10E64, symBinAddr: 0x100022C34, symSize: 0x20 }
  - { offsetInCU: 0x3ECA1, offset: 0x72232, size: 0x8, addend: 0x0, symName: __ZNSt3__16vectorIN8nlohmann16json_abi_v3_11_310basic_jsonINS_3mapES0_NS_12basic_stringIcNS_11char_traitsIcEENS_9allocatorIcEEEEbxydS8_NS2_14adl_serializerENS0_IhNS8_IhEEEEvEENS8_ISE_EEE11__make_iterB7v160006EPSE_, symObjAddr: 0x10E84, symBinAddr: 0x100022C54, symSize: 0x34 }
  - { offsetInCU: 0x3ECD4, offset: 0x72265, size: 0x8, addend: 0x0, symName: __ZNSt3__111__wrap_iterIPN8nlohmann16json_abi_v3_11_310basic_jsonINS_3mapENS_6vectorENS_12basic_stringIcNS_11char_traitsIcEENS_9allocatorIcEEEEbxydS9_NS2_14adl_serializerENS5_IhNS9_IhEEEEvEEEC1B7v160006EPKvSG_, symObjAddr: 0x10EB8, symBinAddr: 0x100022C88, symSize: 0x3C }
  - { offsetInCU: 0x3ED18, offset: 0x722A9, size: 0x8, addend: 0x0, symName: __ZNSt3__111__wrap_iterIPN8nlohmann16json_abi_v3_11_310basic_jsonINS_3mapENS_6vectorENS_12basic_stringIcNS_11char_traitsIcEENS_9allocatorIcEEEEbxydS9_NS2_14adl_serializerENS5_IhNS9_IhEEEEvEEEC2B7v160006EPKvSG_, symObjAddr: 0x10EF4, symBinAddr: 0x100022CC4, symSize: 0x24 }
  - { offsetInCU: 0x3ED5C, offset: 0x722ED, size: 0x8, addend: 0x0, symName: __ZNSt3__120back_insert_iteratorINS_6vectorIN8nlohmann16json_abi_v3_11_310basic_jsonINS_3mapES1_NS_12basic_stringIcNS_11char_traitsIcEENS_9allocatorIcEEEEbxydS9_NS3_14adl_serializerENS1_IhNS9_IhEEEEvEENS9_ISF_EEEEEC1B7v160006ERSH_, symObjAddr: 0x10F18, symBinAddr: 0x100022CE8, symSize: 0x34 }
  - { offsetInCU: 0x3ED92, offset: 0x72323, size: 0x8, addend: 0x0, symName: __ZNSt3__120back_insert_iteratorINS_6vectorIN8nlohmann16json_abi_v3_11_310basic_jsonINS_3mapES1_NS_12basic_stringIcNS_11char_traitsIcEENS_9allocatorIcEEEEbxydS9_NS3_14adl_serializerENS1_IhNS9_IhEEEEvEENS9_ISF_EEEEEC2B7v160006ERSH_, symObjAddr: 0x10F4C, symBinAddr: 0x100022D1C, symSize: 0x20 }
  - { offsetInCU: 0x3EDC8, offset: 0x72359, size: 0x8, addend: 0x0, symName: __ZNKSt3__16__treeINS_12__value_typeINS_12basic_stringIcNS_11char_traitsIcEENS_9allocatorIcEEEEN8nlohmann16json_abi_v3_11_310basic_jsonINS_3mapENS_6vectorES7_bxydS5_NS9_14adl_serializerENSC_IhNS5_IhEEEEvEEEENS_19__map_value_compareIS7_SH_NS_4lessIS7_EELb1EEENS5_ISH_EEE4sizeB7v160006Ev, symObjAddr: 0x10F6C, symBinAddr: 0x100022D3C, symSize: 0x28 }
  - { offsetInCU: 0x3EDEC, offset: 0x7237D, size: 0x8, addend: 0x0, symName: __ZNKSt3__117__compressed_pairImNS_19__map_value_compareINS_12basic_stringIcNS_11char_traitsIcEENS_9allocatorIcEEEENS_12__value_typeIS7_N8nlohmann16json_abi_v3_11_310basic_jsonINS_3mapENS_6vectorES7_bxydS5_NSA_14adl_serializerENSD_IhNS5_IhEEEEvEEEENS_4lessIS7_EELb1EEEE5firstB7v160006Ev, symObjAddr: 0x10F94, symBinAddr: 0x100022D64, symSize: 0x24 }
  - { offsetInCU: 0x3EE10, offset: 0x723A1, size: 0x8, addend: 0x0, symName: __ZNSt3__16__treeINS_12__value_typeINS_12basic_stringIcNS_11char_traitsIcEENS_9allocatorIcEEEEN8nlohmann16json_abi_v3_11_310basic_jsonINS_3mapENS_6vectorES7_bxydS5_NS9_14adl_serializerENSC_IhNS5_IhEEEEvEEEENS_19__map_value_compareIS7_SH_NS_4lessIS7_EELb1EEENS5_ISH_EEE5beginB7v160006Ev, symObjAddr: 0x10FCC, symBinAddr: 0x100022D88, symSize: 0x34 }
  - { offsetInCU: 0x3EE34, offset: 0x723C5, size: 0x8, addend: 0x0, symName: __ZNSt3__114__map_iteratorINS_15__tree_iteratorINS_12__value_typeINS_12basic_stringIcNS_11char_traitsIcEENS_9allocatorIcEEEEN8nlohmann16json_abi_v3_11_310basic_jsonINS_3mapENS_6vectorES8_bxydS6_NSA_14adl_serializerENSD_IhNS6_IhEEEEvEEEEPNS_11__tree_nodeISI_PvEElEEEC1B7v160006ESN_, symObjAddr: 0x11000, symBinAddr: 0x100022DBC, symSize: 0x34 }
  - { offsetInCU: 0x3EE6B, offset: 0x723FC, size: 0x8, addend: 0x0, symName: __ZNSt3__16__treeINS_12__value_typeINS_12basic_stringIcNS_11char_traitsIcEENS_9allocatorIcEEEEN8nlohmann16json_abi_v3_11_310basic_jsonINS_3mapENS_6vectorES7_bxydS5_NS9_14adl_serializerENSC_IhNS5_IhEEEEvEEEENS_19__map_value_compareIS7_SH_NS_4lessIS7_EELb1EEENS5_ISH_EEE12__begin_nodeB7v160006Ev, symObjAddr: 0x11034, symBinAddr: 0x100022DF0, symSize: 0x14 }
  - { offsetInCU: 0x3EE8F, offset: 0x72420, size: 0x8, addend: 0x0, symName: __ZNSt3__115__tree_iteratorINS_12__value_typeINS_12basic_stringIcNS_11char_traitsIcEENS_9allocatorIcEEEEN8nlohmann16json_abi_v3_11_310basic_jsonINS_3mapENS_6vectorES7_bxydS5_NS9_14adl_serializerENSC_IhNS5_IhEEEEvEEEEPNS_11__tree_nodeISH_PvEElEC1B7v160006EPNS_15__tree_end_nodeIPNS_16__tree_node_baseISJ_EEEE, symObjAddr: 0x11048, symBinAddr: 0x100022E04, symSize: 0x34 }
  - { offsetInCU: 0x3EEC6, offset: 0x72457, size: 0x8, addend: 0x0, symName: __ZNSt3__115__tree_iteratorINS_12__value_typeINS_12basic_stringIcNS_11char_traitsIcEENS_9allocatorIcEEEEN8nlohmann16json_abi_v3_11_310basic_jsonINS_3mapENS_6vectorES7_bxydS5_NS9_14adl_serializerENSC_IhNS5_IhEEEEvEEEEPNS_11__tree_nodeISH_PvEElEC2B7v160006EPNS_15__tree_end_nodeIPNS_16__tree_node_baseISJ_EEEE, symObjAddr: 0x1107C, symBinAddr: 0x100022E38, symSize: 0x20 }
  - { offsetInCU: 0x3EEFD, offset: 0x7248E, size: 0x8, addend: 0x0, symName: __ZNSt3__114__map_iteratorINS_15__tree_iteratorINS_12__value_typeINS_12basic_stringIcNS_11char_traitsIcEENS_9allocatorIcEEEEN8nlohmann16json_abi_v3_11_310basic_jsonINS_3mapENS_6vectorES8_bxydS6_NSA_14adl_serializerENSD_IhNS6_IhEEEEvEEEEPNS_11__tree_nodeISI_PvEElEEEC2B7v160006ESN_, symObjAddr: 0x1109C, symBinAddr: 0x100022E58, symSize: 0x20 }
  - { offsetInCU: 0x3EF34, offset: 0x724C5, size: 0x8, addend: 0x0, symName: __ZNSt3__16__treeINS_12__value_typeINS_12basic_stringIcNS_11char_traitsIcEENS_9allocatorIcEEEEN8nlohmann16json_abi_v3_11_310basic_jsonINS_3mapENS_6vectorES7_bxydS5_NS9_14adl_serializerENSC_IhNS5_IhEEEEvEEEENS_19__map_value_compareIS7_SH_NS_4lessIS7_EELb1EEENS5_ISH_EEE3endB7v160006Ev, symObjAddr: 0x110BC, symBinAddr: 0x100022E78, symSize: 0x34 }
  - { offsetInCU: 0x3EF58, offset: 0x724E9, size: 0x8, addend: 0x0, symName: __ZNSt3__16__treeINS_12__value_typeINS_12basic_stringIcNS_11char_traitsIcEENS_9allocatorIcEEEEN8nlohmann16json_abi_v3_11_310basic_jsonINS_3mapENS_6vectorES7_bxydS5_NS9_14adl_serializerENSC_IhNS5_IhEEEEvEEEENS_19__map_value_compareIS7_SH_NS_4lessIS7_EELb1EEENS5_ISH_EEE10__end_nodeB7v160006Ev, symObjAddr: 0x110F0, symBinAddr: 0x100022EAC, symSize: 0x2C }
  - { offsetInCU: 0x3EF7C, offset: 0x7250D, size: 0x8, addend: 0x0, symName: __ZNSt3__114pointer_traitsIPNS_15__tree_end_nodeIPNS_16__tree_node_baseIPvEEEEE10pointer_toB7v160006ERS6_, symObjAddr: 0x1111C, symBinAddr: 0x100022ED8, symSize: 0x14 }
  - { offsetInCU: 0x3EF9E, offset: 0x7252F, size: 0x8, addend: 0x0, symName: __ZNSt3__117__compressed_pairINS_15__tree_end_nodeIPNS_16__tree_node_baseIPvEEEENS_9allocatorINS_11__tree_nodeINS_12__value_typeINS_12basic_stringIcNS_11char_traitsIcEENS7_IcEEEEN8nlohmann16json_abi_v3_11_310basic_jsonINS_3mapENS_6vectorESE_bxydS7_NSG_14adl_serializerENSJ_IhNS7_IhEEEEvEEEES3_EEEEE5firstB7v160006Ev, symObjAddr: 0x11130, symBinAddr: 0x100022EEC, symSize: 0x24 }
  - { offsetInCU: 0x3EFC2, offset: 0x72553, size: 0x8, addend: 0x0, symName: __ZNSt3__122__compressed_pair_elemINS_15__tree_end_nodeIPNS_16__tree_node_baseIPvEEEELi0ELb0EE5__getB7v160006Ev, symObjAddr: 0x11154, symBinAddr: 0x100022F10, symSize: 0x14 }
  - { offsetInCU: 0x3EFE6, offset: 0x72577, size: 0x8, addend: 0x0, symName: __ZNKSt3__115__tree_iteratorINS_12__value_typeINS_12basic_stringIcNS_11char_traitsIcEENS_9allocatorIcEEEEN8nlohmann16json_abi_v3_11_310basic_jsonINS_3mapENS_6vectorES7_bxydS5_NS9_14adl_serializerENSC_IhNS5_IhEEEEvEEEEPNS_11__tree_nodeISH_PvEElEptB7v160006Ev, symObjAddr: 0x111CC, symBinAddr: 0x100022F88, symSize: 0x2C }
  - { offsetInCU: 0x3F00A, offset: 0x7259B, size: 0x8, addend: 0x0, symName: __ZNSt3__112__value_typeINS_12basic_stringIcNS_11char_traitsIcEENS_9allocatorIcEEEEN8nlohmann16json_abi_v3_11_310basic_jsonINS_3mapENS_6vectorES6_bxydS4_NS8_14adl_serializerENSB_IhNS4_IhEEEEvEEE11__get_valueB7v160006Ev, symObjAddr: 0x111F8, symBinAddr: 0x100022FB4, symSize: 0x14 }
  - { offsetInCU: 0x3F02E, offset: 0x725BF, size: 0x8, addend: 0x0, symName: __ZNSt3__114pointer_traitsIPNS_12__value_typeINS_12basic_stringIcNS_11char_traitsIcEENS_9allocatorIcEEEEN8nlohmann16json_abi_v3_11_310basic_jsonINS_3mapENS_6vectorES7_bxydS5_NS9_14adl_serializerENSC_IhNS5_IhEEEEvEEEEE10pointer_toB7v160006ERSH_, symObjAddr: 0x1120C, symBinAddr: 0x100022FC8, symSize: 0x14 }
  - { offsetInCU: 0x3F050, offset: 0x725E1, size: 0x8, addend: 0x0, symName: __ZNKSt3__115__tree_iteratorINS_12__value_typeINS_12basic_stringIcNS_11char_traitsIcEENS_9allocatorIcEEEEN8nlohmann16json_abi_v3_11_310basic_jsonINS_3mapENS_6vectorES7_bxydS5_NS9_14adl_serializerENSC_IhNS5_IhEEEEvEEEEPNS_11__tree_nodeISH_PvEElE8__get_npB7v160006Ev, symObjAddr: 0x11220, symBinAddr: 0x100022FDC, symSize: 0x18 }
  - { offsetInCU: 0x3F074, offset: 0x72605, size: 0x8, addend: 0x0, symName: __ZNSt3__16vectorIN8nlohmann16json_abi_v3_11_310basic_jsonINS_3mapES0_NS_12basic_stringIcNS_11char_traitsIcEENS_9allocatorIcEEEEbxydS8_NS2_14adl_serializerENS0_IhNS8_IhEEEEvEENS8_ISE_EEE22__construct_one_at_endB7v160006IJSE_EEEvDpOT_, symObjAddr: 0x11238, symBinAddr: 0x100022FF4, symSize: 0x90 }
  - { offsetInCU: 0x3F0C2, offset: 0x72653, size: 0x8, addend: 0x0, symName: __ZNSt3__16vectorIN8nlohmann16json_abi_v3_11_310basic_jsonINS_3mapES0_NS_12basic_stringIcNS_11char_traitsIcEENS_9allocatorIcEEEEbxydS8_NS2_14adl_serializerENS0_IhNS8_IhEEEEvEENS8_ISE_EEE21__push_back_slow_pathISE_EEvOT_, symObjAddr: 0x112C8, symBinAddr: 0x100023084, symSize: 0xD8 }
  - { offsetInCU: 0x3F139, offset: 0x726CA, size: 0x8, addend: 0x0, symName: __ZNSt3__16vectorIN8nlohmann16json_abi_v3_11_310basic_jsonINS_3mapES0_NS_12basic_stringIcNS_11char_traitsIcEENS_9allocatorIcEEEEbxydS8_NS2_14adl_serializerENS0_IhNS8_IhEEEEvEENS8_ISE_EEE21_ConstructTransactionC1B7v160006ERSG_m, symObjAddr: 0x113A0, symBinAddr: 0x10002315C, symSize: 0x3C }
  - { offsetInCU: 0x3F17F, offset: 0x72710, size: 0x8, addend: 0x0, symName: __ZNSt3__16vectorIN8nlohmann16json_abi_v3_11_310basic_jsonINS_3mapES0_NS_12basic_stringIcNS_11char_traitsIcEENS_9allocatorIcEEEEbxydS8_NS2_14adl_serializerENS0_IhNS8_IhEEEEvEENS8_ISE_EEE21_ConstructTransactionD1B7v160006Ev, symObjAddr: 0x113DC, symBinAddr: 0x100023198, symSize: 0x2C }
  - { offsetInCU: 0x3F1A7, offset: 0x72738, size: 0x8, addend: 0x0, symName: __ZNSt3__16vectorIN8nlohmann16json_abi_v3_11_310basic_jsonINS_3mapES0_NS_12basic_stringIcNS_11char_traitsIcEENS_9allocatorIcEEEEbxydS8_NS2_14adl_serializerENS0_IhNS8_IhEEEEvEENS8_ISE_EEE21_ConstructTransactionC2B7v160006ERSG_m, symObjAddr: 0x11408, symBinAddr: 0x1000231C4, symSize: 0x44 }
  - { offsetInCU: 0x3F1ED, offset: 0x7277E, size: 0x8, addend: 0x0, symName: __ZNSt3__16vectorIN8nlohmann16json_abi_v3_11_310basic_jsonINS_3mapES0_NS_12basic_stringIcNS_11char_traitsIcEENS_9allocatorIcEEEEbxydS8_NS2_14adl_serializerENS0_IhNS8_IhEEEEvEENS8_ISE_EEE21_ConstructTransactionD2B7v160006Ev, symObjAddr: 0x1144C, symBinAddr: 0x100023208, symSize: 0x20 }
  - { offsetInCU: 0x3F215, offset: 0x727A6, size: 0x8, addend: 0x0, symName: __ZNKSt3__16vectorIN8nlohmann16json_abi_v3_11_310basic_jsonINS_3mapES0_NS_12basic_stringIcNS_11char_traitsIcEENS_9allocatorIcEEEEbxydS8_NS2_14adl_serializerENS0_IhNS8_IhEEEEvEENS8_ISE_EEE11__recommendB7v160006Em, symObjAddr: 0x1146C, symBinAddr: 0x100023228, symSize: 0xB4 }
  - { offsetInCU: 0x3F26A, offset: 0x727FB, size: 0x8, addend: 0x0, symName: __ZNSt3__115__tree_iteratorINS_12__value_typeINS_12basic_stringIcNS_11char_traitsIcEENS_9allocatorIcEEEEN8nlohmann16json_abi_v3_11_310basic_jsonINS_3mapENS_6vectorES7_bxydS5_NS9_14adl_serializerENSC_IhNS5_IhEEEEvEEEEPNS_11__tree_nodeISH_PvEElEppB7v160006Ev, symObjAddr: 0x115A0, symBinAddr: 0x1000232DC, symSize: 0x38 }
  - { offsetInCU: 0x3F28E, offset: 0x7281F, size: 0x8, addend: 0x0, symName: __ZNKSt3__116__tree_node_baseIPvE15__parent_unsafeB7v160006Ev, symObjAddr: 0x116D4, symBinAddr: 0x100023410, symSize: 0x18 }
  - { offsetInCU: 0x3F2B2, offset: 0x72843, size: 0x8, addend: 0x0, symName: __ZN8nlohmann16json_abi_v3_11_310basic_jsonINSt3__13mapENS2_6vectorENS2_12basic_stringIcNS2_11char_traitsIcEENS2_9allocatorIcEEEEbxydS8_NS0_14adl_serializerENS4_IhNS8_IhEEEEvEC2EOSE_, symObjAddr: 0x116EC, symBinAddr: 0x100023428, symSize: 0x80 }
  - { offsetInCU: 0x3F2E9, offset: 0x7287A, size: 0x8, addend: 0x0, symName: __ZN8nlohmann16json_abi_v3_11_310basic_jsonINSt3__13mapENS2_6vectorENS2_12basic_stringIcNS2_11char_traitsIcEENS2_9allocatorIcEEEEbxydS8_NS0_14adl_serializerENS4_IhNS8_IhEEEEvE11set_parentsEv, symObjAddr: 0x1176C, symBinAddr: 0x1000234A8, symSize: 0x10 }
  - { offsetInCU: 0x3F30D, offset: 0x7289E, size: 0x8, addend: 0x0, symName: __ZNSt3__16vectorIN8nlohmann16json_abi_v3_11_310basic_jsonINS_3mapES0_NS_12basic_stringIcNS_11char_traitsIcEENS_9allocatorIcEEEEbxydS8_NS2_14adl_serializerENS0_IhNS8_IhEEEEvEENS8_ISE_EEE17__destruct_at_endB7v160006EPSE_, symObjAddr: 0x1177C, symBinAddr: 0x1000234B8, symSize: 0x60 }
  - { offsetInCU: 0x3F350, offset: 0x728E1, size: 0x8, addend: 0x0, symName: __ZNSt3__16vectorIN8nlohmann16json_abi_v3_11_310basic_jsonINS_3mapES0_NS_12basic_stringIcNS_11char_traitsIcEENS_9allocatorIcEEEEbxydS8_NS2_14adl_serializerENS0_IhNS8_IhEEEEvEENS8_ISE_EEE27__invalidate_iterators_pastB7v160006EPSE_, symObjAddr: 0x117DC, symBinAddr: 0x100023518, symSize: 0x14 }
  - { offsetInCU: 0x3F386, offset: 0x72917, size: 0x8, addend: 0x0, symName: __ZNSt3__16vectorIN8nlohmann16json_abi_v3_11_310basic_jsonINS_3mapES0_NS_12basic_stringIcNS_11char_traitsIcEENS_9allocatorIcEEEEbxydS8_NS2_14adl_serializerENS0_IhNS8_IhEEEEvEENS8_ISE_EEE22__base_destruct_at_endB7v160006EPSE_, symObjAddr: 0x117F0, symBinAddr: 0x10002352C, symSize: 0x8C }
  - { offsetInCU: 0x3F3C9, offset: 0x7295A, size: 0x8, addend: 0x0, symName: __ZNKSt3__16vectorIN8nlohmann16json_abi_v3_11_310basic_jsonINS_3mapES0_NS_12basic_stringIcNS_11char_traitsIcEENS_9allocatorIcEEEEbxydS8_NS2_14adl_serializerENS0_IhNS8_IhEEEEvEENS8_ISE_EEE17__annotate_shrinkB7v160006Em, symObjAddr: 0x1187C, symBinAddr: 0x1000235B8, symSize: 0xB4 }
  - { offsetInCU: 0x3F3FC, offset: 0x7298D, size: 0x8, addend: 0x0, symName: __ZNSt3__16vectorIN8nlohmann16json_abi_v3_11_310basic_jsonINS_3mapES0_NS_12basic_stringIcNS_11char_traitsIcEENS_9allocatorIcEEEEbxydS8_NS2_14adl_serializerENS0_IhNS8_IhEEEEvEENS8_ISE_EEE7__clearB7v160006Ev, symObjAddr: 0x11930, symBinAddr: 0x10002366C, symSize: 0x28 }
  - { offsetInCU: 0x3F420, offset: 0x729B1, size: 0x8, addend: 0x0, symName: __ZNSt3__16__treeINS_12__value_typeINS_12basic_stringIcNS_11char_traitsIcEENS_9allocatorIcEEEEN8nlohmann16json_abi_v3_11_310basic_jsonINS_3mapENS_6vectorES7_bxydS5_NS9_14adl_serializerENSC_IhNS5_IhEEEEvEEEENS_19__map_value_compareIS7_SH_NS_4lessIS7_EELb1EEENS5_ISH_EEE5clearEv, symObjAddr: 0x11958, symBinAddr: 0x100023694, symSize: 0x74 }
  - { offsetInCU: 0x3F446, offset: 0x729D7, size: 0x8, addend: 0x0, symName: __ZNSt3__16__treeINS_12__value_typeINS_12basic_stringIcNS_11char_traitsIcEENS_9allocatorIcEEEEN8nlohmann16json_abi_v3_11_310basic_jsonINS_3mapENS_6vectorES7_bxydS5_NS9_14adl_serializerENSC_IhNS5_IhEEEEvEEEENS_19__map_value_compareIS7_SH_NS_4lessIS7_EELb1EEENS5_ISH_EEE7destroyEPNS_11__tree_nodeISH_PvEE, symObjAddr: 0x119CC, symBinAddr: 0x100023708, symSize: 0xAC }
  - { offsetInCU: 0x3F492, offset: 0x72A23, size: 0x8, addend: 0x0, symName: __ZNKSt3__16__treeINS_12__value_typeINS_12basic_stringIcNS_11char_traitsIcEENS_9allocatorIcEEEEN8nlohmann16json_abi_v3_11_310basic_jsonINS_3mapENS_6vectorES7_bxydS5_NS9_14adl_serializerENSC_IhNS5_IhEEEEvEEEENS_19__map_value_compareIS7_SH_NS_4lessIS7_EELb1EEENS5_ISH_EEE6__rootB7v160006Ev, symObjAddr: 0x11A78, symBinAddr: 0x1000237B4, symSize: 0x28 }
  - { offsetInCU: 0x3F4B6, offset: 0x72A47, size: 0x8, addend: 0x0, symName: __ZNSt3__16__treeINS_12__value_typeINS_12basic_stringIcNS_11char_traitsIcEENS_9allocatorIcEEEEN8nlohmann16json_abi_v3_11_310basic_jsonINS_3mapENS_6vectorES7_bxydS5_NS9_14adl_serializerENSC_IhNS5_IhEEEEvEEEENS_19__map_value_compareIS7_SH_NS_4lessIS7_EELb1EEENS5_ISH_EEE4sizeB7v160006Ev, symObjAddr: 0x11AA0, symBinAddr: 0x1000237DC, symSize: 0x28 }
  - { offsetInCU: 0x3F4DA, offset: 0x72A6B, size: 0x8, addend: 0x0, symName: __ZNSt3__16__treeINS_12__value_typeINS_12basic_stringIcNS_11char_traitsIcEENS_9allocatorIcEEEEN8nlohmann16json_abi_v3_11_310basic_jsonINS_3mapENS_6vectorES7_bxydS5_NS9_14adl_serializerENSC_IhNS5_IhEEEEvEEEENS_19__map_value_compareIS7_SH_NS_4lessIS7_EELb1EEENS5_ISH_EEE12__node_allocB7v160006Ev, symObjAddr: 0x11AC8, symBinAddr: 0x100023804, symSize: 0x28 }
  - { offsetInCU: 0x3F4FE, offset: 0x72A8F, size: 0x8, addend: 0x0, symName: __ZNSt3__116allocator_traitsINS_9allocatorINS_11__tree_nodeINS_12__value_typeINS_12basic_stringIcNS_11char_traitsIcEENS1_IcEEEEN8nlohmann16json_abi_v3_11_310basic_jsonINS_3mapENS_6vectorES8_bxydS1_NSA_14adl_serializerENSD_IhNS1_IhEEEEvEEEEPvEEEEE7destroyB7v160006INS_4pairIKS8_SH_EEvvEEvRSL_PT_, symObjAddr: 0x11AF0, symBinAddr: 0x10002382C, symSize: 0x28 }
  - { offsetInCU: 0x3F537, offset: 0x72AC8, size: 0x8, addend: 0x0, symName: __ZNSt3__122__tree_key_value_typesINS_12__value_typeINS_12basic_stringIcNS_11char_traitsIcEENS_9allocatorIcEEEEN8nlohmann16json_abi_v3_11_310basic_jsonINS_3mapENS_6vectorES7_bxydS5_NS9_14adl_serializerENSC_IhNS5_IhEEEEvEEEEE9__get_ptrB7v160006ERSH_, symObjAddr: 0x11B18, symBinAddr: 0x100023854, symSize: 0x24 }
  - { offsetInCU: 0x3F55A, offset: 0x72AEB, size: 0x8, addend: 0x0, symName: __ZNSt3__116allocator_traitsINS_9allocatorINS_11__tree_nodeINS_12__value_typeINS_12basic_stringIcNS_11char_traitsIcEENS1_IcEEEEN8nlohmann16json_abi_v3_11_310basic_jsonINS_3mapENS_6vectorES8_bxydS1_NSA_14adl_serializerENSD_IhNS1_IhEEEEvEEEEPvEEEEE10deallocateB7v160006ERSL_PSK_m, symObjAddr: 0x11B3C, symBinAddr: 0x100023878, symSize: 0x34 }
  - { offsetInCU: 0x3F59B, offset: 0x72B2C, size: 0x8, addend: 0x0, symName: __ZNSt3__117__compressed_pairINS_15__tree_end_nodeIPNS_16__tree_node_baseIPvEEEENS_9allocatorINS_11__tree_nodeINS_12__value_typeINS_12basic_stringIcNS_11char_traitsIcEENS7_IcEEEEN8nlohmann16json_abi_v3_11_310basic_jsonINS_3mapENS_6vectorESE_bxydS7_NSG_14adl_serializerENSJ_IhNS7_IhEEEEvEEEES3_EEEEE6secondB7v160006Ev, symObjAddr: 0x11B70, symBinAddr: 0x1000238AC, symSize: 0x24 }
  - { offsetInCU: 0x3F5BF, offset: 0x72B50, size: 0x8, addend: 0x0, symName: __ZNSt3__122__compressed_pair_elemINS_9allocatorINS_11__tree_nodeINS_12__value_typeINS_12basic_stringIcNS_11char_traitsIcEENS1_IcEEEEN8nlohmann16json_abi_v3_11_310basic_jsonINS_3mapENS_6vectorES8_bxydS1_NSA_14adl_serializerENSD_IhNS1_IhEEEEvEEEEPvEEEELi1ELb1EE5__getB7v160006Ev, symObjAddr: 0x11B94, symBinAddr: 0x1000238D0, symSize: 0x14 }
  - { offsetInCU: 0x3F5E3, offset: 0x72B74, size: 0x8, addend: 0x0, symName: __ZNSt3__14pairIKNS_12basic_stringIcNS_11char_traitsIcEENS_9allocatorIcEEEEN8nlohmann16json_abi_v3_11_310basic_jsonINS_3mapENS_6vectorES6_bxydS4_NS9_14adl_serializerENSC_IhNS4_IhEEEEvEEED1Ev, symObjAddr: 0x11BA8, symBinAddr: 0x1000238E4, symSize: 0x2C }
  - { offsetInCU: 0x3F60D, offset: 0x72B9E, size: 0x8, addend: 0x0, symName: __ZNSt3__14pairIKNS_12basic_stringIcNS_11char_traitsIcEENS_9allocatorIcEEEEN8nlohmann16json_abi_v3_11_310basic_jsonINS_3mapENS_6vectorES6_bxydS4_NS9_14adl_serializerENSC_IhNS4_IhEEEEvEEED2Ev, symObjAddr: 0x11BD4, symBinAddr: 0x100023910, symSize: 0x38 }
  - { offsetInCU: 0x3F637, offset: 0x72BC8, size: 0x8, addend: 0x0, symName: __ZNSt3__19allocatorINS_11__tree_nodeINS_12__value_typeINS_12basic_stringIcNS_11char_traitsIcEENS0_IcEEEEN8nlohmann16json_abi_v3_11_310basic_jsonINS_3mapENS_6vectorES7_bxydS0_NS9_14adl_serializerENSC_IhNS0_IhEEEEvEEEEPvEEE10deallocateB7v160006EPSJ_m, symObjAddr: 0x11C0C, symBinAddr: 0x100023948, symSize: 0x44 }
  - { offsetInCU: 0x3F677, offset: 0x72C08, size: 0x8, addend: 0x0, symName: __ZNKSt3__16__treeINS_12__value_typeINS_12basic_stringIcNS_11char_traitsIcEENS_9allocatorIcEEEEN8nlohmann16json_abi_v3_11_310basic_jsonINS_3mapENS_6vectorES7_bxydS5_NS9_14adl_serializerENSC_IhNS5_IhEEEEvEEEENS_19__map_value_compareIS7_SH_NS_4lessIS7_EELb1EEENS5_ISH_EEE10__end_nodeB7v160006Ev, symObjAddr: 0x11C50, symBinAddr: 0x10002398C, symSize: 0x2C }
  - { offsetInCU: 0x3F69B, offset: 0x72C2C, size: 0x8, addend: 0x0, symName: __ZNKSt3__117__compressed_pairINS_15__tree_end_nodeIPNS_16__tree_node_baseIPvEEEENS_9allocatorINS_11__tree_nodeINS_12__value_typeINS_12basic_stringIcNS_11char_traitsIcEENS7_IcEEEEN8nlohmann16json_abi_v3_11_310basic_jsonINS_3mapENS_6vectorESE_bxydS7_NSG_14adl_serializerENSJ_IhNS7_IhEEEEvEEEES3_EEEEE5firstB7v160006Ev, symObjAddr: 0x11C7C, symBinAddr: 0x1000239B8, symSize: 0x24 }
  - { offsetInCU: 0x3F6BF, offset: 0x72C50, size: 0x8, addend: 0x0, symName: __ZNKSt3__122__compressed_pair_elemINS_15__tree_end_nodeIPNS_16__tree_node_baseIPvEEEELi0ELb0EE5__getB7v160006Ev, symObjAddr: 0x11CA0, symBinAddr: 0x1000239DC, symSize: 0x14 }
  - { offsetInCU: 0x3F6E3, offset: 0x72C74, size: 0x8, addend: 0x0, symName: __ZNSt3__117__compressed_pairImNS_19__map_value_compareINS_12basic_stringIcNS_11char_traitsIcEENS_9allocatorIcEEEENS_12__value_typeIS7_N8nlohmann16json_abi_v3_11_310basic_jsonINS_3mapENS_6vectorES7_bxydS5_NSA_14adl_serializerENSD_IhNS5_IhEEEEvEEEENS_4lessIS7_EELb1EEEE5firstB7v160006Ev, symObjAddr: 0x11CB4, symBinAddr: 0x1000239F0, symSize: 0x24 }
  - { offsetInCU: 0x3F707, offset: 0x72C98, size: 0x8, addend: 0x0, symName: __ZNSt3__16vectorIN8nlohmann16json_abi_v3_11_310basic_jsonINS_3mapES0_NS_12basic_stringIcNS_11char_traitsIcEENS_9allocatorIcEEEEbxydS8_NS2_14adl_serializerENS0_IhNS8_IhEEEEvEENS8_ISE_EEED2B7v160006Ev, symObjAddr: 0x11CEC, symBinAddr: 0x100023A14, symSize: 0x44 }
  - { offsetInCU: 0x3F72F, offset: 0x72CC0, size: 0x8, addend: 0x0, symName: __ZNSt3__16vectorIN8nlohmann16json_abi_v3_11_310basic_jsonINS_3mapES0_NS_12basic_stringIcNS_11char_traitsIcEENS_9allocatorIcEEEEbxydS8_NS2_14adl_serializerENS0_IhNS8_IhEEEEvEENS8_ISE_EEE16__destroy_vectorC1ERSG_, symObjAddr: 0x11D30, symBinAddr: 0x100023A58, symSize: 0x34 }
  - { offsetInCU: 0x3F766, offset: 0x72CF7, size: 0x8, addend: 0x0, symName: __ZNSt3__16vectorIN8nlohmann16json_abi_v3_11_310basic_jsonINS_3mapES0_NS_12basic_stringIcNS_11char_traitsIcEENS_9allocatorIcEEEEbxydS8_NS2_14adl_serializerENS0_IhNS8_IhEEEEvEENS8_ISE_EEE16__destroy_vectorclB7v160006Ev, symObjAddr: 0x11D64, symBinAddr: 0x100023A8C, symSize: 0x9C }
  - { offsetInCU: 0x3F78A, offset: 0x72D1B, size: 0x8, addend: 0x0, symName: __ZNSt3__16vectorIN8nlohmann16json_abi_v3_11_310basic_jsonINS_3mapES0_NS_12basic_stringIcNS_11char_traitsIcEENS_9allocatorIcEEEEbxydS8_NS2_14adl_serializerENS0_IhNS8_IhEEEEvEENS8_ISE_EEE16__destroy_vectorC2ERSG_, symObjAddr: 0x11E00, symBinAddr: 0x100023B28, symSize: 0x20 }
  - { offsetInCU: 0x3F7C1, offset: 0x72D52, size: 0x8, addend: 0x0, symName: __ZNSt3__19allocatorINS_3mapINS_12basic_stringIcNS_11char_traitsIcEENS0_IcEEEEN8nlohmann16json_abi_v3_11_310basic_jsonIS1_NS_6vectorES6_bxydS0_NS8_14adl_serializerENSA_IhNS0_IhEEEEvEENS_4lessIS6_EENS0_INS_4pairIKS6_SE_EEEEEEEC2B7v160006Ev, symObjAddr: 0x11E30, symBinAddr: 0x100023B58, symSize: 0x2C }
  - { offsetInCU: 0x3F7E9, offset: 0x72D7A, size: 0x8, addend: 0x0, symName: __ZNSt3__116__non_trivial_ifILb1ENS_9allocatorINS_3mapINS_12basic_stringIcNS_11char_traitsIcEENS1_IcEEEEN8nlohmann16json_abi_v3_11_310basic_jsonIS2_NS_6vectorES7_bxydS1_NS9_14adl_serializerENSB_IhNS1_IhEEEEvEENS_4lessIS7_EENS1_INS_4pairIKS7_SF_EEEEEEEEEC2B7v160006Ev, symObjAddr: 0x11E5C, symBinAddr: 0x100023B84, symSize: 0x14 }
  - { offsetInCU: 0x3F811, offset: 0x72DA2, size: 0x8, addend: 0x0, symName: __ZNSt3__19allocatorINS_3mapINS_12basic_stringIcNS_11char_traitsIcEENS0_IcEEEEN8nlohmann16json_abi_v3_11_310basic_jsonIS1_NS_6vectorES6_bxydS0_NS8_14adl_serializerENSA_IhNS0_IhEEEEvEENS_4lessIS6_EENS0_INS_4pairIKS6_SE_EEEEEEE7destroyB7v160006EPSL_, symObjAddr: 0x11E70, symBinAddr: 0x100023B98, symSize: 0x28 }
  - { offsetInCU: 0x3F843, offset: 0x72DD4, size: 0x8, addend: 0x0, symName: __ZNSt3__13mapINS_12basic_stringIcNS_11char_traitsIcEENS_9allocatorIcEEEEN8nlohmann16json_abi_v3_11_310basic_jsonIS0_NS_6vectorES6_bxydS4_NS8_14adl_serializerENSA_IhNS4_IhEEEEvEENS_4lessIS6_EENS4_INS_4pairIKS6_SE_EEEEED1B7v160006Ev, symObjAddr: 0x11E98, symBinAddr: 0x100023BC0, symSize: 0x2C }
  - { offsetInCU: 0x3F86B, offset: 0x72DFC, size: 0x8, addend: 0x0, symName: __ZNSt3__13mapINS_12basic_stringIcNS_11char_traitsIcEENS_9allocatorIcEEEEN8nlohmann16json_abi_v3_11_310basic_jsonIS0_NS_6vectorES6_bxydS4_NS8_14adl_serializerENSA_IhNS4_IhEEEEvEENS_4lessIS6_EENS4_INS_4pairIKS6_SE_EEEEED2B7v160006Ev, symObjAddr: 0x11EC4, symBinAddr: 0x100023BEC, symSize: 0x2C }
  - { offsetInCU: 0x3F893, offset: 0x72E24, size: 0x8, addend: 0x0, symName: __ZNSt3__16__treeINS_12__value_typeINS_12basic_stringIcNS_11char_traitsIcEENS_9allocatorIcEEEEN8nlohmann16json_abi_v3_11_310basic_jsonINS_3mapENS_6vectorES7_bxydS5_NS9_14adl_serializerENSC_IhNS5_IhEEEEvEEEENS_19__map_value_compareIS7_SH_NS_4lessIS7_EELb1EEENS5_ISH_EEED1Ev, symObjAddr: 0x11EF0, symBinAddr: 0x100023C18, symSize: 0x2C }
  - { offsetInCU: 0x3F8BE, offset: 0x72E4F, size: 0x8, addend: 0x0, symName: __ZNSt3__16__treeINS_12__value_typeINS_12basic_stringIcNS_11char_traitsIcEENS_9allocatorIcEEEEN8nlohmann16json_abi_v3_11_310basic_jsonINS_3mapENS_6vectorES7_bxydS5_NS9_14adl_serializerENSC_IhNS5_IhEEEEvEEEENS_19__map_value_compareIS7_SH_NS_4lessIS7_EELb1EEENS5_ISH_EEED2Ev, symObjAddr: 0x11F1C, symBinAddr: 0x100023C44, symSize: 0x38 }
  - { offsetInCU: 0x3F8E9, offset: 0x72E7A, size: 0x8, addend: 0x0, symName: __ZNSt3__19allocatorINS_3mapINS_12basic_stringIcNS_11char_traitsIcEENS0_IcEEEEN8nlohmann16json_abi_v3_11_310basic_jsonIS1_NS_6vectorES6_bxydS0_NS8_14adl_serializerENSA_IhNS0_IhEEEEvEENS_4lessIS6_EENS0_INS_4pairIKS6_SE_EEEEEEE10deallocateB7v160006EPSL_m, symObjAddr: 0x11F54, symBinAddr: 0x100023C7C, symSize: 0x44 }
  - { offsetInCU: 0x3F929, offset: 0x72EBA, size: 0x8, addend: 0x0, symName: __ZNSt3__19allocatorINS_6vectorIN8nlohmann16json_abi_v3_11_310basic_jsonINS_3mapES1_NS_12basic_stringIcNS_11char_traitsIcEENS0_IcEEEEbxydS0_NS3_14adl_serializerENS1_IhNS0_IhEEEEvEENS0_ISE_EEEEEC2B7v160006Ev, symObjAddr: 0x11F98, symBinAddr: 0x100023CC0, symSize: 0x2C }
  - { offsetInCU: 0x3F951, offset: 0x72EE2, size: 0x8, addend: 0x0, symName: __ZNSt3__116__non_trivial_ifILb1ENS_9allocatorINS_6vectorIN8nlohmann16json_abi_v3_11_310basic_jsonINS_3mapES2_NS_12basic_stringIcNS_11char_traitsIcEENS1_IcEEEEbxydS1_NS4_14adl_serializerENS2_IhNS1_IhEEEEvEENS1_ISF_EEEEEEEC2B7v160006Ev, symObjAddr: 0x11FC4, symBinAddr: 0x100023CEC, symSize: 0x14 }
  - { offsetInCU: 0x3F979, offset: 0x72F0A, size: 0x8, addend: 0x0, symName: __ZNSt3__19allocatorINS_6vectorIN8nlohmann16json_abi_v3_11_310basic_jsonINS_3mapES1_NS_12basic_stringIcNS_11char_traitsIcEENS0_IcEEEEbxydS0_NS3_14adl_serializerENS1_IhNS0_IhEEEEvEENS0_ISE_EEEEE7destroyB7v160006EPSG_, symObjAddr: 0x11FD8, symBinAddr: 0x100023D00, symSize: 0x28 }
  - { offsetInCU: 0x3F9AB, offset: 0x72F3C, size: 0x8, addend: 0x0, symName: __ZNSt3__19allocatorINS_6vectorIN8nlohmann16json_abi_v3_11_310basic_jsonINS_3mapES1_NS_12basic_stringIcNS_11char_traitsIcEENS0_IcEEEEbxydS0_NS3_14adl_serializerENS1_IhNS0_IhEEEEvEENS0_ISE_EEEEE10deallocateB7v160006EPSG_m, symObjAddr: 0x12000, symBinAddr: 0x100023D28, symSize: 0x44 }
  - { offsetInCU: 0x3F9EB, offset: 0x72F7C, size: 0x8, addend: 0x0, symName: __ZNSt3__19allocatorINS_12basic_stringIcNS_11char_traitsIcEENS0_IcEEEEEC2B7v160006Ev, symObjAddr: 0x12044, symBinAddr: 0x100023D6C, symSize: 0x2C }
  - { offsetInCU: 0x3FA13, offset: 0x72FA4, size: 0x8, addend: 0x0, symName: __ZNSt3__116__non_trivial_ifILb1ENS_9allocatorINS_12basic_stringIcNS_11char_traitsIcEENS1_IcEEEEEEEC2B7v160006Ev, symObjAddr: 0x12070, symBinAddr: 0x100023D98, symSize: 0x14 }
  - { offsetInCU: 0x3FA3B, offset: 0x72FCC, size: 0x8, addend: 0x0, symName: __ZNSt3__19allocatorIN8nlohmann16json_abi_v3_11_327byte_container_with_subtypeINS_6vectorIhNS0_IhEEEEEEEC2B7v160006Ev, symObjAddr: 0x12084, symBinAddr: 0x100023DAC, symSize: 0x2C }
  - { offsetInCU: 0x3FA63, offset: 0x72FF4, size: 0x8, addend: 0x0, symName: __ZNSt3__116__non_trivial_ifILb1ENS_9allocatorIN8nlohmann16json_abi_v3_11_327byte_container_with_subtypeINS_6vectorIhNS1_IhEEEEEEEEEC2B7v160006Ev, symObjAddr: 0x120B0, symBinAddr: 0x100023DD8, symSize: 0x14 }
  - { offsetInCU: 0x3FA8B, offset: 0x7301C, size: 0x8, addend: 0x0, symName: __ZNSt3__19allocatorIN8nlohmann16json_abi_v3_11_327byte_container_with_subtypeINS_6vectorIhNS0_IhEEEEEEE7destroyB7v160006EPS7_, symObjAddr: 0x120C4, symBinAddr: 0x100023DEC, symSize: 0x28 }
  - { offsetInCU: 0x3FABD, offset: 0x7304E, size: 0x8, addend: 0x0, symName: __ZN8nlohmann16json_abi_v3_11_327byte_container_with_subtypeINSt3__16vectorIhNS2_9allocatorIhEEEEED1Ev, symObjAddr: 0x120EC, symBinAddr: 0x100023E14, symSize: 0x2C }
  - { offsetInCU: 0x3FAE9, offset: 0x7307A, size: 0x8, addend: 0x0, symName: __ZN8nlohmann16json_abi_v3_11_327byte_container_with_subtypeINSt3__16vectorIhNS2_9allocatorIhEEEEED2Ev, symObjAddr: 0x12118, symBinAddr: 0x100023E40, symSize: 0x2C }
  - { offsetInCU: 0x3FB15, offset: 0x730A6, size: 0x8, addend: 0x0, symName: __ZNSt3__16vectorIhNS_9allocatorIhEEED2B7v160006Ev, symObjAddr: 0x12144, symBinAddr: 0x100023E6C, symSize: 0x44 }
  - { offsetInCU: 0x3FB3D, offset: 0x730CE, size: 0x8, addend: 0x0, symName: __ZNSt3__16vectorIhNS_9allocatorIhEEE16__destroy_vectorC1ERS3_, symObjAddr: 0x12188, symBinAddr: 0x100023EB0, symSize: 0x34 }
  - { offsetInCU: 0x3FB74, offset: 0x73105, size: 0x8, addend: 0x0, symName: __ZNSt3__16vectorIhNS_9allocatorIhEEE16__destroy_vectorclB7v160006Ev, symObjAddr: 0x121BC, symBinAddr: 0x100023EE4, symSize: 0x9C }
  - { offsetInCU: 0x3FB98, offset: 0x73129, size: 0x8, addend: 0x0, symName: __ZNSt3__16vectorIhNS_9allocatorIhEEE16__destroy_vectorC2ERS3_, symObjAddr: 0x12258, symBinAddr: 0x100023F80, symSize: 0x20 }
  - { offsetInCU: 0x3FBCF, offset: 0x73160, size: 0x8, addend: 0x0, symName: __ZNKSt3__16vectorIhNS_9allocatorIhEEE17__annotate_deleteB7v160006Ev, symObjAddr: 0x12278, symBinAddr: 0x100023FA0, symSize: 0xB8 }
  - { offsetInCU: 0x3FBF3, offset: 0x73184, size: 0x8, addend: 0x0, symName: __ZNSt3__16vectorIhNS_9allocatorIhEEE7__clearB7v160006Ev, symObjAddr: 0x12340, symBinAddr: 0x100024068, symSize: 0x28 }
  - { offsetInCU: 0x3FC17, offset: 0x731A8, size: 0x8, addend: 0x0, symName: __ZNSt3__116allocator_traitsINS_9allocatorIhEEE10deallocateB7v160006ERS2_Phm, symObjAddr: 0x12368, symBinAddr: 0x100024090, symSize: 0x34 }
  - { offsetInCU: 0x3FC58, offset: 0x731E9, size: 0x8, addend: 0x0, symName: __ZNSt3__16vectorIhNS_9allocatorIhEEE7__allocB7v160006Ev, symObjAddr: 0x1239C, symBinAddr: 0x1000240C4, symSize: 0x28 }
  - { offsetInCU: 0x3FC7C, offset: 0x7320D, size: 0x8, addend: 0x0, symName: __ZNKSt3__16vectorIhNS_9allocatorIhEEE8capacityB7v160006Ev, symObjAddr: 0x123C4, symBinAddr: 0x1000240EC, symSize: 0x38 }
  - { offsetInCU: 0x3FCA0, offset: 0x73231, size: 0x8, addend: 0x0, symName: __ZNKSt3__16vectorIhNS_9allocatorIhEEE31__annotate_contiguous_containerB7v160006EPKvS5_S5_S5_, symObjAddr: 0x123FC, symBinAddr: 0x100024124, symSize: 0x20 }
  - { offsetInCU: 0x3FCF0, offset: 0x73281, size: 0x8, addend: 0x0, symName: __ZNKSt3__16vectorIhNS_9allocatorIhEEE4dataB7v160006Ev, symObjAddr: 0x1241C, symBinAddr: 0x100024144, symSize: 0x28 }
  - { offsetInCU: 0x3FD14, offset: 0x732A5, size: 0x8, addend: 0x0, symName: __ZNKSt3__16vectorIhNS_9allocatorIhEEE4sizeB7v160006Ev, symObjAddr: 0x12444, symBinAddr: 0x10002416C, symSize: 0x20 }
  - { offsetInCU: 0x3FD38, offset: 0x732C9, size: 0x8, addend: 0x0, symName: __ZNSt3__16vectorIhNS_9allocatorIhEEE22__base_destruct_at_endB7v160006EPh, symObjAddr: 0x12478, symBinAddr: 0x1000241A0, symSize: 0x8C }
  - { offsetInCU: 0x3FD7B, offset: 0x7330C, size: 0x8, addend: 0x0, symName: __ZNSt3__116allocator_traitsINS_9allocatorIhEEE7destroyB7v160006IhvEEvRS2_PT_, symObjAddr: 0x12504, symBinAddr: 0x10002422C, symSize: 0x2C }
  - { offsetInCU: 0x3FDB7, offset: 0x73348, size: 0x8, addend: 0x0, symName: __ZNSt3__19allocatorIhE7destroyB7v160006EPh, symObjAddr: 0x12530, symBinAddr: 0x100024258, symSize: 0x14 }
  - { offsetInCU: 0x3FDE9, offset: 0x7337A, size: 0x8, addend: 0x0, symName: __ZNSt3__19allocatorIhE10deallocateB7v160006EPhm, symObjAddr: 0x12544, symBinAddr: 0x10002426C, symSize: 0x40 }
  - { offsetInCU: 0x3FE29, offset: 0x733BA, size: 0x8, addend: 0x0, symName: __ZNSt3__117__compressed_pairIPhNS_9allocatorIhEEE6secondB7v160006Ev, symObjAddr: 0x12584, symBinAddr: 0x1000242AC, symSize: 0x24 }
  - { offsetInCU: 0x3FE4D, offset: 0x733DE, size: 0x8, addend: 0x0, symName: __ZNSt3__122__compressed_pair_elemINS_9allocatorIhEELi1ELb1EE5__getB7v160006Ev, symObjAddr: 0x125A8, symBinAddr: 0x1000242D0, symSize: 0x14 }
  - { offsetInCU: 0x3FE71, offset: 0x73402, size: 0x8, addend: 0x0, symName: __ZNKSt3__16vectorIhNS_9allocatorIhEEE9__end_capB7v160006Ev, symObjAddr: 0x125BC, symBinAddr: 0x1000242E4, symSize: 0x28 }
  - { offsetInCU: 0x3FE95, offset: 0x73426, size: 0x8, addend: 0x0, symName: __ZNKSt3__117__compressed_pairIPhNS_9allocatorIhEEE5firstB7v160006Ev, symObjAddr: 0x125E4, symBinAddr: 0x10002430C, symSize: 0x24 }
  - { offsetInCU: 0x3FEB9, offset: 0x7344A, size: 0x8, addend: 0x0, symName: __ZNKSt3__122__compressed_pair_elemIPhLi0ELb0EE5__getB7v160006Ev, symObjAddr: 0x12608, symBinAddr: 0x100024330, symSize: 0x14 }
  - { offsetInCU: 0x3FEDD, offset: 0x7346E, size: 0x8, addend: 0x0, symName: __ZNSt3__19allocatorIN8nlohmann16json_abi_v3_11_327byte_container_with_subtypeINS_6vectorIhNS0_IhEEEEEEE10deallocateB7v160006EPS7_m, symObjAddr: 0x1261C, symBinAddr: 0x100024344, symSize: 0x44 }
  - { offsetInCU: 0x3FF1D, offset: 0x734AE, size: 0x8, addend: 0x0, symName: __ZNSt3__16vectorINS_12basic_stringIcNS_11char_traitsIcEENS_9allocatorIcEEEENS4_IS6_EEED2B7v160006Ev, symObjAddr: 0x12660, symBinAddr: 0x100024388, symSize: 0x44 }
  - { offsetInCU: 0x3FF45, offset: 0x734D6, size: 0x8, addend: 0x0, symName: __ZNSt3__16vectorIdNS_9allocatorIdEEED2B7v160006Ev, symObjAddr: 0x126A4, symBinAddr: 0x1000243CC, symSize: 0x44 }
  - { offsetInCU: 0x3FF6D, offset: 0x734FE, size: 0x8, addend: 0x0, symName: __ZNSt3__16vectorINS_12basic_stringIcNS_11char_traitsIcEENS_9allocatorIcEEEENS4_IS6_EEEC2B7v160006Ev, symObjAddr: 0x126E8, symBinAddr: 0x100024410, symSize: 0x54 }
  - { offsetInCU: 0x3FF95, offset: 0x73526, size: 0x8, addend: 0x0, symName: __ZNSt3__117__compressed_pairIPNS_12basic_stringIcNS_11char_traitsIcEENS_9allocatorIcEEEENS4_IS6_EEEC1B7v160006IDnNS_18__default_init_tagEEEOT_OT0_, symObjAddr: 0x1273C, symBinAddr: 0x100024464, symSize: 0x3C }
  - { offsetInCU: 0x3FFEB, offset: 0x7357C, size: 0x8, addend: 0x0, symName: __ZNSt3__117__compressed_pairIPNS_12basic_stringIcNS_11char_traitsIcEENS_9allocatorIcEEEENS4_IS6_EEEC2B7v160006IDnNS_18__default_init_tagEEEOT_OT0_, symObjAddr: 0x12778, symBinAddr: 0x1000244A0, symSize: 0x40 }
  - { offsetInCU: 0x40041, offset: 0x735D2, size: 0x8, addend: 0x0, symName: __ZNSt3__122__compressed_pair_elemINS_9allocatorINS_12basic_stringIcNS_11char_traitsIcEENS1_IcEEEEEELi1ELb1EEC2B7v160006ENS_18__default_init_tagE, symObjAddr: 0x127B8, symBinAddr: 0x1000244E0, symSize: 0x2C }
  - { offsetInCU: 0x40073, offset: 0x73604, size: 0x8, addend: 0x0, symName: __ZN8nlohmann16json_abi_v3_11_310basic_jsonINSt3__13mapENS2_6vectorENS2_12basic_stringIcNS2_11char_traitsIcEENS2_9allocatorIcEEEEbxydS8_NS0_14adl_serializerENS4_IhNS8_IhEEEEvEC1ENS0_6detail7value_tE, symObjAddr: 0x127E4, symBinAddr: 0x10002450C, symSize: 0x34 }
  - { offsetInCU: 0x400AA, offset: 0x7363B, size: 0x8, addend: 0x0, symName: __ZN8nlohmann16json_abi_v3_11_310basic_jsonINSt3__13mapENS2_6vectorENS2_12basic_stringIcNS2_11char_traitsIcEENS2_9allocatorIcEEEEbxydS8_NS0_14adl_serializerENS4_IhNS8_IhEEEEvEC2ENS0_6detail7value_tE, symObjAddr: 0x12818, symBinAddr: 0x100024540, symSize: 0x44 }
  - { offsetInCU: 0x400E1, offset: 0x73672, size: 0x8, addend: 0x0, symName: __ZN8nlohmann16json_abi_v3_11_310basic_jsonINSt3__13mapENS2_6vectorENS2_12basic_stringIcNS2_11char_traitsIcEENS2_9allocatorIcEEEEbxydS8_NS0_14adl_serializerENS4_IhNS8_IhEEEEvE4dataC1ENS0_6detail7value_tE, symObjAddr: 0x1285C, symBinAddr: 0x100024584, symSize: 0x34 }
  - { offsetInCU: 0x40118, offset: 0x736A9, size: 0x8, addend: 0x0, symName: __ZN8nlohmann16json_abi_v3_11_310basic_jsonINSt3__13mapENS2_6vectorENS2_12basic_stringIcNS2_11char_traitsIcEENS2_9allocatorIcEEEEbxydS8_NS0_14adl_serializerENS4_IhNS8_IhEEEEvE4dataC2ENS0_6detail7value_tE, symObjAddr: 0x12890, symBinAddr: 0x1000245B8, symSize: 0x40 }
  - { offsetInCU: 0x4014F, offset: 0x736E0, size: 0x8, addend: 0x0, symName: __ZN8nlohmann16json_abi_v3_11_310basic_jsonINSt3__13mapENS2_6vectorENS2_12basic_stringIcNS2_11char_traitsIcEENS2_9allocatorIcEEEEbxydS8_NS0_14adl_serializerENS4_IhNS8_IhEEEEvE10json_valueC1ENS0_6detail7value_tE, symObjAddr: 0x128D0, symBinAddr: 0x1000245F8, symSize: 0x34 }
  - { offsetInCU: 0x40186, offset: 0x73717, size: 0x8, addend: 0x0, symName: __ZN8nlohmann16json_abi_v3_11_310basic_jsonINSt3__13mapENS2_6vectorENS2_12basic_stringIcNS2_11char_traitsIcEENS2_9allocatorIcEEEEbxydS8_NS0_14adl_serializerENS4_IhNS8_IhEEEEvE10json_valueC2ENS0_6detail7value_tE, symObjAddr: 0x12904, symBinAddr: 0x10002462C, symSize: 0x1DC }
  - { offsetInCU: 0x401BD, offset: 0x7374E, size: 0x8, addend: 0x0, symName: __ZN8nlohmann16json_abi_v3_11_310basic_jsonINSt3__13mapENS2_6vectorENS2_12basic_stringIcNS2_11char_traitsIcEENS2_9allocatorIcEEEEbxydS8_NS0_14adl_serializerENS4_IhNS8_IhEEEEvE6createINS3_ISA_SE_NS2_4lessISA_EENS8_INS2_4pairIKSA_SE_EEEEEEJEEEPT_DpOT0_, symObjAddr: 0x12B08, symBinAddr: 0x100024830, symSize: 0xEC }
  - { offsetInCU: 0x40238, offset: 0x737C9, size: 0x8, addend: 0x0, symName: __ZN8nlohmann16json_abi_v3_11_310basic_jsonINSt3__13mapENS2_6vectorENS2_12basic_stringIcNS2_11char_traitsIcEENS2_9allocatorIcEEEEbxydS8_NS0_14adl_serializerENS4_IhNS8_IhEEEEvE6createINS4_ISE_NS8_ISE_EEEEJEEEPT_DpOT0_, symObjAddr: 0x12BF4, symBinAddr: 0x10002491C, symSize: 0xEC }
  - { offsetInCU: 0x402C9, offset: 0x7385A, size: 0x8, addend: 0x0, symName: __ZN8nlohmann16json_abi_v3_11_310basic_jsonINSt3__13mapENS2_6vectorENS2_12basic_stringIcNS2_11char_traitsIcEENS2_9allocatorIcEEEEbxydS8_NS0_14adl_serializerENS4_IhNS8_IhEEEEvE6createISA_JRA1_KcEEEPT_DpOT0_, symObjAddr: 0x12CE0, symBinAddr: 0x100024A08, symSize: 0xF4 }
  - { offsetInCU: 0x40359, offset: 0x738EA, size: 0x8, addend: 0x0, symName: __ZN8nlohmann16json_abi_v3_11_310basic_jsonINSt3__13mapENS2_6vectorENS2_12basic_stringIcNS2_11char_traitsIcEENS2_9allocatorIcEEEEbxydS8_NS0_14adl_serializerENS4_IhNS8_IhEEEEvE6createINS0_27byte_container_with_subtypeISD_EEJEEEPT_DpOT0_, symObjAddr: 0x12DD4, symBinAddr: 0x100024AFC, symSize: 0xEC }
  - { offsetInCU: 0x403E8, offset: 0x73979, size: 0x8, addend: 0x0, symName: __ZN8nlohmann16json_abi_v3_11_36detail11other_error6createIDnLi0EEES2_iRKNSt3__112basic_stringIcNS4_11char_traitsIcEENS4_9allocatorIcEEEET_, symObjAddr: 0x12EC0, symBinAddr: 0x100024BE8, symSize: 0x130 }
  - { offsetInCU: 0x40449, offset: 0x739DA, size: 0x8, addend: 0x0, symName: __ZN8nlohmann16json_abi_v3_11_36detail11other_errorD1Ev, symObjAddr: 0x12FF0, symBinAddr: 0x100024D18, symSize: 0x2C }
  - { offsetInCU: 0x40475, offset: 0x73A06, size: 0x8, addend: 0x0, symName: __ZNSt3__116allocator_traitsINS_9allocatorINS_3mapINS_12basic_stringIcNS_11char_traitsIcEENS1_IcEEEEN8nlohmann16json_abi_v3_11_310basic_jsonIS2_NS_6vectorES7_bxydS1_NS9_14adl_serializerENSB_IhNS1_IhEEEEvEENS_4lessIS7_EENS1_INS_4pairIKS7_SF_EEEEEEEEE8allocateB7v160006ERSN_m, symObjAddr: 0x1301C, symBinAddr: 0x100024D44, symSize: 0x2C }
  - { offsetInCU: 0x40538, offset: 0x73AC9, size: 0x8, addend: 0x0, symName: __ZNSt3__110unique_ptrINS_3mapINS_12basic_stringIcNS_11char_traitsIcEENS_9allocatorIcEEEEN8nlohmann16json_abi_v3_11_310basic_jsonIS1_NS_6vectorES7_bxydS5_NS9_14adl_serializerENSB_IhNS5_IhEEEEvEENS_4lessIS7_EENS5_INS_4pairIKS7_SF_EEEEEEZNSF_6createISM_JEEEPT_DpOT0_EUlPSM_E_EC1B7v160006ILb1EvEEST_NS_16__dependent_typeINS_27__unique_ptr_deleter_sfinaeISU_EEXT_EE15__lval_ref_typeE, symObjAddr: 0x13048, symBinAddr: 0x100024D70, symSize: 0x3C }
  - { offsetInCU: 0x40587, offset: 0x73B18, size: 0x8, addend: 0x0, symName: __ZNSt3__116allocator_traitsINS_9allocatorINS_3mapINS_12basic_stringIcNS_11char_traitsIcEENS1_IcEEEEN8nlohmann16json_abi_v3_11_310basic_jsonIS2_NS_6vectorES7_bxydS1_NS9_14adl_serializerENSB_IhNS1_IhEEEEvEENS_4lessIS7_EENS1_INS_4pairIKS7_SF_EEEEEEEEE9constructB7v160006ISM_JEvEEvRSN_PT_DpOT0_, symObjAddr: 0x13084, symBinAddr: 0x100024DAC, symSize: 0x2C }
  - { offsetInCU: 0x405C8, offset: 0x73B59, size: 0x8, addend: 0x0, symName: __ZNKSt3__110unique_ptrINS_3mapINS_12basic_stringIcNS_11char_traitsIcEENS_9allocatorIcEEEEN8nlohmann16json_abi_v3_11_310basic_jsonIS1_NS_6vectorES7_bxydS5_NS9_14adl_serializerENSB_IhNS5_IhEEEEvEENS_4lessIS7_EENS5_INS_4pairIKS7_SF_EEEEEEZNSF_6createISM_JEEEPT_DpOT0_EUlPSM_E_E3getB7v160006Ev, symObjAddr: 0x130B0, symBinAddr: 0x100024DD8, symSize: 0x28 }
  - { offsetInCU: 0x405EC, offset: 0x73B7D, size: 0x8, addend: 0x0, symName: __ZNSt3__110unique_ptrINS_3mapINS_12basic_stringIcNS_11char_traitsIcEENS_9allocatorIcEEEEN8nlohmann16json_abi_v3_11_310basic_jsonIS1_NS_6vectorES7_bxydS5_NS9_14adl_serializerENSB_IhNS5_IhEEEEvEENS_4lessIS7_EENS5_INS_4pairIKS7_SF_EEEEEEZNSF_6createISM_JEEEPT_DpOT0_EUlPSM_E_E7releaseB7v160006Ev, symObjAddr: 0x13104, symBinAddr: 0x100024E2C, symSize: 0x44 }
  - { offsetInCU: 0x40620, offset: 0x73BB1, size: 0x8, addend: 0x0, symName: __ZNSt3__110unique_ptrINS_3mapINS_12basic_stringIcNS_11char_traitsIcEENS_9allocatorIcEEEEN8nlohmann16json_abi_v3_11_310basic_jsonIS1_NS_6vectorES7_bxydS5_NS9_14adl_serializerENSB_IhNS5_IhEEEEvEENS_4lessIS7_EENS5_INS_4pairIKS7_SF_EEEEEEZNSF_6createISM_JEEEPT_DpOT0_EUlPSM_E_ED1B7v160006Ev, symObjAddr: 0x13148, symBinAddr: 0x100024E70, symSize: 0x2C }
  - { offsetInCU: 0x40648, offset: 0x73BD9, size: 0x8, addend: 0x0, symName: __ZNSt3__19allocatorINS_3mapINS_12basic_stringIcNS_11char_traitsIcEENS0_IcEEEEN8nlohmann16json_abi_v3_11_310basic_jsonIS1_NS_6vectorES6_bxydS0_NS8_14adl_serializerENSA_IhNS0_IhEEEEvEENS_4lessIS6_EENS0_INS_4pairIKS6_SE_EEEEEEE8allocateB7v160006Em, symObjAddr: 0x13174, symBinAddr: 0x100024E9C, symSize: 0x5C }
  - { offsetInCU: 0x40684, offset: 0x73C15, size: 0x8, addend: 0x0, symName: __ZNSt3__116allocator_traitsINS_9allocatorINS_3mapINS_12basic_stringIcNS_11char_traitsIcEENS1_IcEEEEN8nlohmann16json_abi_v3_11_310basic_jsonIS2_NS_6vectorES7_bxydS1_NS9_14adl_serializerENSB_IhNS1_IhEEEEvEENS_4lessIS7_EENS1_INS_4pairIKS7_SF_EEEEEEEEE8max_sizeB7v160006ISN_vEEmRKSN_, symObjAddr: 0x131D0, symBinAddr: 0x100024EF8, symSize: 0x24 }
  - { offsetInCU: 0x406B1, offset: 0x73C42, size: 0x8, addend: 0x0, symName: __ZNKSt3__19allocatorINS_3mapINS_12basic_stringIcNS_11char_traitsIcEENS0_IcEEEEN8nlohmann16json_abi_v3_11_310basic_jsonIS1_NS_6vectorES6_bxydS0_NS8_14adl_serializerENSA_IhNS0_IhEEEEvEENS_4lessIS6_EENS0_INS_4pairIKS6_SE_EEEEEEE8max_sizeB7v160006Ev, symObjAddr: 0x131F4, symBinAddr: 0x100024F1C, symSize: 0x18 }
  - { offsetInCU: 0x406D5, offset: 0x73C66, size: 0x8, addend: 0x0, symName: __ZNSt3__110unique_ptrINS_3mapINS_12basic_stringIcNS_11char_traitsIcEENS_9allocatorIcEEEEN8nlohmann16json_abi_v3_11_310basic_jsonIS1_NS_6vectorES7_bxydS5_NS9_14adl_serializerENSB_IhNS5_IhEEEEvEENS_4lessIS7_EENS5_INS_4pairIKS7_SF_EEEEEEZNSF_6createISM_JEEEPT_DpOT0_EUlPSM_E_EC2B7v160006ILb1EvEEST_NS_16__dependent_typeINS_27__unique_ptr_deleter_sfinaeISU_EEXT_EE15__lval_ref_typeE, symObjAddr: 0x1320C, symBinAddr: 0x100024F34, symSize: 0x48 }
  - { offsetInCU: 0x40724, offset: 0x73CB5, size: 0x8, addend: 0x0, symName: __ZNSt3__117__compressed_pairIPNS_3mapINS_12basic_stringIcNS_11char_traitsIcEENS_9allocatorIcEEEEN8nlohmann16json_abi_v3_11_310basic_jsonIS1_NS_6vectorES7_bxydS5_NS9_14adl_serializerENSB_IhNS5_IhEEEEvEENS_4lessIS7_EENS5_INS_4pairIKS7_SF_EEEEEEZNSF_6createISM_JEEEPT_DpOT0_EUlSN_E_EC1B7v160006IRSN_RKSU_EEOSP_OT0_, symObjAddr: 0x13254, symBinAddr: 0x100024F7C, symSize: 0x3C }
  - { offsetInCU: 0x4077A, offset: 0x73D0B, size: 0x8, addend: 0x0, symName: __ZNSt3__117__compressed_pairIPNS_3mapINS_12basic_stringIcNS_11char_traitsIcEENS_9allocatorIcEEEEN8nlohmann16json_abi_v3_11_310basic_jsonIS1_NS_6vectorES7_bxydS5_NS9_14adl_serializerENSB_IhNS5_IhEEEEvEENS_4lessIS7_EENS5_INS_4pairIKS7_SF_EEEEEEZNSF_6createISM_JEEEPT_DpOT0_EUlSN_E_EC2B7v160006IRSN_RKSU_EEOSP_OT0_, symObjAddr: 0x13290, symBinAddr: 0x100024FB8, symSize: 0x48 }
  - { offsetInCU: 0x407D0, offset: 0x73D61, size: 0x8, addend: 0x0, symName: __ZNSt3__122__compressed_pair_elemIPNS_3mapINS_12basic_stringIcNS_11char_traitsIcEENS_9allocatorIcEEEEN8nlohmann16json_abi_v3_11_310basic_jsonIS1_NS_6vectorES7_bxydS5_NS9_14adl_serializerENSB_IhNS5_IhEEEEvEENS_4lessIS7_EENS5_INS_4pairIKS7_SF_EEEEEELi0ELb0EEC2B7v160006IRSN_vEEOT_, symObjAddr: 0x132D8, symBinAddr: 0x100025000, symSize: 0x24 }
  - { offsetInCU: 0x40810, offset: 0x73DA1, size: 0x8, addend: 0x0, symName: __ZNSt3__122__compressed_pair_elemIZN8nlohmann16json_abi_v3_11_310basic_jsonINS_3mapENS_6vectorENS_12basic_stringIcNS_11char_traitsIcEENS_9allocatorIcEEEEbxydS9_NS2_14adl_serializerENS5_IhNS9_IhEEEEvE6createINS4_ISB_SF_NS_4lessISB_EENS9_INS_4pairIKSB_SF_EEEEEEJEEEPT_DpOT0_EUlPSN_E_Li1ELb0EEC2B7v160006IRKSU_vEEOSO_, symObjAddr: 0x132FC, symBinAddr: 0x100025024, symSize: 0x24 }
  - { offsetInCU: 0x40850, offset: 0x73DE1, size: 0x8, addend: 0x0, symName: __ZNSt3__19allocatorINS_3mapINS_12basic_stringIcNS_11char_traitsIcEENS0_IcEEEEN8nlohmann16json_abi_v3_11_310basic_jsonIS1_NS_6vectorES6_bxydS0_NS8_14adl_serializerENSA_IhNS0_IhEEEEvEENS_4lessIS6_EENS0_INS_4pairIKS6_SE_EEEEEEE9constructB7v160006ISL_JEEEvPT_DpOT0_, symObjAddr: 0x13320, symBinAddr: 0x100025048, symSize: 0x28 }
  - { offsetInCU: 0x40890, offset: 0x73E21, size: 0x8, addend: 0x0, symName: __ZNSt3__13mapINS_12basic_stringIcNS_11char_traitsIcEENS_9allocatorIcEEEEN8nlohmann16json_abi_v3_11_310basic_jsonIS0_NS_6vectorES6_bxydS4_NS8_14adl_serializerENSA_IhNS4_IhEEEEvEENS_4lessIS6_EENS4_INS_4pairIKS6_SE_EEEEEC1B7v160006Ev, symObjAddr: 0x13348, symBinAddr: 0x100025070, symSize: 0x2C }
  - { offsetInCU: 0x408B8, offset: 0x73E49, size: 0x8, addend: 0x0, symName: __ZNSt3__13mapINS_12basic_stringIcNS_11char_traitsIcEENS_9allocatorIcEEEEN8nlohmann16json_abi_v3_11_310basic_jsonIS0_NS_6vectorES6_bxydS4_NS8_14adl_serializerENSA_IhNS4_IhEEEEvEENS_4lessIS6_EENS4_INS_4pairIKS6_SE_EEEEEC2B7v160006Ev, symObjAddr: 0x13374, symBinAddr: 0x10002509C, symSize: 0x40 }
  - { offsetInCU: 0x408E0, offset: 0x73E71, size: 0x8, addend: 0x0, symName: __ZNSt3__119__map_value_compareINS_12basic_stringIcNS_11char_traitsIcEENS_9allocatorIcEEEENS_12__value_typeIS6_N8nlohmann16json_abi_v3_11_310basic_jsonINS_3mapENS_6vectorES6_bxydS4_NS9_14adl_serializerENSC_IhNS4_IhEEEEvEEEENS_4lessIS6_EELb1EEC1B7v160006ESJ_, symObjAddr: 0x133B4, symBinAddr: 0x1000250DC, symSize: 0x2C }
  - { offsetInCU: 0x40917, offset: 0x73EA8, size: 0x8, addend: 0x0, symName: __ZNSt3__16__treeINS_12__value_typeINS_12basic_stringIcNS_11char_traitsIcEENS_9allocatorIcEEEEN8nlohmann16json_abi_v3_11_310basic_jsonINS_3mapENS_6vectorES7_bxydS5_NS9_14adl_serializerENSC_IhNS5_IhEEEEvEEEENS_19__map_value_compareIS7_SH_NS_4lessIS7_EELb1EEENS5_ISH_EEEC1ERKSL_, symObjAddr: 0x133E0, symBinAddr: 0x100025108, symSize: 0x34 }
  - { offsetInCU: 0x40951, offset: 0x73EE2, size: 0x8, addend: 0x0, symName: __ZNSt3__119__map_value_compareINS_12basic_stringIcNS_11char_traitsIcEENS_9allocatorIcEEEENS_12__value_typeIS6_N8nlohmann16json_abi_v3_11_310basic_jsonINS_3mapENS_6vectorES6_bxydS4_NS9_14adl_serializerENSC_IhNS4_IhEEEEvEEEENS_4lessIS6_EELb1EEC2B7v160006ESJ_, symObjAddr: 0x13414, symBinAddr: 0x10002513C, symSize: 0x14 }
  - { offsetInCU: 0x40988, offset: 0x73F19, size: 0x8, addend: 0x0, symName: __ZNSt3__16__treeINS_12__value_typeINS_12basic_stringIcNS_11char_traitsIcEENS_9allocatorIcEEEEN8nlohmann16json_abi_v3_11_310basic_jsonINS_3mapENS_6vectorES7_bxydS5_NS9_14adl_serializerENSC_IhNS5_IhEEEEvEEEENS_19__map_value_compareIS7_SH_NS_4lessIS7_EELb1EEENS5_ISH_EEEC2ERKSL_, symObjAddr: 0x13428, symBinAddr: 0x100025150, symSize: 0x7C }
  - { offsetInCU: 0x409C2, offset: 0x73F53, size: 0x8, addend: 0x0, symName: __ZNSt3__117__compressed_pairINS_15__tree_end_nodeIPNS_16__tree_node_baseIPvEEEENS_9allocatorINS_11__tree_nodeINS_12__value_typeINS_12basic_stringIcNS_11char_traitsIcEENS7_IcEEEEN8nlohmann16json_abi_v3_11_310basic_jsonINS_3mapENS_6vectorESE_bxydS7_NSG_14adl_serializerENSJ_IhNS7_IhEEEEvEEEES3_EEEEEC1B7v160006ILb1EvEEv, symObjAddr: 0x134A4, symBinAddr: 0x1000251CC, symSize: 0x2C }
  - { offsetInCU: 0x409F5, offset: 0x73F86, size: 0x8, addend: 0x0, symName: __ZNSt3__117__compressed_pairImNS_19__map_value_compareINS_12basic_stringIcNS_11char_traitsIcEENS_9allocatorIcEEEENS_12__value_typeIS7_N8nlohmann16json_abi_v3_11_310basic_jsonINS_3mapENS_6vectorES7_bxydS5_NSA_14adl_serializerENSD_IhNS5_IhEEEEvEEEENS_4lessIS7_EELb1EEEEC1B7v160006IiRKSL_EEOT_OT0_, symObjAddr: 0x134D0, symBinAddr: 0x1000251F8, symSize: 0x3C }
  - { offsetInCU: 0x40A4B, offset: 0x73FDC, size: 0x8, addend: 0x0, symName: __ZNSt3__117__compressed_pairINS_15__tree_end_nodeIPNS_16__tree_node_baseIPvEEEENS_9allocatorINS_11__tree_nodeINS_12__value_typeINS_12basic_stringIcNS_11char_traitsIcEENS7_IcEEEEN8nlohmann16json_abi_v3_11_310basic_jsonINS_3mapENS_6vectorESE_bxydS7_NSG_14adl_serializerENSJ_IhNS7_IhEEEEvEEEES3_EEEEEC2B7v160006ILb1EvEEv, symObjAddr: 0x1350C, symBinAddr: 0x100025234, symSize: 0x34 }
  - { offsetInCU: 0x40A7E, offset: 0x7400F, size: 0x8, addend: 0x0, symName: __ZNSt3__122__compressed_pair_elemINS_15__tree_end_nodeIPNS_16__tree_node_baseIPvEEEELi0ELb0EEC2B7v160006ENS_16__value_init_tagE, symObjAddr: 0x13540, symBinAddr: 0x100025268, symSize: 0x2C }
  - { offsetInCU: 0x40AB0, offset: 0x74041, size: 0x8, addend: 0x0, symName: __ZNSt3__122__compressed_pair_elemINS_9allocatorINS_11__tree_nodeINS_12__value_typeINS_12basic_stringIcNS_11char_traitsIcEENS1_IcEEEEN8nlohmann16json_abi_v3_11_310basic_jsonINS_3mapENS_6vectorES8_bxydS1_NSA_14adl_serializerENSD_IhNS1_IhEEEEvEEEEPvEEEELi1ELb1EEC2B7v160006ENS_16__value_init_tagE, symObjAddr: 0x1356C, symBinAddr: 0x100025294, symSize: 0x2C }
  - { offsetInCU: 0x40AE2, offset: 0x74073, size: 0x8, addend: 0x0, symName: __ZNSt3__115__tree_end_nodeIPNS_16__tree_node_baseIPvEEEC1B7v160006Ev, symObjAddr: 0x13598, symBinAddr: 0x1000252C0, symSize: 0x2C }
  - { offsetInCU: 0x40B0A, offset: 0x7409B, size: 0x8, addend: 0x0, symName: __ZNSt3__115__tree_end_nodeIPNS_16__tree_node_baseIPvEEEC2B7v160006Ev, symObjAddr: 0x135C4, symBinAddr: 0x1000252EC, symSize: 0x18 }
  - { offsetInCU: 0x40B32, offset: 0x740C3, size: 0x8, addend: 0x0, symName: __ZNSt3__19allocatorINS_11__tree_nodeINS_12__value_typeINS_12basic_stringIcNS_11char_traitsIcEENS0_IcEEEEN8nlohmann16json_abi_v3_11_310basic_jsonINS_3mapENS_6vectorES7_bxydS0_NS9_14adl_serializerENSC_IhNS0_IhEEEEvEEEEPvEEEC2B7v160006Ev, symObjAddr: 0x135DC, symBinAddr: 0x100025304, symSize: 0x2C }
  - { offsetInCU: 0x40B5A, offset: 0x740EB, size: 0x8, addend: 0x0, symName: __ZNSt3__116__non_trivial_ifILb1ENS_9allocatorINS_11__tree_nodeINS_12__value_typeINS_12basic_stringIcNS_11char_traitsIcEENS1_IcEEEEN8nlohmann16json_abi_v3_11_310basic_jsonINS_3mapENS_6vectorES8_bxydS1_NSA_14adl_serializerENSD_IhNS1_IhEEEEvEEEEPvEEEEEC2B7v160006Ev, symObjAddr: 0x13608, symBinAddr: 0x100025330, symSize: 0x14 }
  - { offsetInCU: 0x40B82, offset: 0x74113, size: 0x8, addend: 0x0, symName: __ZNSt3__117__compressed_pairImNS_19__map_value_compareINS_12basic_stringIcNS_11char_traitsIcEENS_9allocatorIcEEEENS_12__value_typeIS7_N8nlohmann16json_abi_v3_11_310basic_jsonINS_3mapENS_6vectorES7_bxydS5_NSA_14adl_serializerENSD_IhNS5_IhEEEEvEEEENS_4lessIS7_EELb1EEEEC2B7v160006IiRKSL_EEOT_OT0_, symObjAddr: 0x1361C, symBinAddr: 0x100025344, symSize: 0x44 }
  - { offsetInCU: 0x40BD8, offset: 0x74169, size: 0x8, addend: 0x0, symName: __ZNSt3__122__compressed_pair_elemINS_19__map_value_compareINS_12basic_stringIcNS_11char_traitsIcEENS_9allocatorIcEEEENS_12__value_typeIS7_N8nlohmann16json_abi_v3_11_310basic_jsonINS_3mapENS_6vectorES7_bxydS5_NSA_14adl_serializerENSD_IhNS5_IhEEEEvEEEENS_4lessIS7_EELb1EEELi1ELb1EEC2B7v160006IRKSL_vEEOT_, symObjAddr: 0x13684, symBinAddr: 0x100025388, symSize: 0x18 }
  - { offsetInCU: 0x40C18, offset: 0x741A9, size: 0x8, addend: 0x0, symName: __ZNKSt3__117__compressed_pairIPNS_3mapINS_12basic_stringIcNS_11char_traitsIcEENS_9allocatorIcEEEEN8nlohmann16json_abi_v3_11_310basic_jsonIS1_NS_6vectorES7_bxydS5_NS9_14adl_serializerENSB_IhNS5_IhEEEEvEENS_4lessIS7_EENS5_INS_4pairIKS7_SF_EEEEEEZNSF_6createISM_JEEEPT_DpOT0_EUlSN_E_E5firstB7v160006Ev, symObjAddr: 0x1369C, symBinAddr: 0x1000253A0, symSize: 0x24 }
  - { offsetInCU: 0x40C3C, offset: 0x741CD, size: 0x8, addend: 0x0, symName: __ZNKSt3__122__compressed_pair_elemIPNS_3mapINS_12basic_stringIcNS_11char_traitsIcEENS_9allocatorIcEEEEN8nlohmann16json_abi_v3_11_310basic_jsonIS1_NS_6vectorES7_bxydS5_NS9_14adl_serializerENSB_IhNS5_IhEEEEvEENS_4lessIS7_EENS5_INS_4pairIKS7_SF_EEEEEELi0ELb0EE5__getB7v160006Ev, symObjAddr: 0x136C0, symBinAddr: 0x1000253C4, symSize: 0x14 }
